
AVRASM ver. 2.1.30  C:\Users\Admin\Desktop\ravindra energy solar trackerNO NAME - mpu6050\List\tracker.asm Mon Apr 25 16:47:31 2022

C:\Users\Admin\Desktop\ravindra energy solar trackerNO NAME - mpu6050\List\tracker.asm(1088): warning: Register r7 already defined by the .DEF directive
C:\Users\Admin\Desktop\ravindra energy solar trackerNO NAME - mpu6050\List\tracker.asm(1089): warning: Register r6 already defined by the .DEF directive
C:\Users\Admin\Desktop\ravindra energy solar trackerNO NAME - mpu6050\List\tracker.asm(1090): warning: Register r9 already defined by the .DEF directive
C:\Users\Admin\Desktop\ravindra energy solar trackerNO NAME - mpu6050\List\tracker.asm(1091): warning: Register r8 already defined by the .DEF directive
C:\Users\Admin\Desktop\ravindra energy solar trackerNO NAME - mpu6050\List\tracker.asm(1092): warning: Register r11 already defined by the .DEF directive
C:\Users\Admin\Desktop\ravindra energy solar trackerNO NAME - mpu6050\List\tracker.asm(1093): warning: Register r10 already defined by the .DEF directive
C:\Users\Admin\Desktop\ravindra energy solar trackerNO NAME - mpu6050\List\tracker.asm(1094): warning: Register r13 already defined by the .DEF directive
C:\Users\Admin\Desktop\ravindra energy solar trackerNO NAME - mpu6050\List\tracker.asm(1095): warning: Register r12 already defined by the .DEF directive
                 
                 
                 ;CodeVisionAVR C Compiler V3.12 Advanced
                 ;(C) Copyright 1998-2014 Pavel Haiduc, HP InfoTech s.r.l.
                 ;http://www.hpinfotech.com
                 
                 ;Build configuration    : Release
                 ;Chip type              : ATmega32
                 ;Program type           : Application
                 ;Clock frequency        : 11.059200 MHz
                 ;Memory model           : Small
                 ;Optimize for           : Speed
                 ;(s)printf features     : int, width
                 ;(s)scanf features      : int, width
                 ;External RAM size      : 0
                 ;Data Stack size        : 512 byte(s)
                 ;Heap size              : 0 byte(s)
                 ;Promote 'char' to 'int': Yes
                 ;'char' is unsigned     : Yes
                 ;8 bit enums            : Yes
                 ;Global 'const' stored in FLASH: No
                 ;Enhanced function parameter passing: Yes
                 ;Enhanced core instructions: On
                 ;Automatic register allocation for global variables: On
                 ;Smart register allocation: On
                 
                 	#define _MODEL_SMALL_
                 
                 	#pragma AVRPART ADMIN PART_NAME ATmega32
                 	#pragma AVRPART MEMORY PROG_FLASH 32768
                 	#pragma AVRPART MEMORY EEPROM 1024
                 	#pragma AVRPART MEMORY INT_SRAM SIZE 2048
                 	#pragma AVRPART MEMORY INT_SRAM START_ADDR 0x60
                 
                 	#define CALL_SUPPORTED 1
                 
                 	.LISTMAC
                 	.EQU UDRE=0x5
                 	.EQU RXC=0x7
                 	.EQU USR=0xB
                 	.EQU UDR=0xC
                 	.EQU SPSR=0xE
                 	.EQU SPDR=0xF
                 	.EQU EERE=0x0
                 	.EQU EEWE=0x1
                 	.EQU EEMWE=0x2
                 	.EQU EECR=0x1C
                 	.EQU EEDR=0x1D
                 	.EQU EEARL=0x1E
                 	.EQU EEARH=0x1F
                 	.EQU WDTCR=0x21
                 	.EQU MCUCR=0x35
                 	.EQU GICR=0x3B
                 	.EQU SPL=0x3D
                 	.EQU SPH=0x3E
                 	.EQU SREG=0x3F
                 
                 	.DEF R0X0=R0
                 	.DEF R0X1=R1
                 	.DEF R0X2=R2
                 	.DEF R0X3=R3
                 	.DEF R0X4=R4
                 	.DEF R0X5=R5
                 	.DEF R0X6=R6
                 	.DEF R0X7=R7
                 	.DEF R0X8=R8
                 	.DEF R0X9=R9
                 	.DEF R0XA=R10
                 	.DEF R0XB=R11
                 	.DEF R0XC=R12
                 	.DEF R0XD=R13
                 	.DEF R0XE=R14
                 	.DEF R0XF=R15
                 	.DEF R0X10=R16
                 	.DEF R0X11=R17
                 	.DEF R0X12=R18
                 	.DEF R0X13=R19
                 	.DEF R0X14=R20
                 	.DEF R0X15=R21
                 	.DEF R0X16=R22
                 	.DEF R0X17=R23
                 	.DEF R0X18=R24
                 	.DEF R0X19=R25
                 	.DEF R0X1A=R26
                 	.DEF R0X1B=R27
                 	.DEF R0X1C=R28
                 	.DEF R0X1D=R29
                 	.DEF R0X1E=R30
                 	.DEF R0X1F=R31
                 
                 	.EQU __SRAM_START=0x0060
                 	.EQU __SRAM_END=0x085F
                 	.EQU __DSTACK_SIZE=0x0200
                 	.EQU __HEAP_SIZE=0x0000
                 	.EQU __CLEAR_SRAM_SIZE=__SRAM_END-__SRAM_START+1
                 
                 	.MACRO __CPD1N
                 	CPI  R30,LOW(@0)
                 	LDI  R26,HIGH(@0)
                 	CPC  R31,R26
                 	LDI  R26,BYTE3(@0)
                 	CPC  R22,R26
                 	LDI  R26,BYTE4(@0)
                 	CPC  R23,R26
                 	.ENDM
                 
                 	.MACRO __CPD2N
                 	CPI  R26,LOW(@0)
                 	LDI  R30,HIGH(@0)
                 	CPC  R27,R30
                 	LDI  R30,BYTE3(@0)
                 	CPC  R24,R30
                 	LDI  R30,BYTE4(@0)
                 	CPC  R25,R30
                 	.ENDM
                 
                 	.MACRO __CPWRR
                 	CP   R@0,R@2
                 	CPC  R@1,R@3
                 	.ENDM
                 
                 	.MACRO __CPWRN
                 	CPI  R@0,LOW(@2)
                 	LDI  R30,HIGH(@2)
                 	CPC  R@1,R30
                 	.ENDM
                 
                 	.MACRO __ADDB1MN
                 	SUBI R30,LOW(-@0-(@1))
                 	.ENDM
                 
                 	.MACRO __ADDB2MN
                 	SUBI R26,LOW(-@0-(@1))
                 	.ENDM
                 
                 	.MACRO __ADDW1MN
                 	SUBI R30,LOW(-@0-(@1))
                 	SBCI R31,HIGH(-@0-(@1))
                 	.ENDM
                 
                 	.MACRO __ADDW2MN
                 	SUBI R26,LOW(-@0-(@1))
                 	SBCI R27,HIGH(-@0-(@1))
                 	.ENDM
                 
                 	.MACRO __ADDW1FN
                 	SUBI R30,LOW(-2*@0-(@1))
                 	SBCI R31,HIGH(-2*@0-(@1))
                 	.ENDM
                 
                 	.MACRO __ADDD1FN
                 	SUBI R30,LOW(-2*@0-(@1))
                 	SBCI R31,HIGH(-2*@0-(@1))
                 	SBCI R22,BYTE3(-2*@0-(@1))
                 	.ENDM
                 
                 	.MACRO __ADDD1N
                 	SUBI R30,LOW(-@0)
                 	SBCI R31,HIGH(-@0)
                 	SBCI R22,BYTE3(-@0)
                 	SBCI R23,BYTE4(-@0)
                 	.ENDM
                 
                 	.MACRO __ADDD2N
                 	SUBI R26,LOW(-@0)
                 	SBCI R27,HIGH(-@0)
                 	SBCI R24,BYTE3(-@0)
                 	SBCI R25,BYTE4(-@0)
                 	.ENDM
                 
                 	.MACRO __SUBD1N
                 	SUBI R30,LOW(@0)
                 	SBCI R31,HIGH(@0)
                 	SBCI R22,BYTE3(@0)
                 	SBCI R23,BYTE4(@0)
                 	.ENDM
                 
                 	.MACRO __SUBD2N
                 	SUBI R26,LOW(@0)
                 	SBCI R27,HIGH(@0)
                 	SBCI R24,BYTE3(@0)
                 	SBCI R25,BYTE4(@0)
                 	.ENDM
                 
                 	.MACRO __ANDBMNN
                 	LDS  R30,@0+(@1)
                 	ANDI R30,LOW(@2)
                 	STS  @0+(@1),R30
                 	.ENDM
                 
                 	.MACRO __ANDWMNN
                 	LDS  R30,@0+(@1)
                 	ANDI R30,LOW(@2)
                 	STS  @0+(@1),R30
                 	LDS  R30,@0+(@1)+1
                 	ANDI R30,HIGH(@2)
                 	STS  @0+(@1)+1,R30
                 	.ENDM
                 
                 	.MACRO __ANDD1N
                 	ANDI R30,LOW(@0)
                 	ANDI R31,HIGH(@0)
                 	ANDI R22,BYTE3(@0)
                 	ANDI R23,BYTE4(@0)
                 	.ENDM
                 
                 	.MACRO __ANDD2N
                 	ANDI R26,LOW(@0)
                 	ANDI R27,HIGH(@0)
                 	ANDI R24,BYTE3(@0)
                 	ANDI R25,BYTE4(@0)
                 	.ENDM
                 
                 	.MACRO __ORBMNN
                 	LDS  R30,@0+(@1)
                 	ORI  R30,LOW(@2)
                 	STS  @0+(@1),R30
                 	.ENDM
                 
                 	.MACRO __ORWMNN
                 	LDS  R30,@0+(@1)
                 	ORI  R30,LOW(@2)
                 	STS  @0+(@1),R30
                 	LDS  R30,@0+(@1)+1
                 	ORI  R30,HIGH(@2)
                 	STS  @0+(@1)+1,R30
                 	.ENDM
                 
                 	.MACRO __ORD1N
                 	ORI  R30,LOW(@0)
                 	ORI  R31,HIGH(@0)
                 	ORI  R22,BYTE3(@0)
                 	ORI  R23,BYTE4(@0)
                 	.ENDM
                 
                 	.MACRO __ORD2N
                 	ORI  R26,LOW(@0)
                 	ORI  R27,HIGH(@0)
                 	ORI  R24,BYTE3(@0)
                 	ORI  R25,BYTE4(@0)
                 	.ENDM
                 
                 	.MACRO __DELAY_USB
                 	LDI  R24,LOW(@0)
                 __DELAY_USB_LOOP:
                 	DEC  R24
                 	BRNE __DELAY_USB_LOOP
                 	.ENDM
                 
                 	.MACRO __DELAY_USW
                 	LDI  R24,LOW(@0)
                 	LDI  R25,HIGH(@0)
                 __DELAY_USW_LOOP:
                 	SBIW R24,1
                 	BRNE __DELAY_USW_LOOP
                 	.ENDM
                 
                 	.MACRO __GETD1S
                 	LDD  R30,Y+@0
                 	LDD  R31,Y+@0+1
                 	LDD  R22,Y+@0+2
                 	LDD  R23,Y+@0+3
                 	.ENDM
                 
                 	.MACRO __GETD2S
                 	LDD  R26,Y+@0
                 	LDD  R27,Y+@0+1
                 	LDD  R24,Y+@0+2
                 	LDD  R25,Y+@0+3
                 	.ENDM
                 
                 	.MACRO __PUTD1S
                 	STD  Y+@0,R30
                 	STD  Y+@0+1,R31
                 	STD  Y+@0+2,R22
                 	STD  Y+@0+3,R23
                 	.ENDM
                 
                 	.MACRO __PUTD2S
                 	STD  Y+@0,R26
                 	STD  Y+@0+1,R27
                 	STD  Y+@0+2,R24
                 	STD  Y+@0+3,R25
                 	.ENDM
                 
                 	.MACRO __PUTDZ2
                 	STD  Z+@0,R26
                 	STD  Z+@0+1,R27
                 	STD  Z+@0+2,R24
                 	STD  Z+@0+3,R25
                 	.ENDM
                 
                 	.MACRO __CLRD1S
                 	STD  Y+@0,R30
                 	STD  Y+@0+1,R30
                 	STD  Y+@0+2,R30
                 	STD  Y+@0+3,R30
                 	.ENDM
                 
                 	.MACRO __POINTB1MN
                 	LDI  R30,LOW(@0+(@1))
                 	.ENDM
                 
                 	.MACRO __POINTW1MN
                 	LDI  R30,LOW(@0+(@1))
                 	LDI  R31,HIGH(@0+(@1))
                 	.ENDM
                 
                 	.MACRO __POINTD1M
                 	LDI  R30,LOW(@0)
                 	LDI  R31,HIGH(@0)
                 	LDI  R22,BYTE3(@0)
                 	LDI  R23,BYTE4(@0)
                 	.ENDM
                 
                 	.MACRO __POINTW1FN
                 	LDI  R30,LOW(2*@0+(@1))
                 	LDI  R31,HIGH(2*@0+(@1))
                 	.ENDM
                 
                 	.MACRO __POINTD1FN
                 	LDI  R30,LOW(2*@0+(@1))
                 	LDI  R31,HIGH(2*@0+(@1))
                 	LDI  R22,BYTE3(2*@0+(@1))
                 	LDI  R23,BYTE4(2*@0+(@1))
                 	.ENDM
                 
                 	.MACRO __POINTB2MN
                 	LDI  R26,LOW(@0+(@1))
                 	.ENDM
                 
                 	.MACRO __POINTW2MN
                 	LDI  R26,LOW(@0+(@1))
                 	LDI  R27,HIGH(@0+(@1))
                 	.ENDM
                 
                 	.MACRO __POINTW2FN
                 	LDI  R26,LOW(2*@0+(@1))
                 	LDI  R27,HIGH(2*@0+(@1))
                 	.ENDM
                 
                 	.MACRO __POINTD2FN
                 	LDI  R26,LOW(2*@0+(@1))
                 	LDI  R27,HIGH(2*@0+(@1))
                 	LDI  R24,BYTE3(2*@0+(@1))
                 	LDI  R25,BYTE4(2*@0+(@1))
                 	.ENDM
                 
                 	.MACRO __POINTBRM
                 	LDI  R@0,LOW(@1)
                 	.ENDM
                 
                 	.MACRO __POINTWRM
                 	LDI  R@0,LOW(@2)
                 	LDI  R@1,HIGH(@2)
                 	.ENDM
                 
                 	.MACRO __POINTBRMN
                 	LDI  R@0,LOW(@1+(@2))
                 	.ENDM
                 
                 	.MACRO __POINTWRMN
                 	LDI  R@0,LOW(@2+(@3))
                 	LDI  R@1,HIGH(@2+(@3))
                 	.ENDM
                 
                 	.MACRO __POINTWRFN
                 	LDI  R@0,LOW(@2*2+(@3))
                 	LDI  R@1,HIGH(@2*2+(@3))
                 	.ENDM
                 
                 	.MACRO __GETD1N
                 	LDI  R30,LOW(@0)
                 	LDI  R31,HIGH(@0)
                 	LDI  R22,BYTE3(@0)
                 	LDI  R23,BYTE4(@0)
                 	.ENDM
                 
                 	.MACRO __GETD2N
                 	LDI  R26,LOW(@0)
                 	LDI  R27,HIGH(@0)
                 	LDI  R24,BYTE3(@0)
                 	LDI  R25,BYTE4(@0)
                 	.ENDM
                 
                 	.MACRO __GETB1MN
                 	LDS  R30,@0+(@1)
                 	.ENDM
                 
                 	.MACRO __GETB1HMN
                 	LDS  R31,@0+(@1)
                 	.ENDM
                 
                 	.MACRO __GETW1MN
                 	LDS  R30,@0+(@1)
                 	LDS  R31,@0+(@1)+1
                 	.ENDM
                 
                 	.MACRO __GETD1MN
                 	LDS  R30,@0+(@1)
                 	LDS  R31,@0+(@1)+1
                 	LDS  R22,@0+(@1)+2
                 	LDS  R23,@0+(@1)+3
                 	.ENDM
                 
                 	.MACRO __GETBRMN
                 	LDS  R@0,@1+(@2)
                 	.ENDM
                 
                 	.MACRO __GETWRMN
                 	LDS  R@0,@2+(@3)
                 	LDS  R@1,@2+(@3)+1
                 	.ENDM
                 
                 	.MACRO __GETWRZ
                 	LDD  R@0,Z+@2
                 	LDD  R@1,Z+@2+1
                 	.ENDM
                 
                 	.MACRO __GETD2Z
                 	LDD  R26,Z+@0
                 	LDD  R27,Z+@0+1
                 	LDD  R24,Z+@0+2
                 	LDD  R25,Z+@0+3
                 	.ENDM
                 
                 	.MACRO __GETB2MN
                 	LDS  R26,@0+(@1)
                 	.ENDM
                 
                 	.MACRO __GETW2MN
                 	LDS  R26,@0+(@1)
                 	LDS  R27,@0+(@1)+1
                 	.ENDM
                 
                 	.MACRO __GETD2MN
                 	LDS  R26,@0+(@1)
                 	LDS  R27,@0+(@1)+1
                 	LDS  R24,@0+(@1)+2
                 	LDS  R25,@0+(@1)+3
                 	.ENDM
                 
                 	.MACRO __PUTB1MN
                 	STS  @0+(@1),R30
                 	.ENDM
                 
                 	.MACRO __PUTW1MN
                 	STS  @0+(@1),R30
                 	STS  @0+(@1)+1,R31
                 	.ENDM
                 
                 	.MACRO __PUTD1MN
                 	STS  @0+(@1),R30
                 	STS  @0+(@1)+1,R31
                 	STS  @0+(@1)+2,R22
                 	STS  @0+(@1)+3,R23
                 	.ENDM
                 
                 	.MACRO __PUTB1EN
                 	LDI  R26,LOW(@0+(@1))
                 	LDI  R27,HIGH(@0+(@1))
                 	CALL __EEPROMWRB
                 	.ENDM
                 
                 	.MACRO __PUTW1EN
                 	LDI  R26,LOW(@0+(@1))
                 	LDI  R27,HIGH(@0+(@1))
                 	CALL __EEPROMWRW
                 	.ENDM
                 
                 	.MACRO __PUTD1EN
                 	LDI  R26,LOW(@0+(@1))
                 	LDI  R27,HIGH(@0+(@1))
                 	CALL __EEPROMWRD
                 	.ENDM
                 
                 	.MACRO __PUTBR0MN
                 	STS  @0+(@1),R0
                 	.ENDM
                 
                 	.MACRO __PUTBMRN
                 	STS  @0+(@1),R@2
                 	.ENDM
                 
                 	.MACRO __PUTWMRN
                 	STS  @0+(@1),R@2
                 	STS  @0+(@1)+1,R@3
                 	.ENDM
                 
                 	.MACRO __PUTBZR
                 	STD  Z+@1,R@0
                 	.ENDM
                 
                 	.MACRO __PUTWZR
                 	STD  Z+@2,R@0
                 	STD  Z+@2+1,R@1
                 	.ENDM
                 
                 	.MACRO __GETW1R
                 	MOV  R30,R@0
                 	MOV  R31,R@1
                 	.ENDM
                 
                 	.MACRO __GETW2R
                 	MOV  R26,R@0
                 	MOV  R27,R@1
                 	.ENDM
                 
                 	.MACRO __GETWRN
                 	LDI  R@0,LOW(@2)
                 	LDI  R@1,HIGH(@2)
                 	.ENDM
                 
                 	.MACRO __PUTW1R
                 	MOV  R@0,R30
                 	MOV  R@1,R31
                 	.ENDM
                 
                 	.MACRO __PUTW2R
                 	MOV  R@0,R26
                 	MOV  R@1,R27
                 	.ENDM
                 
                 	.MACRO __ADDWRN
                 	SUBI R@0,LOW(-@2)
                 	SBCI R@1,HIGH(-@2)
                 	.ENDM
                 
                 	.MACRO __ADDWRR
                 	ADD  R@0,R@2
                 	ADC  R@1,R@3
                 	.ENDM
                 
                 	.MACRO __SUBWRN
                 	SUBI R@0,LOW(@2)
                 	SBCI R@1,HIGH(@2)
                 	.ENDM
                 
                 	.MACRO __SUBWRR
                 	SUB  R@0,R@2
                 	SBC  R@1,R@3
                 	.ENDM
                 
                 	.MACRO __ANDWRN
                 	ANDI R@0,LOW(@2)
                 	ANDI R@1,HIGH(@2)
                 	.ENDM
                 
                 	.MACRO __ANDWRR
                 	AND  R@0,R@2
                 	AND  R@1,R@3
                 	.ENDM
                 
                 	.MACRO __ORWRN
                 	ORI  R@0,LOW(@2)
                 	ORI  R@1,HIGH(@2)
                 	.ENDM
                 
                 	.MACRO __ORWRR
                 	OR   R@0,R@2
                 	OR   R@1,R@3
                 	.ENDM
                 
                 	.MACRO __EORWRR
                 	EOR  R@0,R@2
                 	EOR  R@1,R@3
                 	.ENDM
                 
                 	.MACRO __GETWRS
                 	LDD  R@0,Y+@2
                 	LDD  R@1,Y+@2+1
                 	.ENDM
                 
                 	.MACRO __PUTBSR
                 	STD  Y+@1,R@0
                 	.ENDM
                 
                 	.MACRO __PUTWSR
                 	STD  Y+@2,R@0
                 	STD  Y+@2+1,R@1
                 	.ENDM
                 
                 	.MACRO __MOVEWRR
                 	MOV  R@0,R@2
                 	MOV  R@1,R@3
                 	.ENDM
                 
                 	.MACRO __INWR
                 	IN   R@0,@2
                 	IN   R@1,@2+1
                 	.ENDM
                 
                 	.MACRO __OUTWR
                 	OUT  @2+1,R@1
                 	OUT  @2,R@0
                 	.ENDM
                 
                 	.MACRO __CALL1MN
                 	LDS  R30,@0+(@1)
                 	LDS  R31,@0+(@1)+1
                 	ICALL
                 	.ENDM
                 
                 	.MACRO __CALL1FN
                 	LDI  R30,LOW(2*@0+(@1))
                 	LDI  R31,HIGH(2*@0+(@1))
                 	CALL __GETW1PF
                 	ICALL
                 	.ENDM
                 
                 	.MACRO __CALL2EN
                 	PUSH R26
                 	PUSH R27
                 	LDI  R26,LOW(@0+(@1))
                 	LDI  R27,HIGH(@0+(@1))
                 	CALL __EEPROMRDW
                 	POP  R27
                 	POP  R26
                 	ICALL
                 	.ENDM
                 
                 	.MACRO __CALL2EX
                 	SUBI R26,LOW(-@0)
                 	SBCI R27,HIGH(-@0)
                 	CALL __EEPROMRDD
                 	ICALL
                 	.ENDM
                 
                 	.MACRO __GETW1STACK
                 	IN   R30,SPL
                 	IN   R31,SPH
                 	ADIW R30,@0+1
                 	LD   R0,Z+
                 	LD   R31,Z
                 	MOV  R30,R0
                 	.ENDM
                 
                 	.MACRO __GETD1STACK
                 	IN   R30,SPL
                 	IN   R31,SPH
                 	ADIW R30,@0+1
                 	LD   R0,Z+
                 	LD   R1,Z+
                 	LD   R22,Z
                 	MOVW R30,R0
                 	.ENDM
                 
                 	.MACRO __NBST
                 	BST  R@0,@1
                 	IN   R30,SREG
                 	LDI  R31,0x40
                 	EOR  R30,R31
                 	OUT  SREG,R30
                 	.ENDM
                 
                 
                 	.MACRO __PUTB1SN
                 	LDD  R26,Y+@0
                 	LDD  R27,Y+@0+1
                 	SUBI R26,LOW(-@1)
                 	SBCI R27,HIGH(-@1)
                 	ST   X,R30
                 	.ENDM
                 
                 	.MACRO __PUTW1SN
                 	LDD  R26,Y+@0
                 	LDD  R27,Y+@0+1
                 	SUBI R26,LOW(-@1)
                 	SBCI R27,HIGH(-@1)
                 	ST   X+,R30
                 	ST   X,R31
                 	.ENDM
                 
                 	.MACRO __PUTD1SN
                 	LDD  R26,Y+@0
                 	LDD  R27,Y+@0+1
                 	SUBI R26,LOW(-@1)
                 	SBCI R27,HIGH(-@1)
                 	CALL __PUTDP1
                 	.ENDM
                 
                 	.MACRO __PUTB1SNS
                 	LDD  R26,Y+@0
                 	LDD  R27,Y+@0+1
                 	ADIW R26,@1
                 	ST   X,R30
                 	.ENDM
                 
                 	.MACRO __PUTW1SNS
                 	LDD  R26,Y+@0
                 	LDD  R27,Y+@0+1
                 	ADIW R26,@1
                 	ST   X+,R30
                 	ST   X,R31
                 	.ENDM
                 
                 	.MACRO __PUTD1SNS
                 	LDD  R26,Y+@0
                 	LDD  R27,Y+@0+1
                 	ADIW R26,@1
                 	CALL __PUTDP1
                 	.ENDM
                 
                 	.MACRO __PUTB1PMN
                 	LDS  R26,@0
                 	LDS  R27,@0+1
                 	SUBI R26,LOW(-@1)
                 	SBCI R27,HIGH(-@1)
                 	ST   X,R30
                 	.ENDM
                 
                 	.MACRO __PUTW1PMN
                 	LDS  R26,@0
                 	LDS  R27,@0+1
                 	SUBI R26,LOW(-@1)
                 	SBCI R27,HIGH(-@1)
                 	ST   X+,R30
                 	ST   X,R31
                 	.ENDM
                 
                 	.MACRO __PUTD1PMN
                 	LDS  R26,@0
                 	LDS  R27,@0+1
                 	SUBI R26,LOW(-@1)
                 	SBCI R27,HIGH(-@1)
                 	CALL __PUTDP1
                 	.ENDM
                 
                 	.MACRO __PUTB1PMNS
                 	LDS  R26,@0
                 	LDS  R27,@0+1
                 	ADIW R26,@1
                 	ST   X,R30
                 	.ENDM
                 
                 	.MACRO __PUTW1PMNS
                 	LDS  R26,@0
                 	LDS  R27,@0+1
                 	ADIW R26,@1
                 	ST   X+,R30
                 	ST   X,R31
                 	.ENDM
                 
                 	.MACRO __PUTD1PMNS
                 	LDS  R26,@0
                 	LDS  R27,@0+1
                 	ADIW R26,@1
                 	CALL __PUTDP1
                 	.ENDM
                 
                 	.MACRO __PUTB1RN
                 	MOVW R26,R@0
                 	SUBI R26,LOW(-@1)
                 	SBCI R27,HIGH(-@1)
                 	ST   X,R30
                 	.ENDM
                 
                 	.MACRO __PUTW1RN
                 	MOVW R26,R@0
                 	SUBI R26,LOW(-@1)
                 	SBCI R27,HIGH(-@1)
                 	ST   X+,R30
                 	ST   X,R31
                 	.ENDM
                 
                 	.MACRO __PUTD1RN
                 	MOVW R26,R@0
                 	SUBI R26,LOW(-@1)
                 	SBCI R27,HIGH(-@1)
                 	CALL __PUTDP1
                 	.ENDM
                 
                 	.MACRO __PUTB1RNS
                 	MOVW R26,R@0
                 	ADIW R26,@1
                 	ST   X,R30
                 	.ENDM
                 
                 	.MACRO __PUTW1RNS
                 	MOVW R26,R@0
                 	ADIW R26,@1
                 	ST   X+,R30
                 	ST   X,R31
                 	.ENDM
                 
                 	.MACRO __PUTD1RNS
                 	MOVW R26,R@0
                 	ADIW R26,@1
                 	CALL __PUTDP1
                 	.ENDM
                 
                 	.MACRO __PUTB1RON
                 	MOV  R26,R@0
                 	MOV  R27,R@1
                 	SUBI R26,LOW(-@2)
                 	SBCI R27,HIGH(-@2)
                 	ST   X,R30
                 	.ENDM
                 
                 	.MACRO __PUTW1RON
                 	MOV  R26,R@0
                 	MOV  R27,R@1
                 	SUBI R26,LOW(-@2)
                 	SBCI R27,HIGH(-@2)
                 	ST   X+,R30
                 	ST   X,R31
                 	.ENDM
                 
                 	.MACRO __PUTD1RON
                 	MOV  R26,R@0
                 	MOV  R27,R@1
                 	SUBI R26,LOW(-@2)
                 	SBCI R27,HIGH(-@2)
                 	CALL __PUTDP1
                 	.ENDM
                 
                 	.MACRO __PUTB1RONS
                 	MOV  R26,R@0
                 	MOV  R27,R@1
                 	ADIW R26,@2
                 	ST   X,R30
                 	.ENDM
                 
                 	.MACRO __PUTW1RONS
                 	MOV  R26,R@0
                 	MOV  R27,R@1
                 	ADIW R26,@2
                 	ST   X+,R30
                 	ST   X,R31
                 	.ENDM
                 
                 	.MACRO __PUTD1RONS
                 	MOV  R26,R@0
                 	MOV  R27,R@1
                 	ADIW R26,@2
                 	CALL __PUTDP1
                 	.ENDM
                 
                 
                 	.MACRO __GETB1SX
                 	MOVW R30,R28
                 	SUBI R30,LOW(-@0)
                 	SBCI R31,HIGH(-@0)
                 	LD   R30,Z
                 	.ENDM
                 
                 	.MACRO __GETB1HSX
                 	MOVW R30,R28
                 	SUBI R30,LOW(-@0)
                 	SBCI R31,HIGH(-@0)
                 	LD   R31,Z
                 	.ENDM
                 
                 	.MACRO __GETW1SX
                 	MOVW R30,R28
                 	SUBI R30,LOW(-@0)
                 	SBCI R31,HIGH(-@0)
                 	LD   R0,Z+
                 	LD   R31,Z
                 	MOV  R30,R0
                 	.ENDM
                 
                 	.MACRO __GETD1SX
                 	MOVW R30,R28
                 	SUBI R30,LOW(-@0)
                 	SBCI R31,HIGH(-@0)
                 	LD   R0,Z+
                 	LD   R1,Z+
                 	LD   R22,Z+
                 	LD   R23,Z
                 	MOVW R30,R0
                 	.ENDM
                 
                 	.MACRO __GETB2SX
                 	MOVW R26,R28
                 	SUBI R26,LOW(-@0)
                 	SBCI R27,HIGH(-@0)
                 	LD   R26,X
                 	.ENDM
                 
                 	.MACRO __GETW2SX
                 	MOVW R26,R28
                 	SUBI R26,LOW(-@0)
                 	SBCI R27,HIGH(-@0)
                 	LD   R0,X+
                 	LD   R27,X
                 	MOV  R26,R0
                 	.ENDM
                 
                 	.MACRO __GETD2SX
                 	MOVW R26,R28
                 	SUBI R26,LOW(-@0)
                 	SBCI R27,HIGH(-@0)
                 	LD   R0,X+
                 	LD   R1,X+
                 	LD   R24,X+
                 	LD   R25,X
                 	MOVW R26,R0
                 	.ENDM
                 
                 	.MACRO __GETBRSX
                 	MOVW R30,R28
                 	SUBI R30,LOW(-@1)
                 	SBCI R31,HIGH(-@1)
                 	LD   R@0,Z
                 	.ENDM
                 
                 	.MACRO __GETWRSX
                 	MOVW R30,R28
                 	SUBI R30,LOW(-@2)
                 	SBCI R31,HIGH(-@2)
                 	LD   R@0,Z+
                 	LD   R@1,Z
                 	.ENDM
                 
                 	.MACRO __GETBRSX2
                 	MOVW R26,R28
                 	SUBI R26,LOW(-@1)
                 	SBCI R27,HIGH(-@1)
                 	LD   R@0,X
                 	.ENDM
                 
                 	.MACRO __GETWRSX2
                 	MOVW R26,R28
                 	SUBI R26,LOW(-@2)
                 	SBCI R27,HIGH(-@2)
                 	LD   R@0,X+
                 	LD   R@1,X
                 	.ENDM
                 
                 	.MACRO __LSLW8SX
                 	MOVW R30,R28
                 	SUBI R30,LOW(-@0)
                 	SBCI R31,HIGH(-@0)
                 	LD   R31,Z
                 	CLR  R30
                 	.ENDM
                 
                 	.MACRO __PUTB1SX
                 	MOVW R26,R28
                 	SUBI R26,LOW(-@0)
                 	SBCI R27,HIGH(-@0)
                 	ST   X,R30
                 	.ENDM
                 
                 	.MACRO __PUTW1SX
                 	MOVW R26,R28
                 	SUBI R26,LOW(-@0)
                 	SBCI R27,HIGH(-@0)
                 	ST   X+,R30
                 	ST   X,R31
                 	.ENDM
                 
                 	.MACRO __PUTD1SX
                 	MOVW R26,R28
                 	SUBI R26,LOW(-@0)
                 	SBCI R27,HIGH(-@0)
                 	ST   X+,R30
                 	ST   X+,R31
                 	ST   X+,R22
                 	ST   X,R23
                 	.ENDM
                 
                 	.MACRO __CLRW1SX
                 	MOVW R26,R28
                 	SUBI R26,LOW(-@0)
                 	SBCI R27,HIGH(-@0)
                 	ST   X+,R30
                 	ST   X,R30
                 	.ENDM
                 
                 	.MACRO __CLRD1SX
                 	MOVW R26,R28
                 	SUBI R26,LOW(-@0)
                 	SBCI R27,HIGH(-@0)
                 	ST   X+,R30
                 	ST   X+,R30
                 	ST   X+,R30
                 	ST   X,R30
                 	.ENDM
                 
                 	.MACRO __PUTB2SX
                 	MOVW R30,R28
                 	SUBI R30,LOW(-@0)
                 	SBCI R31,HIGH(-@0)
                 	ST   Z,R26
                 	.ENDM
                 
                 	.MACRO __PUTW2SX
                 	MOVW R30,R28
                 	SUBI R30,LOW(-@0)
                 	SBCI R31,HIGH(-@0)
                 	ST   Z+,R26
                 	ST   Z,R27
                 	.ENDM
                 
                 	.MACRO __PUTD2SX
                 	MOVW R30,R28
                 	SUBI R30,LOW(-@0)
                 	SBCI R31,HIGH(-@0)
                 	ST   Z+,R26
                 	ST   Z+,R27
                 	ST   Z+,R24
                 	ST   Z,R25
                 	.ENDM
                 
                 	.MACRO __PUTBSRX
                 	MOVW R30,R28
                 	SUBI R30,LOW(-@1)
                 	SBCI R31,HIGH(-@1)
                 	ST   Z,R@0
                 	.ENDM
                 
                 	.MACRO __PUTWSRX
                 	MOVW R30,R28
                 	SUBI R30,LOW(-@2)
                 	SBCI R31,HIGH(-@2)
                 	ST   Z+,R@0
                 	ST   Z,R@1
                 	.ENDM
                 
                 	.MACRO __PUTB1SNX
                 	MOVW R26,R28
                 	SUBI R26,LOW(-@0)
                 	SBCI R27,HIGH(-@0)
                 	LD   R0,X+
                 	LD   R27,X
                 	MOV  R26,R0
                 	SUBI R26,LOW(-@1)
                 	SBCI R27,HIGH(-@1)
                 	ST   X,R30
                 	.ENDM
                 
                 	.MACRO __PUTW1SNX
                 	MOVW R26,R28
                 	SUBI R26,LOW(-@0)
                 	SBCI R27,HIGH(-@0)
                 	LD   R0,X+
                 	LD   R27,X
                 	MOV  R26,R0
                 	SUBI R26,LOW(-@1)
                 	SBCI R27,HIGH(-@1)
                 	ST   X+,R30
                 	ST   X,R31
                 	.ENDM
                 
                 	.MACRO __PUTD1SNX
                 	MOVW R26,R28
                 	SUBI R26,LOW(-@0)
                 	SBCI R27,HIGH(-@0)
                 	LD   R0,X+
                 	LD   R27,X
                 	MOV  R26,R0
                 	SUBI R26,LOW(-@1)
                 	SBCI R27,HIGH(-@1)
                 	ST   X+,R30
                 	ST   X+,R31
                 	ST   X+,R22
                 	ST   X,R23
                 	.ENDM
                 
                 	.MACRO __MULBRR
                 	MULS R@0,R@1
                 	MOVW R30,R0
                 	.ENDM
                 
                 	.MACRO __MULBRRU
                 	MUL  R@0,R@1
                 	MOVW R30,R0
                 	.ENDM
                 
                 	.MACRO __MULBRR0
                 	MULS R@0,R@1
                 	.ENDM
                 
                 	.MACRO __MULBRRU0
                 	MUL  R@0,R@1
                 	.ENDM
                 
                 	.MACRO __MULBNWRU
                 	LDI  R26,@2
                 	MUL  R26,R@0
                 	MOVW R30,R0
                 	MUL  R26,R@1
                 	ADD  R31,R0
                 	.ENDM
                 
                 ;NAME DEFINITIONS FOR GLOBAL VARIABLES ALLOCATED TO REGISTERS
                 	.DEF _hour=R7
                 	.DEF _minute=R6
                 	.DEF _second=R9
                 	.DEF _week=R8
                 	.DEF _day=R11
                 	.DEF _month=R10
                 	.DEF _year=R13
                 	.DEF _blink_locx=R12
                 
                 	.CSEG
                 	.ORG 0x00
                 
                 ;START OF CODE MARKER
                 __START_OF_CODE:
                 
                 ;INTERRUPT VECTORS
000000 940c 02ad 	JMP  __RESET
000002 940c 1fe0 	JMP  _ext_int0_isr
000004 940c 0000 	JMP  0x00
000006 940c 0000 	JMP  0x00
000008 940c 0000 	JMP  0x00
00000a 940c 0000 	JMP  0x00
00000c 940c 0000 	JMP  0x00
00000e 940c 0000 	JMP  0x00
000010 940c 0000 	JMP  0x00
000012 940c 0000 	JMP  0x00
000014 940c 0000 	JMP  0x00
000016 940c 0000 	JMP  0x00
000018 940c 0000 	JMP  0x00
00001a 940c 02dd 	JMP  _usart_rx_isr
00001c 940c 0000 	JMP  0x00
00001e 940c 033b 	JMP  _usart_tx_isr
000020 940c 0000 	JMP  0x00
000022 940c 0000 	JMP  0x00
000024 940c 0000 	JMP  0x00
000026 940c 0000 	JMP  0x00
000028 940c 0000 	JMP  0x00
                 
                 _wCRCTable:
00002a 0000
00002b c0c1
00002c c181
00002d 0140      	.DB  0x0,0x0,0xC1,0xC0,0x81,0xC1,0x40,0x1
00002e c301
00002f 03c0
000030 0280
000031 c241      	.DB  0x1,0xC3,0xC0,0x3,0x80,0x2,0x41,0xC2
000032 c601
000033 06c0
000034 0780
000035 c741      	.DB  0x1,0xC6,0xC0,0x6,0x80,0x7,0x41,0xC7
000036 0500
000037 c5c1
000038 c481
000039 0440      	.DB  0x0,0x5,0xC1,0xC5,0x81,0xC4,0x40,0x4
00003a cc01
00003b 0cc0
00003c 0d80
00003d cd41      	.DB  0x1,0xCC,0xC0,0xC,0x80,0xD,0x41,0xCD
00003e 0f00
00003f cfc1
000040 ce81
000041 0e40      	.DB  0x0,0xF,0xC1,0xCF,0x81,0xCE,0x40,0xE
000042 0a00
000043 cac1
000044 cb81
000045 0b40      	.DB  0x0,0xA,0xC1,0xCA,0x81,0xCB,0x40,0xB
000046 c901
000047 09c0
000048 0880
000049 c841      	.DB  0x1,0xC9,0xC0,0x9,0x80,0x8,0x41,0xC8
00004a d801
00004b 18c0
00004c 1980
00004d d941      	.DB  0x1,0xD8,0xC0,0x18,0x80,0x19,0x41,0xD9
00004e 1b00
00004f dbc1
000050 da81
000051 1a40      	.DB  0x0,0x1B,0xC1,0xDB,0x81,0xDA,0x40,0x1A
000052 1e00
000053 dec1
000054 df81
000055 1f40      	.DB  0x0,0x1E,0xC1,0xDE,0x81,0xDF,0x40,0x1F
000056 dd01
000057 1dc0
000058 1c80
000059 dc41      	.DB  0x1,0xDD,0xC0,0x1D,0x80,0x1C,0x41,0xDC
00005a 1400
00005b d4c1
00005c d581
00005d 1540      	.DB  0x0,0x14,0xC1,0xD4,0x81,0xD5,0x40,0x15
00005e d701
00005f 17c0
000060 1680
000061 d641      	.DB  0x1,0xD7,0xC0,0x17,0x80,0x16,0x41,0xD6
000062 d201
000063 12c0
000064 1380
000065 d341      	.DB  0x1,0xD2,0xC0,0x12,0x80,0x13,0x41,0xD3
000066 1100
000067 d1c1
000068 d081
000069 1040      	.DB  0x0,0x11,0xC1,0xD1,0x81,0xD0,0x40,0x10
00006a f001
00006b 30c0
00006c 3180
00006d f141      	.DB  0x1,0xF0,0xC0,0x30,0x80,0x31,0x41,0xF1
00006e 3300
00006f f3c1
000070 f281
000071 3240      	.DB  0x0,0x33,0xC1,0xF3,0x81,0xF2,0x40,0x32
000072 3600
000073 f6c1
000074 f781
000075 3740      	.DB  0x0,0x36,0xC1,0xF6,0x81,0xF7,0x40,0x37
000076 f501
000077 35c0
000078 3480
000079 f441      	.DB  0x1,0xF5,0xC0,0x35,0x80,0x34,0x41,0xF4
00007a 3c00
00007b fcc1
00007c fd81
00007d 3d40      	.DB  0x0,0x3C,0xC1,0xFC,0x81,0xFD,0x40,0x3D
00007e ff01
00007f 3fc0
000080 3e80
000081 fe41      	.DB  0x1,0xFF,0xC0,0x3F,0x80,0x3E,0x41,0xFE
000082 fa01
000083 3ac0
000084 3b80
000085 fb41      	.DB  0x1,0xFA,0xC0,0x3A,0x80,0x3B,0x41,0xFB
000086 3900
000087 f9c1
000088 f881
000089 3840      	.DB  0x0,0x39,0xC1,0xF9,0x81,0xF8,0x40,0x38
00008a 2800
00008b e8c1
00008c e981
00008d 2940      	.DB  0x0,0x28,0xC1,0xE8,0x81,0xE9,0x40,0x29
00008e eb01
00008f 2bc0
000090 2a80
000091 ea41      	.DB  0x1,0xEB,0xC0,0x2B,0x80,0x2A,0x41,0xEA
000092 ee01
000093 2ec0
000094 2f80
000095 ef41      	.DB  0x1,0xEE,0xC0,0x2E,0x80,0x2F,0x41,0xEF
000096 2d00
000097 edc1
000098 ec81
000099 2c40      	.DB  0x0,0x2D,0xC1,0xED,0x81,0xEC,0x40,0x2C
00009a e401
00009b 24c0
00009c 2580
00009d e541      	.DB  0x1,0xE4,0xC0,0x24,0x80,0x25,0x41,0xE5
00009e 2700
00009f e7c1
0000a0 e681
0000a1 2640      	.DB  0x0,0x27,0xC1,0xE7,0x81,0xE6,0x40,0x26
0000a2 2200
0000a3 e2c1
0000a4 e381
0000a5 2340      	.DB  0x0,0x22,0xC1,0xE2,0x81,0xE3,0x40,0x23
0000a6 e101
0000a7 21c0
0000a8 2080
0000a9 e041      	.DB  0x1,0xE1,0xC0,0x21,0x80,0x20,0x41,0xE0
0000aa a001
0000ab 60c0
0000ac 6180
0000ad a141      	.DB  0x1,0xA0,0xC0,0x60,0x80,0x61,0x41,0xA1
0000ae 6300
0000af a3c1
0000b0 a281
0000b1 6240      	.DB  0x0,0x63,0xC1,0xA3,0x81,0xA2,0x40,0x62
0000b2 6600
0000b3 a6c1
0000b4 a781
0000b5 6740      	.DB  0x0,0x66,0xC1,0xA6,0x81,0xA7,0x40,0x67
0000b6 a501
0000b7 65c0
0000b8 6480
0000b9 a441      	.DB  0x1,0xA5,0xC0,0x65,0x80,0x64,0x41,0xA4
0000ba 6c00
0000bb acc1
0000bc ad81
0000bd 6d40      	.DB  0x0,0x6C,0xC1,0xAC,0x81,0xAD,0x40,0x6D
0000be af01
0000bf 6fc0
0000c0 6e80
0000c1 ae41      	.DB  0x1,0xAF,0xC0,0x6F,0x80,0x6E,0x41,0xAE
0000c2 aa01
0000c3 6ac0
0000c4 6b80
0000c5 ab41      	.DB  0x1,0xAA,0xC0,0x6A,0x80,0x6B,0x41,0xAB
0000c6 6900
0000c7 a9c1
0000c8 a881
0000c9 6840      	.DB  0x0,0x69,0xC1,0xA9,0x81,0xA8,0x40,0x68
0000ca 7800
0000cb b8c1
0000cc b981
0000cd 7940      	.DB  0x0,0x78,0xC1,0xB8,0x81,0xB9,0x40,0x79
0000ce bb01
0000cf 7bc0
0000d0 7a80
0000d1 ba41      	.DB  0x1,0xBB,0xC0,0x7B,0x80,0x7A,0x41,0xBA
0000d2 be01
0000d3 7ec0
0000d4 7f80
0000d5 bf41      	.DB  0x1,0xBE,0xC0,0x7E,0x80,0x7F,0x41,0xBF
0000d6 7d00
0000d7 bdc1
0000d8 bc81
0000d9 7c40      	.DB  0x0,0x7D,0xC1,0xBD,0x81,0xBC,0x40,0x7C
0000da b401
0000db 74c0
0000dc 7580
0000dd b541      	.DB  0x1,0xB4,0xC0,0x74,0x80,0x75,0x41,0xB5
0000de 7700
0000df b7c1
0000e0 b681
0000e1 7640      	.DB  0x0,0x77,0xC1,0xB7,0x81,0xB6,0x40,0x76
0000e2 7200
0000e3 b2c1
0000e4 b381
0000e5 7340      	.DB  0x0,0x72,0xC1,0xB2,0x81,0xB3,0x40,0x73
0000e6 b101
0000e7 71c0
0000e8 7080
0000e9 b041      	.DB  0x1,0xB1,0xC0,0x71,0x80,0x70,0x41,0xB0
0000ea 5000
0000eb 90c1
0000ec 9181
0000ed 5140      	.DB  0x0,0x50,0xC1,0x90,0x81,0x91,0x40,0x51
0000ee 9301
0000ef 53c0
0000f0 5280
0000f1 9241      	.DB  0x1,0x93,0xC0,0x53,0x80,0x52,0x41,0x92
0000f2 9601
0000f3 56c0
0000f4 5780
0000f5 9741      	.DB  0x1,0x96,0xC0,0x56,0x80,0x57,0x41,0x97
0000f6 5500
0000f7 95c1
0000f8 9481
0000f9 5440      	.DB  0x0,0x55,0xC1,0x95,0x81,0x94,0x40,0x54
0000fa 9c01
0000fb 5cc0
0000fc 5d80
0000fd 9d41      	.DB  0x1,0x9C,0xC0,0x5C,0x80,0x5D,0x41,0x9D
0000fe 5f00
0000ff 9fc1
000100 9e81
000101 5e40      	.DB  0x0,0x5F,0xC1,0x9F,0x81,0x9E,0x40,0x5E
000102 5a00
000103 9ac1
000104 9b81
000105 5b40      	.DB  0x0,0x5A,0xC1,0x9A,0x81,0x9B,0x40,0x5B
000106 9901
000107 59c0
000108 5880
000109 9841      	.DB  0x1,0x99,0xC0,0x59,0x80,0x58,0x41,0x98
00010a 8801
00010b 48c0
00010c 4980
00010d 8941      	.DB  0x1,0x88,0xC0,0x48,0x80,0x49,0x41,0x89
00010e 4b00
00010f 8bc1
000110 8a81
000111 4a40      	.DB  0x0,0x4B,0xC1,0x8B,0x81,0x8A,0x40,0x4A
000112 4e00
000113 8ec1
000114 8f81
000115 4f40      	.DB  0x0,0x4E,0xC1,0x8E,0x81,0x8F,0x40,0x4F
000116 8d01
000117 4dc0
000118 4c80
000119 8c41      	.DB  0x1,0x8D,0xC0,0x4D,0x80,0x4C,0x41,0x8C
00011a 4400
00011b 84c1
00011c 8581
00011d 4540      	.DB  0x0,0x44,0xC1,0x84,0x81,0x85,0x40,0x45
00011e 8701
00011f 47c0
000120 4680
000121 8641      	.DB  0x1,0x87,0xC0,0x47,0x80,0x46,0x41,0x86
000122 8201
000123 42c0
000124 4380
000125 8341      	.DB  0x1,0x82,0xC0,0x42,0x80,0x43,0x41,0x83
000126 4100
000127 81c1
000128 8081
000129 4040      	.DB  0x0,0x41,0xC1,0x81,0x81,0x80,0x40,0x40
                 _char0:
00012a 110e
00012b 0e11
00012c 0000
00012d 0000      	.DB  0xE,0x11,0x11,0xE,0x0,0x0,0x0,0x0
                 _tbl10_G106:
00012e 2710
00012f 03e8
000130 0064
000131 000a      	.DB  0x10,0x27,0xE8,0x3,0x64,0x0,0xA,0x0
000132 0001      	.DB  0x1,0x0
                 _tbl16_G106:
000133 1000
000134 0100
000135 0010
000136 0001      	.DB  0x0,0x10,0x0,0x1,0x10,0x0,0x1,0x0
                 
                 ;REGISTER BIT VARIABLES INITIALIZATION
                 __REG_BIT_VARS:
000137 0000      	.DW  0x0000
000138 0000      	.DW  0x0000
                 
                 _0x3:
000139 0fd0
00013a 4049      	.DB  0xD0,0xF,0x49,0x40
                 _0x4:
00013b ae14
00013c 3f07      	.DB  0x14,0xAE,0x7,0x3F
                 _0x5:
00013d 1111
00013e 3f11      	.DB  0x11,0x11,0x11,0x3F
                 _0x0:
00013f 616d
000140 756e
000141 6c61
000142 6d20      	.DB  0x6D,0x61,0x6E,0x75,0x61,0x6C,0x20,0x6D
000143 646f
000144 0065
000145 7865
000146 7469      	.DB  0x6F,0x64,0x65,0x0,0x65,0x78,0x69,0x74
000147 6e69
000148 2e67
000149 2e2e
00014a 2000      	.DB  0x69,0x6E,0x67,0x2E,0x2E,0x2E,0x0,0x20
00014b 0020
00014c 3032
00014d 3a00
00014e 7300      	.DB  0x20,0x0,0x32,0x30,0x0,0x3A,0x0,0x73
00014f 7465
000150 7420
000151 6568
000152 7420      	.DB  0x65,0x74,0x20,0x74,0x68,0x65,0x20,0x74
000153 6d69
000154 0065
000155 6e65
000156 6574      	.DB  0x69,0x6D,0x65,0x0,0x65,0x6E,0x74,0x65
000157 6972
000158 676e
000159 2e2e
00015a 2e2e      	.DB  0x72,0x69,0x6E,0x67,0x2E,0x2E,0x2E,0x2E
00015b 5300
00015c 7465
00015d 5420
00015e 6d69      	.DB  0x0,0x53,0x65,0x74,0x20,0x54,0x69,0x6D
00015f 0065
000160 6553
000161 2074
000162 6144      	.DB  0x65,0x0,0x53,0x65,0x74,0x20,0x44,0x61
000163 6574
000164 5300
000165 7465
000166 4c20      	.DB  0x74,0x65,0x0,0x53,0x65,0x74,0x20,0x4C
000167 7461
000168 7469
000169 6475
00016a 0065      	.DB  0x61,0x74,0x69,0x74,0x75,0x64,0x65,0x0
00016b 6553
00016c 2074
00016d 6f4c
00016e 676e      	.DB  0x53,0x65,0x74,0x20,0x4C,0x6F,0x6E,0x67
00016f 7469
000170 6475
000171 0065
000172 6954      	.DB  0x69,0x74,0x75,0x64,0x65,0x0,0x54,0x69
000173 656d
000174 4920
000175 746e
000176 7265      	.DB  0x6D,0x65,0x20,0x49,0x6E,0x74,0x65,0x72
000177 6176
000178 206c
000179 2000
00017a 696d      	.DB  0x76,0x61,0x6C,0x20,0x0,0x20,0x6D,0x69
00017b 756e
00017c 6574
00017d 0073
00017e 6553      	.DB  0x6E,0x75,0x74,0x65,0x73,0x0,0x53,0x65
00017f 2074
000180 6954
000181 656d
000182 6f7a      	.DB  0x74,0x20,0x54,0x69,0x6D,0x65,0x7A,0x6F
000183 656e
000184 4700
000185 544d
000186 0020      	.DB  0x6E,0x65,0x0,0x47,0x4D,0x54,0x20,0x0
000187 7248
000188 2e73
000189 5300
00018a 7465      	.DB  0x48,0x72,0x73,0x2E,0x0,0x53,0x65,0x74
00018b 5020
00018c 6e61
00018d 6c65
00018e 4820      	.DB  0x20,0x50,0x61,0x6E,0x65,0x6C,0x20,0x48
00018f 6965
000190 6867
000191 0074
000192 2020      	.DB  0x65,0x69,0x67,0x68,0x74,0x0,0x20,0x20
000193 2020
000194 4d00
000195 7274
000196 2e73      	.DB  0x20,0x20,0x0,0x4D,0x74,0x72,0x73,0x2E
000197 5300
000198 7465
000199 4420
00019a 7369      	.DB  0x0,0x53,0x65,0x74,0x20,0x44,0x69,0x73
00019b 6174
00019c 636e
00019d 0065
00019e 6f4d      	.DB  0x74,0x61,0x6E,0x63,0x65,0x0,0x4D,0x6F
00019f 4264
0001a0 7375
0001a1 4920
0001a2 0044      	.DB  0x64,0x42,0x75,0x73,0x20,0x49,0x44,0x0
0001a3 6f4d
0001a4 6264
0001a5 7375
0001a6 5220      	.DB  0x4D,0x6F,0x64,0x62,0x75,0x73,0x20,0x52
0001a7 7461
0001a8 2065
0001a9 2000
0001aa 3920      	.DB  0x61,0x74,0x65,0x20,0x0,0x20,0x20,0x39
0001ab 3036
0001ac 0030
0001ad 3120
0001ae 3239      	.DB  0x36,0x30,0x30,0x0,0x20,0x31,0x39,0x32
0001af 3030
0001b0 2000
0001b1 3833
0001b2 3034      	.DB  0x30,0x30,0x0,0x20,0x33,0x38,0x34,0x30
0001b3 0030
0001b4 3520
0001b5 3637
0001b6 3030      	.DB  0x30,0x0,0x20,0x35,0x37,0x36,0x30,0x30
0001b7 3100
0001b8 3531
0001b9 3032
0001ba 0030      	.DB  0x0,0x31,0x31,0x35,0x32,0x30,0x30,0x0
0001bb 4220
0001bc 7561
0001bd 0064
0001be 6143      	.DB  0x20,0x42,0x61,0x75,0x64,0x0,0x43,0x61
0001bf 696c
0001c0 7262
0001c1 7461
0001c2 6f69      	.DB  0x6C,0x69,0x62,0x72,0x61,0x74,0x69,0x6F
0001c3 206e
0001c4 6f4d
0001c5 6564
0001c6 6500      	.DB  0x6E,0x20,0x4D,0x6F,0x64,0x65,0x0,0x65
0001c7 746e
0001c8 7265
0001c9 6e69
0001ca 0067      	.DB  0x6E,0x74,0x65,0x72,0x69,0x6E,0x67,0x0
0001cb 6974
0001cc 656d
0001cd 203a
0001ce 6100      	.DB  0x74,0x69,0x6D,0x65,0x3A,0x20,0x0,0x61
0001cf 676e
0001d0 656c
0001d1 203a
0001d2 7300      	.DB  0x6E,0x67,0x6C,0x65,0x3A,0x20,0x0,0x73
0001d3 6e75
0001d4 6972
0001d5 6573
0001d6 203a      	.DB  0x75,0x6E,0x72,0x69,0x73,0x65,0x3A,0x20
0001d7 7300
0001d8 6e75
0001d9 6573
0001da 3a74      	.DB  0x0,0x73,0x75,0x6E,0x73,0x65,0x74,0x3A
0001db 0020
0001dc 656e
0001dd 7478
0001de 7420      	.DB  0x20,0x0,0x6E,0x65,0x78,0x74,0x20,0x74
0001df 6d69
0001e0 2f65
0001e1 6e61
0001e2 6c67      	.DB  0x69,0x6D,0x65,0x2F,0x61,0x6E,0x67,0x6C
0001e3 3a65
0001e4 6400
0001e5 7461
0001e6 3a65      	.DB  0x65,0x3A,0x0,0x64,0x61,0x74,0x65,0x3A
0001e7 0020
0001e8 2f20
0001e9 0020
0001ea 4720      	.DB  0x20,0x0,0x20,0x2F,0x20,0x0,0x20,0x47
0001eb 003a
0001ec 3a62
0001ed 2000
0001ee 696d      	.DB  0x3A,0x0,0x62,0x3A,0x0,0x20,0x6D,0x69
0001ef 756e
0001f0 6574
0001f1 2073
0001f2 0020      	.DB  0x6E,0x75,0x74,0x65,0x73,0x20,0x20,0x0
0001f3 202a
0001f4 614d
0001f5 756e
0001f6 6c61      	.DB  0x2A,0x20,0x4D,0x61,0x6E,0x75,0x61,0x6C
0001f7 4d20
0001f8 646f
0001f9 2065
0001fa 202a      	.DB  0x20,0x4D,0x6F,0x64,0x65,0x20,0x2A,0x20
0001fb 2000
0001fc 4e20
0001fd 4749
0001fe 5448      	.DB  0x0,0x20,0x20,0x4E,0x49,0x47,0x48,0x54
0001ff 4d20
000200 444f
000201 2045
000202 0020      	.DB  0x20,0x4D,0x4F,0x44,0x45,0x20,0x20,0x0
000203 6e61
000204 3a67
000205 0020
000206 6174      	.DB  0x61,0x6E,0x67,0x3A,0x20,0x0,0x74,0x61
000207 3a72
000208 0020
000209 656d
00020a 6863      	.DB  0x72,0x3A,0x20,0x0,0x6D,0x65,0x63,0x68
00020b 202e
00020c 7265
00020d 6f72
00020e 0072      	.DB  0x2E,0x20,0x65,0x72,0x72,0x6F,0x72,0x0
00020f 202a
000210 4953
000211 474e
000212 454c      	.DB  0x2A,0x20,0x53,0x49,0x4E,0x47,0x4C,0x45
000213 4120
000214 4958
000215 2053
000216 2a20      	.DB  0x20,0x41,0x58,0x49,0x53,0x20,0x20,0x2A
000217 2a00
000218 4f53
000219 414c
00021a 2052      	.DB  0x0,0x2A,0x53,0x4F,0x4C,0x41,0x52,0x20
00021b 5254
00021c 4341
00021d 454b
00021e 2052      	.DB  0x54,0x52,0x41,0x43,0x4B,0x45,0x52,0x20
00021f 002a
000220 202a
000221 2020
000222 4c50      	.DB  0x2A,0x0,0x2A,0x20,0x20,0x20,0x50,0x4C
000223 4145
000224 4553
000225 2020
000226 2020      	.DB  0x45,0x41,0x53,0x45,0x20,0x20,0x20,0x20
000227 2a20
000228 2a00
000229 2020
00022a 2020      	.DB  0x20,0x2A,0x0,0x2A,0x20,0x20,0x20,0x20
00022b 4157
00022c 5449
00022d 2020
00022e 2020      	.DB  0x57,0x41,0x49,0x54,0x20,0x20,0x20,0x20
00022f 2020
000230 002a
000231 6874
000232 2065      	.DB  0x20,0x20,0x2A,0x0,0x74,0x68,0x65,0x20
000233 6170
000234 656e
000235 206c
000236 6300      	.DB  0x70,0x61,0x6E,0x65,0x6C,0x20,0x0,0x63
000237 6c61
000238 6269
000239 6172
00023a 6974      	.DB  0x61,0x6C,0x69,0x62,0x72,0x61,0x74,0x69
00023b 6e6f
00023c 6d20
00023d 646f
00023e 0065      	.DB  0x6F,0x6E,0x20,0x6D,0x6F,0x64,0x65,0x0
00023f 6e69
000240 2063
000241 203e
000242 6e69      	.DB  0x69,0x6E,0x63,0x20,0x3E,0x20,0x69,0x6E
000243 6863
000244 7520
000245 0070
000246 6564      	.DB  0x63,0x68,0x20,0x75,0x70,0x0,0x64,0x65
000247 2063
000248 203e
000249 6e69
00024a 6863      	.DB  0x63,0x20,0x3E,0x20,0x69,0x6E,0x63,0x68
00024b 6420
00024c 776f
00024d 006e
00024e 6573      	.DB  0x20,0x64,0x6F,0x77,0x6E,0x0,0x73,0x65
00024f 2d74
000250 203e
000251 6e65
000252 6574      	.DB  0x74,0x2D,0x3E,0x20,0x65,0x6E,0x74,0x65
000253 2072
000254 6f6c
000255 0077
000256 6873      	.DB  0x72,0x20,0x6C,0x6F,0x77,0x0,0x73,0x68
000257 2d66
000258 203e
000259 6e65
00025a 6574      	.DB  0x66,0x2D,0x3E,0x20,0x65,0x6E,0x74,0x65
00025b 2072
00025c 6968
00025d 6867
00025e 6100      	.DB  0x72,0x20,0x68,0x69,0x67,0x68,0x0,0x61
00025f 6364
000260 203a
000261 5300
000262 7465      	.DB  0x64,0x63,0x3A,0x20,0x0,0x53,0x65,0x74
000263 5320
000264 6174
000265 7472
000266 4120      	.DB  0x20,0x53,0x74,0x61,0x72,0x74,0x20,0x41
000267 676e
000268 656c
000269 7300
00026a 6174      	.DB  0x6E,0x67,0x6C,0x65,0x0,0x73,0x74,0x61
00026b 7472
00026c 6120
00026d 676e
00026e 656c      	.DB  0x72,0x74,0x20,0x61,0x6E,0x67,0x6C,0x65
00026f 0020
000270 6361
000271 6563
000272 7470      	.DB  0x20,0x0,0x61,0x63,0x63,0x65,0x70,0x74
000273 6465
000274 0021
000275 6553
000276 2074      	.DB  0x65,0x64,0x21,0x0,0x53,0x65,0x74,0x20
000277 6e45
000278 2064
000279 6e41
00027a 6c67      	.DB  0x45,0x6E,0x64,0x20,0x41,0x6E,0x67,0x6C
00027b 0065
00027c 6e65
00027d 2064
00027e 6e61      	.DB  0x65,0x0,0x65,0x6E,0x64,0x20,0x61,0x6E
00027f 6c67
000280 2065
000281 6100
000282 6363      	.DB  0x67,0x6C,0x65,0x20,0x0,0x61,0x63,0x63
000283 7065
000284 6574
000285 2164
000286 0020      	.DB  0x65,0x70,0x74,0x65,0x64,0x21,0x20,0x0
000287 657a
000288 6f72
000289 6120
00028a 676e      	.DB  0x7A,0x65,0x72,0x6F,0x20,0x61,0x6E,0x67
00028b 656c
00028c 0020
00028d 7073
00028e 6e61      	.DB  0x6C,0x65,0x20,0x0,0x73,0x70,0x61,0x6E
00028f 6120
000290 676e
000291 656c
000292 0020      	.DB  0x20,0x61,0x6E,0x67,0x6C,0x65,0x20,0x0
                 _0x2040060:
C:\Users\Admin\Desktop\ravindra energy solar trackerNO NAME - mpu6050\List\tracker.asm(1297): warning: .cseg .db misalignment - padding zero byte
000293 0001      	.DB  0x1
                 _0x2040000:
000294 4e2d
000295 4e41
000296 4900
000297 464e      	.DB  0x2D,0x4E,0x41,0x4E,0x0,0x49,0x4E,0x46
C:\Users\Admin\Desktop\ravindra energy solar trackerNO NAME - mpu6050\List\tracker.asm(1300): warning: .cseg .db misalignment - padding zero byte
000298 0000      	.DB  0x0
                 _0x20A0003:
000299 c080      	.DB  0x80,0xC0
                 
                 __GLOBAL_INI_TBL:
00029a 0004      	.DW  0x04
00029b 0002      	.DW  0x02
00029c 026e      	.DW  __REG_BIT_VARS*2
                 
00029d 0004      	.DW  0x04
00029e 0260      	.DW  _pi
00029f 0272      	.DW  _0x3*2
                 
0002a0 0004      	.DW  0x04
0002a1 0274      	.DW  _sundia
0002a2 0276      	.DW  _0x4*2
                 
0002a3 0004      	.DW  0x04
0002a4 0278      	.DW  _airrefr
0002a5 027a      	.DW  _0x5*2
                 
0002a6 0001      	.DW  0x01
0002a7 0397      	.DW  __seed_G102
0002a8 0526      	.DW  _0x2040060*2
                 
0002a9 0002      	.DW  0x02
0002aa 039b      	.DW  __base_y_G105
0002ab 0532      	.DW  _0x20A0003*2
                 
                 _0xFFFFFFFF:
0002ac 0000      	.DW  0
                 
                 #define __GLOBAL_INI_TBL_PRESENT 1
                 
                 __RESET:
0002ad 94f8      	CLI
0002ae 27ee      	CLR  R30
0002af bbec      	OUT  EECR,R30
                 
                 ;INTERRUPT VECTORS ARE PLACED
                 ;AT THE START OF FLASH
0002b0 e0f1      	LDI  R31,1
0002b1 bffb      	OUT  GICR,R31
0002b2 bfeb      	OUT  GICR,R30
0002b3 bfe5      	OUT  MCUCR,R30
                 
                 ;DISABLE WATCHDOG
0002b4 e1f8      	LDI  R31,0x18
0002b5 bdf1      	OUT  WDTCR,R31
0002b6 bde1      	OUT  WDTCR,R30
                 
                 ;CLEAR R2-R14
0002b7 e08d      	LDI  R24,(14-2)+1
0002b8 e0a2      	LDI  R26,2
0002b9 27bb      	CLR  R27
                 __CLEAR_REG:
0002ba 93ed      	ST   X+,R30
0002bb 958a      	DEC  R24
0002bc f7e9      	BRNE __CLEAR_REG
                 
                 ;CLEAR SRAM
0002bd e080      	LDI  R24,LOW(__CLEAR_SRAM_SIZE)
0002be e098      	LDI  R25,HIGH(__CLEAR_SRAM_SIZE)
0002bf e6a0      	LDI  R26,__SRAM_START
                 __CLEAR_SRAM:
0002c0 93ed      	ST   X+,R30
0002c1 9701      	SBIW R24,1
0002c2 f7e9      	BRNE __CLEAR_SRAM
                 
                 ;GLOBAL VARIABLES INITIALIZATION
0002c3 e3e4      	LDI  R30,LOW(__GLOBAL_INI_TBL*2)
0002c4 e0f5      	LDI  R31,HIGH(__GLOBAL_INI_TBL*2)
                 __GLOBAL_INI_NEXT:
0002c5 9185      	LPM  R24,Z+
0002c6 9195      	LPM  R25,Z+
0002c7 9700      	SBIW R24,0
0002c8 f061      	BREQ __GLOBAL_INI_END
0002c9 91a5      	LPM  R26,Z+
0002ca 91b5      	LPM  R27,Z+
0002cb 9005      	LPM  R0,Z+
0002cc 9015      	LPM  R1,Z+
0002cd 01bf      	MOVW R22,R30
0002ce 01f0      	MOVW R30,R0
                 __GLOBAL_INI_LOOP:
0002cf 9005      	LPM  R0,Z+
0002d0 920d      	ST   X+,R0
0002d1 9701      	SBIW R24,1
0002d2 f7e1      	BRNE __GLOBAL_INI_LOOP
0002d3 01fb      	MOVW R30,R22
0002d4 cff0      	RJMP __GLOBAL_INI_NEXT
                 __GLOBAL_INI_END:
                 
                 ;HARDWARE STACK POINTER INITIALIZATION
0002d5 e5ef      	LDI  R30,LOW(__SRAM_END-__HEAP_SIZE)
0002d6 bfed      	OUT  SPL,R30
0002d7 e0e8      	LDI  R30,HIGH(__SRAM_END-__HEAP_SIZE)
0002d8 bfee      	OUT  SPH,R30
                 
                 ;DATA STACK POINTER INITIALIZATION
0002d9 e6c0      	LDI  R28,LOW(__SRAM_START+__DSTACK_SIZE)
0002da e0d2      	LDI  R29,HIGH(__SRAM_START+__DSTACK_SIZE)
                 
0002db 940c 248b 	JMP  _main
                 
                 	.ESEG
                 	.ORG 0
                 
                 	.DSEG
                 	.ORG 0x260
                 
                 	.CSEG
                 ;
                 ;/*****************************************************
                 ;derived from solarp605013.c
                 ;done: added modbus id and modbus rate paramaters
                 ;todo:
                 ;transfer three regiters to modbus memory array
                 ;add modbus protocol
                 ;
                 ;
                 ;add modbus paramaters
                 ;
                 ;derived from solarp60508.c
                 ;reason: to add modbus
                 ;three registers only
                 ;read/write mode
                 ;1. actual angle
                 ;2. target angle
                 ;3. mode: 1>auto,2> manual,3>sleep(night)mode
                 ;
                 ;
                 ;
                 ;
                 ;FINAL SOFTWARE FOR BACKTRACKING AND PWM WITHOUT GPS
                 ;
                 ;
                 ;derived from solarp60507.c
                 ;date: 13 jan 2021
                 ;
                 ;backtracking achieved
                 ;todo
                 ;1. PWM soft start
                 ;2. PWM soft end
                 ;
                 ;derived from solarp60506.c
                 ;reason: paramaters set_width and set_distance added in 6.c
                 ;todo:
                 ;add backtracking logic and set target angle accordingly.
                 ;also remove bug of limit angles.
                 ;also correct eeprom load addition of width and distance
                 ;CHANGED TO MEGA32
                 ;
                 ;
                 ;derived from solarp60505.c
                 ;to add backtracking parameters
                 ;
                 ;
                 ;
                 ;derived from solarp60504.c
                 ;reason:
                 ;to change angle fro 0 to 180 to -90 to 90 degrees for backtracking compatibility
                 ;
                 ;
                 ;derived from solarmpu60503.c
                 ;to add complimentary filter to pitch/roll from gyroscope reading
                 ;pitch = 0.7(oldpitch*gyronormalised)+ 0.3(newpitch)
                 ;
                 ;serived from  solarmpu60501.c
                 ;reason: to calculate pitch and roll from mpu data
                 ;
                 ;
                 ;
                 ;
                 ;derived from ravindra energy logic with no name
                 ;reason: to replace 3421 with MPU6050
                 ;adc3421 read and init routines changed
                 ;
                 ;
                 ;date: 22-09-2021
                 ;reason: to change the welcome message to remove micron instruments
                 ;
                 ;derived from ravindra energy.c
                 ;date: 21-06-2019
                 ;reason: to add loading of rtc value  to eeprom on power up if rtc value is valid.
                 ;
                 ;
                 ;derived from only tracker1.c
                 ;date: 19 -06-2019
                 ;reason: to add protection for corruption of data
                 ;
                 ;1. add backup for time and date if corrupt
                 ;        if time is corrupt, reset time to last stored value, if last stored value is ff, then reset to 12:00
                 ;        store time and date every 30mins. total writes /year =16000.
                 ;2. add limits to start angle and end angle. if they are corrupt reset them to 55/125 degrees
                 ;
                 ;
                 ;
                 ;derived from tracker 3 phase.c
                 ;to change the latitude and longitude to 26.5 and 73.8 degrees
                 ;to change the start angle and end angle to 50 deg and 125 deg.
                 ;
                 ;derived from micron 20W.c
                 ;reason: to create a only tracker software
                 ;todo
                 ;1. remove the battery charger and battery voltage related part
                 ;2. remove the adc sensing of various voltages. retain onlty the accelerometer part
                 ;
                 ;
                 ;
                 ;DERIVED FROM LUBI ELECTRONIC.C
                 ;TO CHANGE WELCOME MESSAGE TO MICRON INSTRUMENTS
                 ;
                 ;
                 ;
                 ;derived from tracker3.c
                 ;reason: to change welcome message to lubi electronics.
                 ;
                 ;
                 ;date : 17-11-2013
                 ;derived from tracker2.c
                 ;
                 ;reason:
                 ;1.low battery indication in normal mode. hysterisis to be provided for reconnection on 12.4V
                 ;2. cutoff backlight on low battery status (errfl2)
                 ;3. if adc_battery > 15V, cut charging , put message ("no battery connected");
                 ;4. remove condition that if battery voltage < 5V, disconnect charging.
                 ;5. increase current limits to 1.2A/1A
                 ;6. overflow for OCR1A correction
                 ;7. fast charging depending on battery voltage
                 ;8. low battery/battery not connected sensing and algorithm.
                 ;9. bug of sleep mode.
                 ;10.MPPT changed to full charge PV >=battery + 2.0V
                 ;
                 ;
                 ;
                 ;
                 ;
                 ;date: 13 nov 2013
                 ;derived from tracker1.c
                 ;reason: to test in new hardware
                 ;changes:
                 ;OC1A - pin 19 of mega32 - pwm output
                 ;OC1B = pin 18 of mega32 - shutdown for ir2104
                 ;mux lines pc7 and pc5 interchanged to suit new hardware solar4-main
                 ;rs232 to be re-introduced
                 ;
                 ;
                 ;
                 ;
                 ;
                 ;derived from solar14.c
                 ;
                 ;reason: to add algorithm for sleep mode between sunset + 30 min and sunrise - 30 min.
                 ;derived from solar13.c
                 ;reason: to make algorithm change to the mechanical error logic.
                 ;checked once every 30 seconds. if angle has changed more than 2 degrees then continue else end panel movement
                 ;
                 ;
                 ;
                 ;date: 04-nov 2013
                 ;reason: to make following changes as suggested by tata solar
                 ;1.enter/exit of calibration mode for start/emd angle setting improved.**
                 ;2.LED indication in case of error on charger side to be inhibited.    **
                 ;3. timeout for mechanical error to be changed
                 ;4. battery low indication in absence of PV to be indicated.           **
                 ;5. output to relay to be inhibited in all conditions even in manual mode. **
                 ;
                 ;
                 ;date: 23-9-13
                 ;reason:
                 ;done: setting of latitude/longitude and timezone for user
                 ;result stored in riset,settm.
                 ;
                 ;todo: put value in regular calculation of target angle.
                 ;remove existing table for sunrise/set.
                 ;
                 ;********
                 ;
                 ;
                 ;date: 16-09-2013
                 ;
                 ;derived from solar4.c
                 ;reason:to add latitude/longitude calculations.
                 ;only for checking purpose
                 ;
                 ;
                 ;
                 ;
                 ;
                 ;date: 20 july 2013
                 ;reason:
                 ;to add logic to come out of the program mode after 29 seconds of inactivity of key pressed
                 ;the variable used is program_timeout, function added is clear_default();
                 ;
                 ;date:5-7-13
                 ;reason: to add RS232 control to the unit.
                 ;if 'R' is received, send record count.
                 ;if 'P' is received, send print command.
                 ;if 's' is received , reset record count.
                 ;
                 ;
                 ;date : 29-6-13
                 ;derived from solar1.c
                 ;reason:
                 ;to add fixed parameters batteryvoltage = 12V and MPPT 17V
                 ;and to monitor and control charging parameters
                 ;
                 ;This program was produced by the
                 ;CodeWizardAVR V2.04.4a Advanced
                 ;Automatic Program Generator
                 ; Copyright 1998-2009 Pavel Haiduc, HP InfoTech s.r.l.
                 ;http://www.hpinfotech.com
                 ;
                 ;Project :
                 ;Version :
                 ;Date    : 27.06.2013
                 ;Author  : NeVaDa
                 ;Company : Warner Brothers Movie World
                 ;Comments:
                 ;
                 ;
                 ;Chip type               : ATmega16
                 ;Program type            : Application
                 ;AVR Core Clock frequency: 11,059200 MHz
                 ;Memory model            : Small
                 ;External RAM size       : 0
                 ;Data Stack size         : 256
                 ;*****************************************************/
                 ;
                 ;#include <mega32.h>
                 	#ifndef __SLEEP_DEFINED__
                 	#define __SLEEP_DEFINED__
                 	.EQU __se_bit=0x80
                 	.EQU __sm_mask=0x70
                 	.EQU __sm_powerdown=0x20
                 	.EQU __sm_powersave=0x30
                 	.EQU __sm_standby=0x60
                 	.EQU __sm_ext_standby=0x70
                 	.EQU __sm_adc_noise_red=0x10
                 	.SET power_ctrl_reg=mcucr
                 	#endif
                 ;#include <delay.h>
                 ;#include <math.h>
                 ;#include <ctype.h>
                 ;#include <stdlib.h>
                 ;#include <sleep.h>
                 ;
                 ;// I2C Bus functions
                 ;#asm
                    .equ __i2c_port=0x1B ;PORTA
                    .equ __sda_bit=4
                    .equ __scl_bit=5
                 ; 0000 00E7 #endasm
                 ;#include <i2c.h>
                 ;
                 ;// DS1307 Real Time Clock functions
                 ;#include <ds1307.h>
                 ;
                 ;// Alphanumeric LCD Module functions
                 ;#asm
                    .equ __lcd_port=0x18 ;PORTB
                 ; 0000 00F0 #endasm
                 ;#include <lcd.h>
                 ;
                 ;#define key1    PINA.0
                 ;#define key2    PINA.1
                 ;#define key3    PINA.2
                 ;#define key4    PINA.3
                 ;#define relay2  PORTC.0
                 ;#define relay1  PORTD.7
                 ;#define printkey PINA.6
                 ;#define led1    PORTD.3
                 ;#define led2    PORTC.4
                 ;#define led3    PORTD.6
                 ;#define led4    PORTC.3
                 ;#define led5    PORTC.1
                 ;#define led6    PORTC.2
                 ;#define mux1    PORTC.5
                 ;#define mux2    PORTC.6
                 ;#define mux3    PORTC.7
                 ;#define backlight   PORTB.3
                 ;#define shutdown    PORTD.4
                 ;#define mb_dir PORTD.4
                 ;
                 ;
                 ;
                 ;/////////
                 ;
                 ;//////mpu6050 definition section//////////////
                 ;#define XG_OFFS_TC 0x00
                 ;#define YG_OFFS_TC 0x01
                 ;#define ZG_OFFS_TC 0x02
                 ;#define X_FINE_GAIN 0x03
                 ;#define Y_FINE_GAIN 0x04
                 ;#define Z_FINE_GAIN 0x05
                 ;#define XA_OFFS_H 0x06
                 ;#define XA_OFFS_L_TC 0x07
                 ;#define YA_OFFS_H 0x08
                 ;#define YA_OFFS_L_TC 0x09
                 ;#define ZA_OFFS_H 0x0A
                 ;#define ZA_OFFS_L_TC 0x0B
                 ;#define XG_OFFS_USRH 0x13
                 ;#define XG_OFFS_USRL 0x14
                 ;#define YG_OFFS_USRH 0x15
                 ;#define YG_OFFS_USRL 0x16
                 ;#define ZG_OFFS_USRH 0x17
                 ;#define ZG_OFFS_USRL 0x18
                 ;#define SMPLRT_DIV 0x19
                 ;#define CONFIG 0x1A
                 ;#define GYRO_CONFIG 0x1B
                 ;#define ACCEL_CONFIG 0x1C
                 ;#define FF_THR 0x1D
                 ;#define FF_DUR 0x1E
                 ;#define MOT_THR 0x1F
                 ;#define MOT_DUR 0x20
                 ;#define ZRMOT_THR 0x21
                 ;#define ZRMOT_DUR 0x22
                 ;#define FIFO_EN 0x23
                 ;#define I2C_MST_CTRL 0x24
                 ;#define I2C_SLV0_ADDR 0x25
                 ;#define I2C_SLV0_REG 0x26
                 ;#define I2C_SLV0_CTRL 0x27
                 ;#define I2C_SLV1_ADDR 0x28
                 ;#define I2C_SLV1_REG 0x29
                 ;#define I2C_SLV1_CTRL 0x2A
                 ;#define I2C_SLV2_ADDR 0x2B
                 ;#define I2C_SLV2_REG 0x2C
                 ;#define I2C_SLV2_CTRL 0x2D
                 ;#define I2C_SLV3_ADDR 0x2E
                 ;#define I2C_SLV3_REG 0x2F
                 ;#define I2C_SLV3_CTRL 0x30
                 ;#define I2C_SLV4_ADDR 0x31
                 ;#define I2C_SLV4_REG 0x32
                 ;#define I2C_SLV4_DO 0x33
                 ;#define I2C_SLV4_CTRL 0x34
                 ;#define I2C_SLV4_DI 0x35
                 ;#define I2C_MST_STATUS 0x36
                 ;#define INT_PIN_CFG 0x37
                 ;#define INT_ENABLE 0x38
                 ;#define DMP_INT_STATUS 0x39
                 ;#define INT_STATUS 0x3A
                 ;#define ACCEL_XOUT_H 0x3B
                 ;#define ACCEL_XOUT_L 0x3C
                 ;#define ACCEL_YOUT_H 0x3D
                 ;#define ACCEL_YOUT_L 0x3E
                 ;#define ACCEL_ZOUT_H 0x3F
                 ;#define ACCEL_ZOUT_L 0x40
                 ;#define TEMP_OUT_H 0x41
                 ;#define TEMP_OUT_L 0x42
                 ;#define GYRO_XOUT_H 0x43
                 ;#define GYRO_XOUT_L 0x44
                 ;#define GYRO_YOUT_H 0x45
                 ;#define GYRO_YOUT_L 0x46
                 ;#define GYRO_ZOUT_H 0x47
                 ;#define GYRO_ZOUT_L 0x48
                 ;#define EXT_SENS_DATA_00 0x49
                 ;#define EXT_SENS_DATA_01 0x4A
                 ;#define EXT_SENS_DATA_02 0x4B
                 ;#define EXT_SENS_DATA_03 0x4C
                 ;#define EXT_SENS_DATA_04 0x4D
                 ;#define EXT_SENS_DATA_05 0x4E
                 ;#define EXT_SENS_DATA_06 0x4F
                 ;#define EXT_SENS_DATA_07 0x50
                 ;#define EXT_SENS_DATA_08 0x51
                 ;#define EXT_SENS_DATA_09 0x52
                 ;#define EXT_SENS_DATA_10 0x53
                 ;#define EXT_SENS_DATA_11 0x54
                 ;#define EXT_SENS_DATA_12 0x55
                 ;#define EXT_SENS_DATA_13 0x56
                 ;#define EXT_SENS_DATA_14 0x57
                 ;#define EXT_SENS_DATA_15 0x58
                 ;#define EXT_SENS_DATA_16 0x59
                 ;#define EXT_SENS_DATA_17 0x5A
                 ;#define EXT_SENS_DATA_18 0x5B
                 ;#define EXT_SENS_DATA_19 0x5C
                 ;#define EXT_SENS_DATA_20 0x5D
                 ;#define EXT_SENS_DATA_21 0x5E
                 ;#define EXT_SENS_DATA_22 0x5F
                 ;#define EXT_SENS_DATA_23 0x60
                 ;#define MOT_DETECT_STATUS 0x61
                 ;#define I2C_SLV0_DO 0x63
                 ;#define I2C_SLV1_DO 0x64
                 ;#define I2C_SLV2_DO 0x65
                 ;#define I2C_SLV3_DO 0x66
                 ;#define I2C_MST_DELAY_CTRL 0x67
                 ;#define SIGNAL_PATH_RESET 0x68
                 ;#define MOT_DETECT_CTRL 0x69
                 ;#define USER_CTRL 0x6A
                 ;#define PWR_MGMT_1 0x6B
                 ;#define PWR_MGMT_2 0x6C
                 ;#define BANK_SEL 0x6D
                 ;#define MEM_START_ADDR 0x6E
                 ;#define MEM_R_W 0x6F
                 ;#define DMP_CFG_1 0x70
                 ;#define DMP_CFG_2 0x71
                 ;#define FIFO_COUNTH 0x72
                 ;#define FIFO_COUNTL 0x73
                 ;#define FIFO_R_W 0x74
                 ;#define WHO_AM_I 0x75
                 ;
                 ;
                 ;
                 ;///////////////////////////////////////////
                 ;
                 ;
                 ;
                 ;
                 ;float pi =3.14159;
                 
                 	.DSEG
                 ;float degs;
                 ;float rads;
                 ;float L,g;
                 ;float sundia = 0.53;
                 ;float airrefr = 34.0/60.0;
                 ;float settm,riset,daytime,sunrise_min,sunset_min;
                 ;
                 ;///////////////////////////////////////////////////
                 ;
                 ;long int adc_buffer,timeout_cnt,target_angle,sun_angle,printkeycnt,calibusercnt,program_timeout;
                 ;unsigned char hour,minute,second,week,day,month,year;
                 ;bit key1_old,key2_old,key3_old,key4_old,printkey_old,start_fl,end_fl,inf_fl;
                 ;//bit rcflag;
                 ;bit key1_fl,key2_fl,key3_fl,key4_fl,printkey_fl,err_fl,led_blinkfl,sleep_fl,print_fl;
                 ;bit pgm_fl,blink_fl,adc_fl,read_adcfl,boost_fl,trickle_fl,float_fl;
                 ;short int mode,set,item1,bright_cnt,mode0_seqcnt,end_cnt,sleep_counter;
                 ;//short int ir_cnt;
                 ;unsigned int time_cnt,time_cnt1,pwm_count;
                 ;unsigned int mode1_count,blink_count,display_cnt,manual_cnt;
                 ;//unsigned long int boost_time,float_time;
                 ;char blink_locx,blink_locy;
                 ;char blink_data;
                 ;signed int set_latit,set_longitude,low_angle,high_angle,time_interval,target_time,time_elap,set_timezone;
                 ;//int ircommand;
                 ;//unsigned long irsense;
                 ;long int zero_adc,span_adc;
                 ;unsigned char char_latitude,char_longitude,char_timezone,char_width,char_distance,char_id,char_rate;
                 ;//char record_buffer[16];
                 ;eeprom signed int e_set_latit = 2650,e_set_longitude =7380,e_low_angle=-400,e_high_angle=400,e_time_interval=5,e_set_tim ...
                 ;eeprom long int e_zero_adc =0,e_span_adc=20000;
                 ;eeprom int record_cnt @0x020;
                 ;eeprom int record_cnt =0;
                 ;eeprom unsigned char e_hour=12,e_minute=0,e_second=0,e_week=1,e_month=6,e_day=1,e_year=19;
                 ;//flash int sunrise_time[] ={718,709,607,620,601,556,605,617,625,634,649,708};            //according to month
                 ;//flash int sunset_time[]={1818,1836,1848,1857,1909,1921,1923,1908,1841,1814,1757,1759};   //according to month
                 ;//flash int sunrise_min[]={438,429,407,380,361,356,365,377,385,394,409,428};
                 ;//flash int sunset_min[]={1098,1116,1128,1137,1149,1161,1163,1148,1121,1094,1077,1079};
                 ;//flash int daytime[]={659,687,720,757,788,804,798,771,736,700,668,651};
                 ;bit calibuser,calibfact,manual_fl=0;
                 ;//char flash *message1 = {"set the time"};
                 ;int x_angle,y_angle,z_angle,pitch,roll,angle,Gyrox,Gyroy,Gyroz;
                 ;int angle_filt[4]={0,0,0,0};
                 ;void display_update(void);
                 ;int set_distance,set_width,modbus_id,modbus_rate;
                 ;eeprom int e_set_width =10,e_set_distance = 20,e_modbus_id =13,e_modbus_rate=1;
                 ;signed int new_target,b_factor,gangle;
                 ;
                 ;bit modbus_fl;
                 ;
                 ;/////usart routines//////
                 ;
                 ;
                 ;#ifndef RXB8
                 ;#define RXB8 1
                 ;#endif
                 ;
                 ;#ifndef TXB8
                 ;#define TXB8 0
                 ;#endif
                 ;
                 ;#ifndef UPE
                 ;#define UPE 2
                 ;#endif
                 ;
                 ;#ifndef DOR
                 ;#define DOR 3
                 ;#endif
                 ;
                 ;#ifndef FE
                 ;#define FE 4
                 ;#endif
                 ;
                 ;#ifndef UDRE
                 ;#define UDRE 5
                 ;#endif
                 ;
                 ;#ifndef RXC
                 ;#define RXC 7
                 ;#endif
                 ;
                 ;#define FRAMING_ERROR (1<<FE)
                 ;#define PARITY_ERROR (1<<UPE)
                 ;#define DATA_OVERRUN (1<<DOR)
                 ;#define DATA_REGISTER_EMPTY (1<<UDRE)
                 ;#define RX_COMPLETE (1<<RXC)
                 ;
                 ;// USART Receiver buffer
                 ;#define RX_BUFFER_SIZE 20
                 ;char rx_buffer[RX_BUFFER_SIZE];
                 ;
                 ;#if RX_BUFFER_SIZE<256
                 ;unsigned char rx_wr_index,rx_rd_index,rx_counter;
                 ;#else
                 ;unsigned int rx_wr_index,rx_rd_index,rx_counter;
                 ;#endif
                 ;char mbreceived_data[10];
                 ;
                 ;// This flag is set on USART Receiver buffer overflow
                 ;bit rx_buffer_overflow;
                 ;
                 ;// USART Receiver interrupt service routine
                 ;interrupt [USART_RXC] void usart_rx_isr(void)
                 ; 0000 01E9 {
                 
                 	.CSEG
                 _usart_rx_isr:
                 ; .FSTART _usart_rx_isr
0002dd 93aa      	ST   -Y,R26
0002de 93ba      	ST   -Y,R27
0002df 93ea      	ST   -Y,R30
0002e0 93fa      	ST   -Y,R31
0002e1 b7ef      	IN   R30,SREG
0002e2 93ea      	ST   -Y,R30
                 ; 0000 01EA char status,data,i;
                 ; 0000 01EB status=UCSRA;
0002e3 940e 2fa0 	CALL __SAVELOCR4
                 ;	status -> R17
                 ;	data -> R16
                 ;	i -> R19
0002e5 b11b      	IN   R17,11
                 ; 0000 01EC data=UDR;
0002e6 b10c      	IN   R16,12
                 ; 0000 01ED if ((status & (FRAMING_ERROR | PARITY_ERROR | DATA_OVERRUN))==0)
0002e7 2fe1      	MOV  R30,R17
0002e8 71ec      	ANDI R30,LOW(0x1C)
0002e9 f009      	BREQ PC+2
0002ea c046      	RJMP _0x6
                 ; 0000 01EE    {
                 ; 0000 01EF    rx_buffer[rx_wr_index]=data;
0002eb 91e0 0325 	LDS  R30,_rx_wr_index
0002ed e0f0      	LDI  R31,0
0002ee 5eef      	SUBI R30,LOW(-_rx_buffer)
0002ef 4ffc      	SBCI R31,HIGH(-_rx_buffer)
0002f0 8300      	ST   Z,R16
                 ; 0000 01F0    if (++rx_wr_index == RX_BUFFER_SIZE) rx_wr_index=0;
0002f1 91a0 0325 	LDS  R26,_rx_wr_index
0002f3 5faf      	SUBI R26,-LOW(1)
0002f4 93a0 0325 	STS  _rx_wr_index,R26
0002f6 31a4      	CPI  R26,LOW(0x14)
0002f7 f419      	BRNE _0x7
0002f8 e0e0      	LDI  R30,LOW(0)
0002f9 93e0 0325 	STS  _rx_wr_index,R30
                 ; 0000 01F1    if (++rx_counter == RX_BUFFER_SIZE)
                 _0x7:
0002fb 91a0 0327 	LDS  R26,_rx_counter
0002fd 5faf      	SUBI R26,-LOW(1)
0002fe 93a0 0327 	STS  _rx_counter,R26
000300 31a4      	CPI  R26,LOW(0x14)
000301 f429      	BRNE _0x8
                 ; 0000 01F2       {
                 ; 0000 01F3       rx_counter=0;
000302 e0e0      	LDI  R30,LOW(0)
000303 93e0 0327 	STS  _rx_counter,R30
                 ; 0000 01F4       rx_buffer_overflow=1;
000305 9468      	SET
000306 f854      	BLD  R5,4
                 ; 0000 01F5       };
                 _0x8:
                 ; 0000 01F6 
                 ; 0000 01F7 ///////////////////////////////////
                 ; 0000 01F8 //added to form modbus frame
                 ; 0000 01F9 if (rx_counter==1)
000307 91a0 0327 	LDS  R26,_rx_counter
000309 30a1      	CPI  R26,LOW(0x1)
00030a f461      	BRNE _0x9
                 ; 0000 01FA     {
                 ; 0000 01FB     if (rx_buffer[0] != (char)(modbus_id))  //modbus_id
00030b 91e0 0307 	LDS  R30,_modbus_id
00030d 91a0 0311 	LDS  R26,_rx_buffer
00030f 17ea      	CP   R30,R26
000310 f029      	BREQ _0xA
                 ; 0000 01FC         rx_counter = rx_wr_index =0;    //reset frame till first byte matchs slave address
000311 e0e0      	LDI  R30,LOW(0)
000312 93e0 0325 	STS  _rx_wr_index,R30
000314 93e0 0327 	STS  _rx_counter,R30
                 ; 0000 01FD     }
                 _0xA:
                 ; 0000 01FE else
000316 c01a      	RJMP _0xB
                 _0x9:
                 ; 0000 01FF     {
                 ; 0000 0200     // valid slave address.allot frame size according to function code.
                 ; 0000 0201     if (rx_counter >=8)
000317 91a0 0327 	LDS  R26,_rx_counter
000319 30a8      	CPI  R26,LOW(0x8)
00031a f0b0      	BRLO _0xC
                 ; 0000 0202       {
                 ; 0000 0203     //modbus frame complete. transfer data to mbreceived_data[]
                 ; 0000 0204         for (i=0;i<8;i++)
00031b e030      	LDI  R19,LOW(0)
                 _0xE:
00031c 3038      	CPI  R19,8
00031d f460      	BRSH _0xF
                 ; 0000 0205         {
                 ; 0000 0206         mbreceived_data[i] = rx_buffer[i];
00031e 2fa3      	MOV  R26,R19
00031f e0b0      	LDI  R27,0
000320 5da8      	SUBI R26,LOW(-_mbreceived_data)
000321 4fbc      	SBCI R27,HIGH(-_mbreceived_data)
000322 2fe3      	MOV  R30,R19
000323 e0f0      	LDI  R31,0
000324 5eef      	SUBI R30,LOW(-_rx_buffer)
000325 4ffc      	SBCI R31,HIGH(-_rx_buffer)
000326 81e0      	LD   R30,Z
000327 93ec      	ST   X,R30
                 ; 0000 0207         }
000328 5f3f      	SUBI R19,-1
000329 cff2      	RJMP _0xE
                 _0xF:
                 ; 0000 0208         rx_counter = rx_wr_index =0;        //reset counter to start for next frame
00032a e0e0      	LDI  R30,LOW(0)
00032b 93e0 0325 	STS  _rx_wr_index,R30
00032d 93e0 0327 	STS  _rx_counter,R30
                 ; 0000 0209         modbus_fl =1;                       // set flag to indicate frame recieved in main routine.
00032f 9468      	SET
000330 f853      	BLD  R5,3
                 ; 0000 020A //        mb_dir =1;      //ready for transmit
                 ; 0000 020B       }
                 ; 0000 020C     }
                 _0xC:
                 _0xB:
                 ; 0000 020D 
                 ; 0000 020E 
                 ; 0000 020F //////////////////////////////////
                 ; 0000 0210    };
                 _0x6:
                 ; 0000 0211 }
000331 940e 2fa7 	CALL __LOADLOCR4
000333 9624      	ADIW R28,4
000334 91e9      	LD   R30,Y+
000335 bfef      	OUT  SREG,R30
000336 91f9      	LD   R31,Y+
000337 91e9      	LD   R30,Y+
000338 91b9      	LD   R27,Y+
000339 91a9      	LD   R26,Y+
00033a 9518      	RETI
                 ; .FEND
                 ;
                 ;#ifndef _DEBUG_TERMINAL_IO_
                 ;// Get a character from the USART Receiver buffer
                 ;#define _ALTERNATE_GETCHAR_
                 ;#pragma used+
                 ;char getchar(void)
                 ; 0000 0218 {
                 ; 0000 0219 char data;
                 ; 0000 021A while (rx_counter==0);
                 ;	data -> R17
                 ; 0000 021B data=rx_buffer[rx_rd_index];
                 ; 0000 021C if (++rx_rd_index == RX_BUFFER_SIZE) rx_rd_index=0;
                 ; 0000 021D #asm("cli")
                 ; 0000 021E --rx_counter;
                 ; 0000 021F #asm("sei")
                 ; 0000 0220 return data;
                 ; 0000 0221 }
                 ;#pragma used-
                 ;#endif
                 ;
                 ;// USART Transmitter buffer
                 ;#define TX_BUFFER_SIZE 48
                 ;char tx_buffer[TX_BUFFER_SIZE];
                 ;
                 ;#if TX_BUFFER_SIZE<256
                 ;unsigned char tx_wr_index,tx_rd_index,tx_counter;
                 ;#else
                 ;unsigned int tx_wr_index,tx_rd_index,tx_counter;
                 ;#endif
                 ;
                 ;// USART Transmitter interrupt service routine
                 ;interrupt [USART_TXC] void usart_tx_isr(void)
                 ; 0000 0231 {
                 _usart_tx_isr:
                 ; .FSTART _usart_tx_isr
00033b 93aa      	ST   -Y,R26
00033c 93ea      	ST   -Y,R30
00033d 93fa      	ST   -Y,R31
00033e b7ef      	IN   R30,SREG
00033f 93ea      	ST   -Y,R30
                 ; 0000 0232 if (tx_counter)
000340 91e0 0364 	LDS  R30,_tx_counter
000342 30e0      	CPI  R30,0
000343 f0a1      	BREQ _0x14
                 ; 0000 0233    {
                 ; 0000 0234    --tx_counter;
000344 50e1      	SUBI R30,LOW(1)
000345 93e0 0364 	STS  _tx_counter,R30
                 ; 0000 0235    UDR=tx_buffer[tx_rd_index];
000347 91e0 0363 	LDS  R30,_tx_rd_index
000349 e0f0      	LDI  R31,0
00034a 5cee      	SUBI R30,LOW(-_tx_buffer)
00034b 4ffc      	SBCI R31,HIGH(-_tx_buffer)
00034c 81e0      	LD   R30,Z
00034d b9ec      	OUT  0xC,R30
                 ; 0000 0236    if (++tx_rd_index == TX_BUFFER_SIZE) tx_rd_index=0;
00034e 91a0 0363 	LDS  R26,_tx_rd_index
000350 5faf      	SUBI R26,-LOW(1)
000351 93a0 0363 	STS  _tx_rd_index,R26
000353 33a0      	CPI  R26,LOW(0x30)
000354 f419      	BRNE _0x15
000355 e0e0      	LDI  R30,LOW(0)
000356 93e0 0363 	STS  _tx_rd_index,R30
                 ; 0000 0237    };
                 _0x15:
                 _0x14:
                 ; 0000 0238 }
000358 91e9      	LD   R30,Y+
000359 bfef      	OUT  SREG,R30
00035a 91f9      	LD   R31,Y+
00035b 91e9      	LD   R30,Y+
00035c 91a9      	LD   R26,Y+
00035d 9518      	RETI
                 ; .FEND
                 ;
                 ;#ifndef _DEBUG_TERMINAL_IO_
                 ;// Write a character to the USART Transmitter buffer
                 ;#define _ALTERNATE_PUTCHAR_
                 ;#pragma used+
                 ;void putchar(char c)
                 ; 0000 023F {
                 _putchar:
                 ; .FSTART _putchar
                 ; 0000 0240 while (tx_counter == TX_BUFFER_SIZE);
00035e 93aa      	ST   -Y,R26
                 ;	c -> Y+0
                 _0x16:
00035f 91a0 0364 	LDS  R26,_tx_counter
000361 33a0      	CPI  R26,LOW(0x30)
000362 f3e1      	BREQ _0x16
                 ; 0000 0241 #asm("cli")
000363 94f8      	cli
                 ; 0000 0242 if (tx_counter || ((UCSRA & DATA_REGISTER_EMPTY)==0))
000364 91e0 0364 	LDS  R30,_tx_counter
000366 30e0      	CPI  R30,0
000367 f411      	BRNE _0x1A
000368 995d      	SBIC 0xB,5
000369 c017      	RJMP _0x19
                 _0x1A:
                 ; 0000 0243    {
                 ; 0000 0244    tx_buffer[tx_wr_index]=c;
00036a 91e0 0362 	LDS  R30,_tx_wr_index
00036c e0f0      	LDI  R31,0
00036d 5cee      	SUBI R30,LOW(-_tx_buffer)
00036e 4ffc      	SBCI R31,HIGH(-_tx_buffer)
00036f 81a8      	LD   R26,Y
000370 83a0      	STD  Z+0,R26
                 ; 0000 0245    if (++tx_wr_index == TX_BUFFER_SIZE) tx_wr_index=0;
000371 91a0 0362 	LDS  R26,_tx_wr_index
000373 5faf      	SUBI R26,-LOW(1)
000374 93a0 0362 	STS  _tx_wr_index,R26
000376 33a0      	CPI  R26,LOW(0x30)
000377 f419      	BRNE _0x1C
000378 e0e0      	LDI  R30,LOW(0)
000379 93e0 0362 	STS  _tx_wr_index,R30
                 ; 0000 0246    ++tx_counter;
                 _0x1C:
00037b 91e0 0364 	LDS  R30,_tx_counter
00037d 5fef      	SUBI R30,-LOW(1)
00037e 93e0 0364 	STS  _tx_counter,R30
                 ; 0000 0247    }
                 ; 0000 0248 else
000380 c002      	RJMP _0x1D
                 _0x19:
                 ; 0000 0249    UDR=c;
000381 81e8      	LD   R30,Y
000382 b9ec      	OUT  0xC,R30
                 ; 0000 024A #asm("sei")
                 _0x1D:
000383 9478      	sei
                 ; 0000 024B }
000384 9621      	ADIW R28,1
000385 9508      	RET
                 ; .FEND
                 ;#pragma used-
                 ;#endif
                 ;
                 ;
                 ;
                 ;
                 ;
                 ;/////////////////
                 ;
                 ;
                 ;
                 ;
                 ;
                 ;
                 ;
                 ;
                 ;
                 ;
                 ;
                 ;///////////////////////MODBUS CODES /////////////////////////
                 ;
                 ;
                 ;
                 ;
                 ;
                 ;flash int wCRCTable[] = {
                 ;0X0000, 0XC0C1, 0XC181, 0X0140, 0XC301, 0X03C0, 0X0280, 0XC241,
                 ;0XC601, 0X06C0, 0X0780, 0XC741, 0X0500, 0XC5C1, 0XC481, 0X0440,
                 ;0XCC01, 0X0CC0, 0X0D80, 0XCD41, 0X0F00, 0XCFC1, 0XCE81, 0X0E40,
                 ;0X0A00, 0XCAC1, 0XCB81, 0X0B40, 0XC901, 0X09C0, 0X0880, 0XC841,
                 ;0XD801, 0X18C0, 0X1980, 0XD941, 0X1B00, 0XDBC1, 0XDA81, 0X1A40,
                 ;0X1E00, 0XDEC1, 0XDF81, 0X1F40, 0XDD01, 0X1DC0, 0X1C80, 0XDC41,
                 ;0X1400, 0XD4C1, 0XD581, 0X1540, 0XD701, 0X17C0, 0X1680, 0XD641,
                 ;0XD201, 0X12C0, 0X1380, 0XD341, 0X1100, 0XD1C1, 0XD081, 0X1040,
                 ;0XF001, 0X30C0, 0X3180, 0XF141, 0X3300, 0XF3C1, 0XF281, 0X3240,
                 ;0X3600, 0XF6C1, 0XF781, 0X3740, 0XF501, 0X35C0, 0X3480, 0XF441,
                 ;0X3C00, 0XFCC1, 0XFD81, 0X3D40, 0XFF01, 0X3FC0, 0X3E80, 0XFE41,
                 ;0XFA01, 0X3AC0, 0X3B80, 0XFB41, 0X3900, 0XF9C1, 0XF881, 0X3840,
                 ;0X2800, 0XE8C1, 0XE981, 0X2940, 0XEB01, 0X2BC0, 0X2A80, 0XEA41,
                 ;0XEE01, 0X2EC0, 0X2F80, 0XEF41, 0X2D00, 0XEDC1, 0XEC81, 0X2C40,
                 ;0XE401, 0X24C0, 0X2580, 0XE541, 0X2700, 0XE7C1, 0XE681, 0X2640,
                 ;0X2200, 0XE2C1, 0XE381, 0X2340, 0XE101, 0X21C0, 0X2080, 0XE041,
                 ;0XA001, 0X60C0, 0X6180, 0XA141, 0X6300, 0XA3C1, 0XA281, 0X6240,
                 ;0X6600, 0XA6C1, 0XA781, 0X6740, 0XA501, 0X65C0, 0X6480, 0XA441,
                 ;0X6C00, 0XACC1, 0XAD81, 0X6D40, 0XAF01, 0X6FC0, 0X6E80, 0XAE41,
                 ;0XAA01, 0X6AC0, 0X6B80, 0XAB41, 0X6900, 0XA9C1, 0XA881, 0X6840,
                 ;0X7800, 0XB8C1, 0XB981, 0X7940, 0XBB01, 0X7BC0, 0X7A80, 0XBA41,
                 ;0XBE01, 0X7EC0, 0X7F80, 0XBF41, 0X7D00, 0XBDC1, 0XBC81, 0X7C40,
                 ;0XB401, 0X74C0, 0X7580, 0XB541, 0X7700, 0XB7C1, 0XB681, 0X7640,
                 ;0X7200, 0XB2C1, 0XB381, 0X7340, 0XB101, 0X71C0, 0X7080, 0XB041,
                 ;0X5000, 0X90C1, 0X9181, 0X5140, 0X9301, 0X53C0, 0X5280, 0X9241,
                 ;0X9601, 0X56C0, 0X5780, 0X9741, 0X5500, 0X95C1, 0X9481, 0X5440,
                 ;0X9C01, 0X5CC0, 0X5D80, 0X9D41, 0X5F00, 0X9FC1, 0X9E81, 0X5E40,
                 ;0X5A00, 0X9AC1, 0X9B81, 0X5B40, 0X9901, 0X59C0, 0X5880, 0X9841,
                 ;0X8801, 0X48C0, 0X4980, 0X8941, 0X4B00, 0X8BC1, 0X8A81, 0X4A40,
                 ;0X4E00, 0X8EC1, 0X8F81, 0X4F40, 0X8D01, 0X4DC0, 0X4C80, 0X8C41,
                 ;0X4400, 0X84C1, 0X8581, 0X4540, 0X8701, 0X47C0, 0X4680, 0X8641,
                 ;0X8201, 0X42C0, 0X4380, 0X8341, 0X4100, 0X81C1, 0X8081, 0X4040 };
                 ;
                 ;unsigned int CRC16 (const char *nData, unsigned int wLength)
                 ; 0000 0288 {
                 _CRC16:
                 ; .FSTART _CRC16
                 ; 0000 0289 
                 ; 0000 028A 
                 ; 0000 028B char nTemp;
                 ; 0000 028C unsigned int wCRCWord = 0xFFFF;
                 ; 0000 028D 
                 ; 0000 028E    while (wLength--)
000386 93ba      	ST   -Y,R27
000387 93aa      	ST   -Y,R26
000388 940e 2fa0 	CALL __SAVELOCR4
                 ;	*nData -> Y+6
                 ;	wLength -> Y+4
                 ;	nTemp -> R17
                 ;	wCRCWord -> R18,R19
                +
00038a ef2f     +LDI R18 , LOW ( - 1 )
00038b ef3f     +LDI R19 , HIGH ( - 1 )
                 	__GETWRN 18,19,-1
                 _0x1E:
00038c 81ec      	LDD  R30,Y+4
00038d 81fd      	LDD  R31,Y+4+1
00038e 9731      	SBIW R30,1
00038f 83ec      	STD  Y+4,R30
000390 83fd      	STD  Y+4+1,R31
000391 9631      	ADIW R30,1
000392 f0a9      	BREQ _0x20
                 ; 0000 028F    {
                 ; 0000 0290       nTemp = *nData++ ^ wCRCWord;
000393 81ae      	LDD  R26,Y+6
000394 81bf      	LDD  R27,Y+6+1
000395 91ed      	LD   R30,X+
000396 83ae      	STD  Y+6,R26
000397 83bf      	STD  Y+6+1,R27
000398 27e2      	EOR  R30,R18
000399 2f1e      	MOV  R17,R30
                 ; 0000 0291       wCRCWord >>= 8;
00039a 2f23      	MOV  R18,R19
00039b 2733      	CLR  R19
                 ; 0000 0292       wCRCWord ^= wCRCTable[nTemp];
00039c e5a4      	LDI  R26,LOW(_wCRCTable*2)
00039d e0b0      	LDI  R27,HIGH(_wCRCTable*2)
00039e e0f0      	LDI  R31,0
00039f 0fee      	LSL  R30
0003a0 1fff      	ROL  R31
0003a1 0fea      	ADD  R30,R26
0003a2 1ffb      	ADC  R31,R27
0003a3 940e 2f26 	CALL __GETW1PF
                +
0003a5 272e     +EOR R18 , R30
0003a6 273f     +EOR R19 , R31
                 	__EORWRR 18,19,30,31
                 ; 0000 0293    }
0003a7 cfe4      	RJMP _0x1E
                 _0x20:
                 ; 0000 0294    return wCRCWord;
0003a8 01f9      	MOVW R30,R18
0003a9 940e 2fa7 	CALL __LOADLOCR4
0003ab 9628      	ADIW R28,8
0003ac 9508      	RET
                 ; 0000 0295 
                 ; 0000 0296 }
                 ; .FEND
                 ;
                 ;int mb_data[20];
                 ;int mb_inputdata[5];
                 ;//function  codes
                 ;#define mbreadholdingregisters  3
                 ;#define mbreadinputregisters    4
                 ;#define mb presetmultipleregisters 16
                 ;#define mbreportslaveid  17
                 ;
                 ;//error codes
                 ;#define mbillegalfunction 1
                 ;#define mbillegaldataaddress 2
                 ;#define mbillegaldatavalue 3
                 ;#define mbslavedevicefailure 4
                 ;#define mbacknowledge 5
                 ;#define mbslavedevicebusy 6
                 ;#define mbnegativeacknowledge 7
                 ;#define mbmemoryparityerror 8
                 ;
                 ;
                 ;
                 ;void mbreset()
                 ; 0000 02AD {
                 _mbreset:
                 ; .FSTART _mbreset
                 ; 0000 02AE 
                 ; 0000 02AF     rx_counter=0;
0003ad e0e0      	LDI  R30,LOW(0)
0003ae 93e0 0327 	STS  _rx_counter,R30
                 ; 0000 02B0     rx_rd_index=0;
0003b0 93e0 0326 	STS  _rx_rd_index,R30
                 ; 0000 02B1     rx_rd_index =0;
0003b2 93e0 0326 	STS  _rx_rd_index,R30
                 ; 0000 02B2     tx_counter =0;
0003b4 93e0 0364 	STS  _tx_counter,R30
                 ; 0000 02B3     tx_wr_index =0;
0003b6 93e0 0362 	STS  _tx_wr_index,R30
                 ; 0000 02B4     tx_rd_index =0;
0003b8 93e0 0363 	STS  _tx_rd_index,R30
                 ; 0000 02B5 }
0003ba 9508      	RET
                 ; .FEND
                 ;
                 ;
                 ;//map
                 ;//40001 - 8    process_Value
                 ;//40009-16   al-hi
                 ;//40017-24   al-lo
                 ;//40018-32    r-hi
                 ;//40033-40   r-lo
                 ;void mb_datatransfer()
                 ; 0000 02BF {
                 _mb_datatransfer:
                 ; .FSTART _mb_datatransfer
                 ; 0000 02C0 //set_latit,set_longitude,low_angle,high_angle,time_interval,target_time,time_elap,set_timezone;
                 ; 0000 02C1 
                 ; 0000 02C2 //holding register data(R/W)
                 ; 0000 02C3 mb_data[0]= day;
0003bb 2deb      	MOV  R30,R11
0003bc e0f0      	LDI  R31,0
0003bd 93e0 0365 	STS  _mb_data,R30
0003bf 93f0 0366 	STS  _mb_data+1,R31
                 ; 0000 02C4 mb_data[1] =month;
                +
0003c1 e6a7     +LDI R26 , LOW ( _mb_data + ( 2 ) )
0003c2 e0b3     +LDI R27 , HIGH ( _mb_data + ( 2 ) )
                 	__POINTW2MN _mb_data,2
0003c3 2dea      	MOV  R30,R10
0003c4 e0f0      	LDI  R31,0
0003c5 93ed      	ST   X+,R30
0003c6 93fc      	ST   X,R31
                 ; 0000 02C5 mb_data[2] = year;
                +
0003c7 e6a9     +LDI R26 , LOW ( _mb_data + ( 4 ) )
0003c8 e0b3     +LDI R27 , HIGH ( _mb_data + ( 4 ) )
                 	__POINTW2MN _mb_data,4
0003c9 2ded      	MOV  R30,R13
0003ca e0f0      	LDI  R31,0
0003cb 93ed      	ST   X+,R30
0003cc 93fc      	ST   X,R31
                 ; 0000 02C6 mb_data[3] = hour;
                +
0003cd e6ab     +LDI R26 , LOW ( _mb_data + ( 6 ) )
0003ce e0b3     +LDI R27 , HIGH ( _mb_data + ( 6 ) )
                 	__POINTW2MN _mb_data,6
0003cf 2de7      	MOV  R30,R7
0003d0 e0f0      	LDI  R31,0
0003d1 93ed      	ST   X+,R30
0003d2 93fc      	ST   X,R31
                 ; 0000 02C7 mb_data[4] =minute;
                +
0003d3 e6ad     +LDI R26 , LOW ( _mb_data + ( 8 ) )
0003d4 e0b3     +LDI R27 , HIGH ( _mb_data + ( 8 ) )
                 	__POINTW2MN _mb_data,8
0003d5 2de6      	MOV  R30,R6
0003d6 e0f0      	LDI  R31,0
0003d7 93ed      	ST   X+,R30
0003d8 93fc      	ST   X,R31
                 ; 0000 02C8 mb_data[5] = set_latit;
0003d9 91e0 02ca 	LDS  R30,_set_latit
0003db 91f0 02cb 	LDS  R31,_set_latit+1
                +
0003dd 93e0 036f+STS _mb_data + ( 10 ) , R30
0003df 93f0 0370+STS _mb_data + ( 10 ) + 1 , R31
                 	__PUTW1MN _mb_data,10
                 ; 0000 02C9 mb_data[6] = set_longitude;
0003e1 91e0 02cc 	LDS  R30,_set_longitude
0003e3 91f0 02cd 	LDS  R31,_set_longitude+1
                +
0003e5 93e0 0371+STS _mb_data + ( 12 ) , R30
0003e7 93f0 0372+STS _mb_data + ( 12 ) + 1 , R31
                 	__PUTW1MN _mb_data,12
                 ; 0000 02CA mb_data[7] = time_interval;
0003e9 91e0 02d2 	LDS  R30,_time_interval
0003eb 91f0 02d3 	LDS  R31,_time_interval+1
                +
0003ed 93e0 0373+STS _mb_data + ( 14 ) , R30
0003ef 93f0 0374+STS _mb_data + ( 14 ) + 1 , R31
                 	__PUTW1MN _mb_data,14
                 ; 0000 02CB mb_data[8] = set_timezone;
0003f1 91e0 02d8 	LDS  R30,_set_timezone
0003f3 91f0 02d9 	LDS  R31,_set_timezone+1
                +
0003f5 93e0 0375+STS _mb_data + ( 16 ) , R30
0003f7 93f0 0376+STS _mb_data + ( 16 ) + 1 , R31
                 	__PUTW1MN _mb_data,16
                 ; 0000 02CC mb_data[9] = set_width;
0003f9 91e0 0305 	LDS  R30,_set_width
0003fb 91f0 0306 	LDS  R31,_set_width+1
                +
0003fd 93e0 0377+STS _mb_data + ( 18 ) , R30
0003ff 93f0 0378+STS _mb_data + ( 18 ) + 1 , R31
                 	__PUTW1MN _mb_data,18
                 ; 0000 02CD mb_data[10] = set_distance;
000401 91e0 0303 	LDS  R30,_set_distance
000403 91f0 0304 	LDS  R31,_set_distance+1
                +
000405 93e0 0379+STS _mb_data + ( 20 ) , R30
000407 93f0 037a+STS _mb_data + ( 20 ) + 1 , R31
                 	__PUTW1MN _mb_data,20
                 ; 0000 02CE 
                 ; 0000 02CF //input data
                 ; 0000 02D0 mb_inputdata[0] = angle;
000409 91e0 02f3 	LDS  R30,_angle
00040b 91f0 02f4 	LDS  R31,_angle+1
00040d 93e0 038d 	STS  _mb_inputdata,R30
00040f 93f0 038e 	STS  _mb_inputdata+1,R31
                 ; 0000 02D1 mb_inputdata[1] = target_angle;
000411 91e0 0298 	LDS  R30,_target_angle
000413 91f0 0299 	LDS  R31,_target_angle+1
                +
000415 93e0 038f+STS _mb_inputdata + ( 2 ) , R30
000417 93f0 0390+STS _mb_inputdata + ( 2 ) + 1 , R31
                 	__PUTW1MN _mb_inputdata,2
                 ; 0000 02D2 mb_inputdata[2] = target_time/60;   //target time in hours
000419 91a0 02d4 	LDS  R26,_target_time
00041b 91b0 02d5 	LDS  R27,_target_time+1
00041d e3ec      	LDI  R30,LOW(60)
00041e e0f0      	LDI  R31,HIGH(60)
00041f 940e 2e9e 	CALL __DIVW21
                +
000421 93e0 0391+STS _mb_inputdata + ( 4 ) , R30
000423 93f0 0392+STS _mb_inputdata + ( 4 ) + 1 , R31
                 	__PUTW1MN _mb_inputdata,4
                 ; 0000 02D3 mb_inputdata[3] = target_time%60;   //target time in minutes
000425 91a0 02d4 	LDS  R26,_target_time
000427 91b0 02d5 	LDS  R27,_target_time+1
000429 e3ec      	LDI  R30,LOW(60)
00042a e0f0      	LDI  R31,HIGH(60)
00042b 940e 2ed0 	CALL __MODW21
                +
00042d 93e0 0393+STS _mb_inputdata + ( 6 ) , R30
00042f 93f0 0394+STS _mb_inputdata + ( 6 ) + 1 , R31
                 	__PUTW1MN _mb_inputdata,6
                 ; 0000 02D4 }
000431 9508      	RET
                 ; .FEND
                 ;
                 ;
                 ;//used for function code 06. write single register.
                 ;//checks the address to be written,if valid,writes to the address and returns 0,else returns 1
                 ;short int mblimitcheck(int address,int value)
                 ; 0000 02DA {
                 _mblimitcheck:
                 ; .FSTART _mblimitcheck
                 ; 0000 02DB //int min[8],max[8],i;
                 ; 0000 02DC short int ok_st=1;
                 ; 0000 02DD 
                 ; 0000 02DE return (ok_st);
000432 93ba      	ST   -Y,R27
000433 93aa      	ST   -Y,R26
000434 931a      	ST   -Y,R17
000435 930a      	ST   -Y,R16
                 ;	address -> Y+4
                 ;	value -> Y+2
                 ;	ok_st -> R16,R17
                +
000436 e001     +LDI R16 , LOW ( 1 )
000437 e010     +LDI R17 , HIGH ( 1 )
                 	__GETWRN 16,17,1
000438 01f8      	MOVW R30,R16
000439 8119      	LDD  R17,Y+1
00043a 8108      	LDD  R16,Y+0
00043b 9626      	ADIW R28,6
00043c 9508      	RET
                 ; 0000 02DF }
                 ; .FEND
                 ;
                 ;
                 ;void check_mbreceived()
                 ; 0000 02E3 {
                 _check_mbreceived:
                 ; .FSTART _check_mbreceived
                 ; 0000 02E4 unsigned int mbaddress;
                 ; 0000 02E5 int mbamount;
                 ; 0000 02E6 unsigned char mbtransmit_data[40];        //transmit buffer max. 32 nytes or 16 registers
                 ; 0000 02E7 short int error_code =0;
                 ; 0000 02E8 unsigned int i,j,k;
                 ; 0000 02E9 //mb_dir =0;  //set 485 to transmit data
                 ; 0000 02EA //check function code
                 ; 0000 02EB //printf(" test sending");
                 ; 0000 02EC switch (mbreceived_data[1])
00043d 97ae      	SBIW R28,46
00043e 940e 2f9e 	CALL __SAVELOCR6
                 ;	mbaddress -> R16,R17
                 ;	mbamount -> R18,R19
                 ;	mbtransmit_data -> Y+12
                 ;	error_code -> R20,R21
                 ;	i -> Y+10
                 ;	j -> Y+8
                 ;	k -> Y+6
                +
000440 e040     +LDI R20 , LOW ( 0 )
000441 e050     +LDI R21 , HIGH ( 0 )
                 	__GETWRN 20,21,0
                +
000442 91e0 0329+LDS R30 , _mbreceived_data + ( 1 )
                 	__GETB1MN _mbreceived_data,1
000444 e0f0      	LDI  R31,0
                 ; 0000 02ED             {
                 ; 0000 02EE             case 0x03:
000445 30e3      	CPI  R30,LOW(0x3)
000446 e0a0      	LDI  R26,HIGH(0x3)
000447 07fa      	CPC  R31,R26
000448 f009      	BREQ PC+2
000449 c0c8      	RJMP _0x24
                 ; 0000 02EF  //                mbaddress = (mbreceived_data[2]*256) + mbreceived_data[3];      //start address;
                 ; 0000 02F0                  mbaddress = mbreceived_data[3];      //start address;
                +
00044a 9100 032b+LDS R16 , _mbreceived_data + ( 3 )
                 	__GETBRMN 16,_mbreceived_data,3
00044c 2711      	CLR  R17
                 ; 0000 02F1                  if (mbaddress+1 >=58)
00044d 01d8      	MOVW R26,R16
00044e 9611      	ADIW R26,1
00044f 97da      	SBIW R26,58
000450 f018      	BRLO _0x25
                 ; 0000 02F2                     {
                 ; 0000 02F3                     error_code = mbillegaldataaddress;
                +
000451 e042     +LDI R20 , LOW ( 2 )
000452 e050     +LDI R21 , HIGH ( 2 )
                 	__GETWRN 20,21,2
                 ; 0000 02F4                     break;
000453 c21a      	RJMP _0x23
                 ; 0000 02F5                     }
                 ; 0000 02F6 //                 mbamount = (mbreceived_data[4] *256) +mbreceived_data[5];      //requested amount
                 ; 0000 02F7                  mbamount = mbreceived_data[5];      //requested amount
                 _0x25:
                +
000454 9120 032d+LDS R18 , _mbreceived_data + ( 5 )
                 	__GETBRMN 18,_mbreceived_data,5
000456 2733      	CLR  R19
                 ; 0000 02F8                  if ((mbaddress+mbamount) > 58 || mbamount >16)
000457 01d9      	MOVW R26,R18
000458 0fa0      	ADD  R26,R16
000459 1fb1      	ADC  R27,R17
00045a 97db      	SBIW R26,59
00045b f420      	BRSH _0x27
                +
00045c 3121     +CPI R18 , LOW ( 17 )
00045d e0e0     +LDI R30 , HIGH ( 17 )
00045e 073e     +CPC R19 , R30
                 	__CPWRN 18,19,17
00045f f01c      	BRLT _0x26
                 _0x27:
                 ; 0000 02F9                     {
                 ; 0000 02FA                     error_code = mbillegaldatavalue;         //requested data overflow
                +
000460 e043     +LDI R20 , LOW ( 3 )
000461 e050     +LDI R21 , HIGH ( 3 )
                 	__GETWRN 20,21,3
                 ; 0000 02FB                     break;
000462 c20b      	RJMP _0x23
                 ; 0000 02FC                     }
                 ; 0000 02FD                     i = CRC16(rx_buffer,6);
                 _0x26:
000463 e1e1      	LDI  R30,LOW(_rx_buffer)
000464 e0f3      	LDI  R31,HIGH(_rx_buffer)
000465 93fa      	ST   -Y,R31
000466 93ea      	ST   -Y,R30
000467 e0a6      	LDI  R26,LOW(6)
000468 e0b0      	LDI  R27,0
000469 df1c      	RCALL _CRC16
00046a 87ea      	STD  Y+10,R30
00046b 87fb      	STD  Y+10+1,R31
                 ; 0000 02FE 
                 ; 0000 02FF                     if((rx_buffer[6] != i%256) || (rx_buffer[7] != i/256)  )
                +
00046c 91a0 0317+LDS R26 , _rx_buffer + ( 6 )
                 	__GETB2MN _rx_buffer,6
00046e 70f0      	ANDI R31,HIGH(0xFF)
00046f e0b0      	LDI  R27,0
000470 17ea      	CP   R30,R26
000471 07fb      	CPC  R31,R27
000472 f441      	BRNE _0x2A
                +
000473 91a0 0318+LDS R26 , _rx_buffer + ( 7 )
                 	__GETB2MN _rx_buffer,7
000475 85eb      	LDD  R30,Y+11
000476 70f0      	ANDI R31,HIGH(0x0)
000477 e0b0      	LDI  R27,0
000478 17ea      	CP   R30,R26
000479 07fb      	CPC  R31,R27
00047a f019      	BREQ _0x29
                 _0x2A:
                 ; 0000 0300                     {
                 ; 0000 0301                     error_code = mbillegaldatavalue;      //CRC not matching
                +
00047b e043     +LDI R20 , LOW ( 3 )
00047c e050     +LDI R21 , HIGH ( 3 )
                 	__GETWRN 20,21,3
                 ; 0000 0302                     break;
00047d c1f0      	RJMP _0x23
                 ; 0000 0303                     }
                 ; 0000 0304                   //valid request so form mb frame accordingly
                 ; 0000 0305                   error_code =0;       //
                 _0x29:
                +
00047e e040     +LDI R20 , LOW ( 0 )
00047f e050     +LDI R21 , HIGH ( 0 )
                 	__GETWRN 20,21,0
                 ; 0000 0306                     mb_dir =1;      //transmit
000480 9a94      	SBI  0x12,4
                 ; 0000 0307 //                  mbamount =8;                  //test
                 ; 0000 0308                   mbtransmit_data[0] = mbreceived_data[0];      //slave id
000481 91e0 0328 	LDS  R30,_mbreceived_data
000483 87ec      	STD  Y+12,R30
                 ; 0000 0309                   mbtransmit_data[1] = mbreceived_data[1];       //function code
                +
000484 91e0 0329+LDS R30 , _mbreceived_data + ( 1 )
                 	__GETB1MN _mbreceived_data,1
000486 87ed      	STD  Y+13,R30
                 ; 0000 030A                   mbtransmit_data[2] = (char)mbamount *2;             //SIZE OF DATA IN BYTES
000487 2fe2      	MOV  R30,R18
000488 0fee      	LSL  R30
000489 87ee      	STD  Y+14,R30
                 ; 0000 030B                     j=3;
00048a e0e3      	LDI  R30,LOW(3)
00048b e0f0      	LDI  R31,HIGH(3)
00048c 87e8      	STD  Y+8,R30
00048d 87f9      	STD  Y+8+1,R31
                 ; 0000 030C 
                 ; 0000 030D //                    mb_dir =0;  //set to transmit
                 ; 0000 030E                     delay_ms(2);
00048e e0a2      	LDI  R26,LOW(2)
00048f e0b0      	LDI  R27,0
000490 940e 2c4f 	CALL _delay_ms
                 ; 0000 030F                     for (i=0;i<mbamount;i++)               //transfer data
000492 e0e0      	LDI  R30,LOW(0)
000493 87ea      	STD  Y+10,R30
000494 87eb      	STD  Y+10+1,R30
                 _0x2F:
000495 85aa      	LDD  R26,Y+10
000496 85bb      	LDD  R27,Y+10+1
000497 17a2      	CP   R26,R18
000498 07b3      	CPC  R27,R19
000499 f5c8      	BRSH _0x30
                 ; 0000 0310                         {
                 ; 0000 0311 //                        mbtransmit_data[j] = (char)(mb_data[mbaddress+i]/256);
                 ; 0000 0312                          mbtransmit_data[j] = (short int)((mb_data[mbaddress+i]>>8)& 0X00ff);
00049a 85e8      	LDD  R30,Y+8
00049b 85f9      	LDD  R31,Y+8+1
00049c 01de      	MOVW R26,R28
00049d 961c      	ADIW R26,12
00049e 0fea      	ADD  R30,R26
00049f 1ffb      	ADC  R31,R27
0004a0 010f      	MOVW R0,R30
0004a1 85ea      	LDD  R30,Y+10
0004a2 85fb      	LDD  R31,Y+10+1
0004a3 0fe0      	ADD  R30,R16
0004a4 1ff1      	ADC  R31,R17
0004a5 e6a5      	LDI  R26,LOW(_mb_data)
0004a6 e0b3      	LDI  R27,HIGH(_mb_data)
0004a7 0fee      	LSL  R30
0004a8 1fff      	ROL  R31
0004a9 0fae      	ADD  R26,R30
0004aa 1fbf      	ADC  R27,R31
0004ab 940e 2f13 	CALL __GETW1P
0004ad 940e 2e4a 	CALL __ASRW8
0004af 01d0      	MOVW R26,R0
0004b0 93ec      	ST   X,R30
                 ; 0000 0313 
                 ; 0000 0314                         j++;
0004b1 85e8      	LDD  R30,Y+8
0004b2 85f9      	LDD  R31,Y+8+1
0004b3 9631      	ADIW R30,1
0004b4 87e8      	STD  Y+8,R30
0004b5 87f9      	STD  Y+8+1,R31
                 ; 0000 0315 //                        mbtransmit_data[j] = (char)(mb_data[mbaddress+i]%256);
                 ; 0000 0316                          mbtransmit_data[j] = (short int)(mb_data[mbaddress+i]& 0X00ff);
0004b6 01de      	MOVW R26,R28
0004b7 961c      	ADIW R26,12
0004b8 0fea      	ADD  R30,R26
0004b9 1ffb      	ADC  R31,R27
0004ba 010f      	MOVW R0,R30
0004bb 85ea      	LDD  R30,Y+10
0004bc 85fb      	LDD  R31,Y+10+1
0004bd 0fe0      	ADD  R30,R16
0004be 1ff1      	ADC  R31,R17
0004bf e6a5      	LDI  R26,LOW(_mb_data)
0004c0 e0b3      	LDI  R27,HIGH(_mb_data)
0004c1 0fee      	LSL  R30
0004c2 1fff      	ROL  R31
0004c3 0fae      	ADD  R26,R30
0004c4 1fbf      	ADC  R27,R31
0004c5 91ec      	LD   R30,X
0004c6 01d0      	MOVW R26,R0
0004c7 93ec      	ST   X,R30
                 ; 0000 0317 
                 ; 0000 0318                         j++;
0004c8 85e8      	LDD  R30,Y+8
0004c9 85f9      	LDD  R31,Y+8+1
0004ca 9631      	ADIW R30,1
0004cb 87e8      	STD  Y+8,R30
0004cc 87f9      	STD  Y+8+1,R31
                 ; 0000 0319                         }
0004cd 85ea      	LDD  R30,Y+10
0004ce 85fb      	LDD  R31,Y+10+1
0004cf 9631      	ADIW R30,1
0004d0 87ea      	STD  Y+10,R30
0004d1 87fb      	STD  Y+10+1,R31
0004d2 cfc2      	RJMP _0x2F
                 _0x30:
                 ; 0000 031A                     i= CRC16(mbtransmit_data,(mbamount*2)+3);
0004d3 01fe      	MOVW R30,R28
0004d4 963c      	ADIW R30,12
0004d5 93fa      	ST   -Y,R31
0004d6 93ea      	ST   -Y,R30
0004d7 01f9      	MOVW R30,R18
0004d8 0fee      	LSL  R30
0004d9 1fff      	ROL  R31
0004da 9633      	ADIW R30,3
0004db 01df      	MOVW R26,R30
0004dc dea9      	RCALL _CRC16
0004dd 87ea      	STD  Y+10,R30
0004de 87fb      	STD  Y+10+1,R31
                 ; 0000 031B                     mbtransmit_data[j] = i%256;
0004df 85e8      	LDD  R30,Y+8
0004e0 85f9      	LDD  R31,Y+8+1
0004e1 01de      	MOVW R26,R28
0004e2 961c      	ADIW R26,12
0004e3 0fae      	ADD  R26,R30
0004e4 1fbf      	ADC  R27,R31
0004e5 85ea      	LDD  R30,Y+10
0004e6 93ec      	ST   X,R30
                 ; 0000 031C                     mbtransmit_data[j+1]=i/256;
0004e7 85e8      	LDD  R30,Y+8
0004e8 85f9      	LDD  R31,Y+8+1
0004e9 9631      	ADIW R30,1
0004ea 01de      	MOVW R26,R28
0004eb 961c      	ADIW R26,12
0004ec 0fae      	ADD  R26,R30
0004ed 1fbf      	ADC  R27,R31
0004ee 85eb      	LDD  R30,Y+11
0004ef 93ec      	ST   X,R30
                 ; 0000 031D                     #asm("cli")
0004f0 94f8      	cli
                 ; 0000 031E 
                 ; 0000 031F //                    mb_dir =0;//set to transmit data
                 ; 0000 0320                     for (i=0;i<mbtransmit_data[2]+4+1;i++)
0004f1 e0e0      	LDI  R30,LOW(0)
0004f2 87ea      	STD  Y+10,R30
0004f3 87eb      	STD  Y+10+1,R30
                 _0x32:
0004f4 85ee      	LDD  R30,Y+14
0004f5 e0f0      	LDI  R31,0
0004f6 9635      	ADIW R30,5
0004f7 85aa      	LDD  R26,Y+10
0004f8 85bb      	LDD  R27,Y+10+1
0004f9 17ae      	CP   R26,R30
0004fa 07bf      	CPC  R27,R31
0004fb f470      	BRSH _0x33
                 ; 0000 0321                         {
                 ; 0000 0322                         putchar(mbtransmit_data[i]);
0004fc 85ea      	LDD  R30,Y+10
0004fd 85fb      	LDD  R31,Y+10+1
0004fe 01de      	MOVW R26,R28
0004ff 961c      	ADIW R26,12
000500 0fae      	ADD  R26,R30
000501 1fbf      	ADC  R27,R31
000502 91ac      	LD   R26,X
000503 de5a      	RCALL _putchar
                 ; 0000 0323                         }
000504 85ea      	LDD  R30,Y+10
000505 85fb      	LDD  R31,Y+10+1
000506 9631      	ADIW R30,1
000507 87ea      	STD  Y+10,R30
000508 87fb      	STD  Y+10+1,R31
000509 cfea      	RJMP _0x32
                 _0x33:
                 ; 0000 0324 
                 ; 0000 0325 //                     mbreset();
                 ; 0000 0326                     #asm("sei")
00050a 9478      	sei
                 ; 0000 0327                     delay_ms(50);      //wait till all data transmitted need time to transmit max 36 bytes @9600
00050b e3a2      	LDI  R26,LOW(50)
00050c e0b0      	LDI  R27,0
00050d 940e 2c4f 	CALL _delay_ms
                 ; 0000 0328                     mb_dir =0;   //recieve
00050f 9894      	CBI  0x12,4
                 ; 0000 0329                     mbreset();
000510 de9c      	RCALL _mbreset
                 ; 0000 032A                     break;
000511 c15c      	RJMP _0x23
                 ; 0000 032B 
                 ; 0000 032C 
                 ; 0000 032D             case 0x04:     //read input registers (30xxx)
                 _0x24:
000512 30e4      	CPI  R30,LOW(0x4)
000513 e0a0      	LDI  R26,HIGH(0x4)
000514 07fa      	CPC  R31,R26
000515 f009      	BREQ PC+2
000516 c0c8      	RJMP _0x36
                 ; 0000 032E                      //                mbaddress = (mbreceived_data[2]*256) + mbreceived_data[3];      //start address;
                 ; 0000 032F                  mbaddress = mbreceived_data[3];      //start address; 30001
                +
000517 9100 032b+LDS R16 , _mbreceived_data + ( 3 )
                 	__GETBRMN 16,_mbreceived_data,3
000519 2711      	CLR  R17
                 ; 0000 0330                  if (mbaddress+1 >=21)
00051a 01d8      	MOVW R26,R16
00051b 9611      	ADIW R26,1
00051c 9755      	SBIW R26,21
00051d f018      	BRLO _0x37
                 ; 0000 0331                     {
                 ; 0000 0332                     error_code = mbillegaldataaddress;
                +
00051e e042     +LDI R20 , LOW ( 2 )
00051f e050     +LDI R21 , HIGH ( 2 )
                 	__GETWRN 20,21,2
                 ; 0000 0333                     break;
000520 c14d      	RJMP _0x23
                 ; 0000 0334                     }
                 ; 0000 0335 //                 mbamount = (mbreceived_data[4] *256) +mbreceived_data[5];      //requested amount
                 ; 0000 0336                  mbamount = mbreceived_data[5];      //requested amount
                 _0x37:
                +
000521 9120 032d+LDS R18 , _mbreceived_data + ( 5 )
                 	__GETBRMN 18,_mbreceived_data,5
000523 2733      	CLR  R19
                 ; 0000 0337                  if ((mbaddress+mbamount) > 20 || mbamount >16)
000524 01d9      	MOVW R26,R18
000525 0fa0      	ADD  R26,R16
000526 1fb1      	ADC  R27,R17
000527 9755      	SBIW R26,21
000528 f420      	BRSH _0x39
                +
000529 3121     +CPI R18 , LOW ( 17 )
00052a e0e0     +LDI R30 , HIGH ( 17 )
00052b 073e     +CPC R19 , R30
                 	__CPWRN 18,19,17
00052c f01c      	BRLT _0x38
                 _0x39:
                 ; 0000 0338                     {
                 ; 0000 0339                     error_code = mbillegaldatavalue;         //requested data overflow
                +
00052d e043     +LDI R20 , LOW ( 3 )
00052e e050     +LDI R21 , HIGH ( 3 )
                 	__GETWRN 20,21,3
                 ; 0000 033A                     break;
00052f c13e      	RJMP _0x23
                 ; 0000 033B                     }
                 ; 0000 033C                     i = CRC16(rx_buffer,6);
                 _0x38:
000530 e1e1      	LDI  R30,LOW(_rx_buffer)
000531 e0f3      	LDI  R31,HIGH(_rx_buffer)
000532 93fa      	ST   -Y,R31
000533 93ea      	ST   -Y,R30
000534 e0a6      	LDI  R26,LOW(6)
000535 e0b0      	LDI  R27,0
000536 de4f      	RCALL _CRC16
000537 87ea      	STD  Y+10,R30
000538 87fb      	STD  Y+10+1,R31
                 ; 0000 033D 
                 ; 0000 033E                     if((rx_buffer[6] != i%256) || (rx_buffer[7] != i/256)  )
                +
000539 91a0 0317+LDS R26 , _rx_buffer + ( 6 )
                 	__GETB2MN _rx_buffer,6
00053b 70f0      	ANDI R31,HIGH(0xFF)
00053c e0b0      	LDI  R27,0
00053d 17ea      	CP   R30,R26
00053e 07fb      	CPC  R31,R27
00053f f441      	BRNE _0x3C
                +
000540 91a0 0318+LDS R26 , _rx_buffer + ( 7 )
                 	__GETB2MN _rx_buffer,7
000542 85eb      	LDD  R30,Y+11
000543 70f0      	ANDI R31,HIGH(0x0)
000544 e0b0      	LDI  R27,0
000545 17ea      	CP   R30,R26
000546 07fb      	CPC  R31,R27
000547 f019      	BREQ _0x3B
                 _0x3C:
                 ; 0000 033F                     {
                 ; 0000 0340                     error_code = mbillegaldatavalue;      //CRC not matching
                +
000548 e043     +LDI R20 , LOW ( 3 )
000549 e050     +LDI R21 , HIGH ( 3 )
                 	__GETWRN 20,21,3
                 ; 0000 0341                     break;
00054a c123      	RJMP _0x23
                 ; 0000 0342                     }
                 ; 0000 0343 
                 ; 0000 0344                   //valid request so form mb frame accordingly
                 ; 0000 0345                   error_code =0;       //
                 _0x3B:
                +
00054b e040     +LDI R20 , LOW ( 0 )
00054c e050     +LDI R21 , HIGH ( 0 )
                 	__GETWRN 20,21,0
                 ; 0000 0346                     mb_dir =1;      //transmit
00054d 9a94      	SBI  0x12,4
                 ; 0000 0347 //                  mbamount =8;                  //test
                 ; 0000 0348                   mbtransmit_data[0] = mbreceived_data[0];      //slave id
00054e 91e0 0328 	LDS  R30,_mbreceived_data
000550 87ec      	STD  Y+12,R30
                 ; 0000 0349                   mbtransmit_data[1] = mbreceived_data[1];       //function code
                +
000551 91e0 0329+LDS R30 , _mbreceived_data + ( 1 )
                 	__GETB1MN _mbreceived_data,1
000553 87ed      	STD  Y+13,R30
                 ; 0000 034A                   mbtransmit_data[2] = (char)mbamount *2;             //SIZE OF DATA IN BYTES
000554 2fe2      	MOV  R30,R18
000555 0fee      	LSL  R30
000556 87ee      	STD  Y+14,R30
                 ; 0000 034B                     j=3;
000557 e0e3      	LDI  R30,LOW(3)
000558 e0f0      	LDI  R31,HIGH(3)
000559 87e8      	STD  Y+8,R30
00055a 87f9      	STD  Y+8+1,R31
                 ; 0000 034C 
                 ; 0000 034D //                    mb_dir =0;  //set to transmit
                 ; 0000 034E                     delay_ms(2);
00055b e0a2      	LDI  R26,LOW(2)
00055c e0b0      	LDI  R27,0
00055d 940e 2c4f 	CALL _delay_ms
                 ; 0000 034F                     for (i=0;i<mbamount;i++)               //transfer data
00055f e0e0      	LDI  R30,LOW(0)
000560 87ea      	STD  Y+10,R30
000561 87eb      	STD  Y+10+1,R30
                 _0x41:
000562 85aa      	LDD  R26,Y+10
000563 85bb      	LDD  R27,Y+10+1
000564 17a2      	CP   R26,R18
000565 07b3      	CPC  R27,R19
000566 f5c8      	BRSH _0x42
                 ; 0000 0350                         {
                 ; 0000 0351 //                        mbtransmit_data[j] = (char)(mb_inputdata[mbaddress+i]/256);
                 ; 0000 0352                          mbtransmit_data[j] = (short int)((mb_inputdata[mbaddress+i]>>8)& 0X00ff);
000567 85e8      	LDD  R30,Y+8
000568 85f9      	LDD  R31,Y+8+1
000569 01de      	MOVW R26,R28
00056a 961c      	ADIW R26,12
00056b 0fea      	ADD  R30,R26
00056c 1ffb      	ADC  R31,R27
00056d 010f      	MOVW R0,R30
00056e 85ea      	LDD  R30,Y+10
00056f 85fb      	LDD  R31,Y+10+1
000570 0fe0      	ADD  R30,R16
000571 1ff1      	ADC  R31,R17
000572 e8ad      	LDI  R26,LOW(_mb_inputdata)
000573 e0b3      	LDI  R27,HIGH(_mb_inputdata)
000574 0fee      	LSL  R30
000575 1fff      	ROL  R31
000576 0fae      	ADD  R26,R30
000577 1fbf      	ADC  R27,R31
000578 940e 2f13 	CALL __GETW1P
00057a 940e 2e4a 	CALL __ASRW8
00057c 01d0      	MOVW R26,R0
00057d 93ec      	ST   X,R30
                 ; 0000 0353                         j++;
00057e 85e8      	LDD  R30,Y+8
00057f 85f9      	LDD  R31,Y+8+1
000580 9631      	ADIW R30,1
000581 87e8      	STD  Y+8,R30
000582 87f9      	STD  Y+8+1,R31
                 ; 0000 0354 //                        mbtransmit_data[j] = (char)(mb_inputdata[mbaddress+i]%256);
                 ; 0000 0355                          mbtransmit_data[j] = (short int)(mb_inputdata[mbaddress+i]& 0X00ff);
000583 01de      	MOVW R26,R28
000584 961c      	ADIW R26,12
000585 0fea      	ADD  R30,R26
000586 1ffb      	ADC  R31,R27
000587 010f      	MOVW R0,R30
000588 85ea      	LDD  R30,Y+10
000589 85fb      	LDD  R31,Y+10+1
00058a 0fe0      	ADD  R30,R16
00058b 1ff1      	ADC  R31,R17
00058c e8ad      	LDI  R26,LOW(_mb_inputdata)
00058d e0b3      	LDI  R27,HIGH(_mb_inputdata)
00058e 0fee      	LSL  R30
00058f 1fff      	ROL  R31
000590 0fae      	ADD  R26,R30
000591 1fbf      	ADC  R27,R31
000592 91ec      	LD   R30,X
000593 01d0      	MOVW R26,R0
000594 93ec      	ST   X,R30
                 ; 0000 0356                         j++;
000595 85e8      	LDD  R30,Y+8
000596 85f9      	LDD  R31,Y+8+1
000597 9631      	ADIW R30,1
000598 87e8      	STD  Y+8,R30
000599 87f9      	STD  Y+8+1,R31
                 ; 0000 0357                         }
00059a 85ea      	LDD  R30,Y+10
00059b 85fb      	LDD  R31,Y+10+1
00059c 9631      	ADIW R30,1
00059d 87ea      	STD  Y+10,R30
00059e 87fb      	STD  Y+10+1,R31
00059f cfc2      	RJMP _0x41
                 _0x42:
                 ; 0000 0358                     i= CRC16(mbtransmit_data,(mbamount*2)+3);
0005a0 01fe      	MOVW R30,R28
0005a1 963c      	ADIW R30,12
0005a2 93fa      	ST   -Y,R31
0005a3 93ea      	ST   -Y,R30
0005a4 01f9      	MOVW R30,R18
0005a5 0fee      	LSL  R30
0005a6 1fff      	ROL  R31
0005a7 9633      	ADIW R30,3
0005a8 01df      	MOVW R26,R30
0005a9 dddc      	RCALL _CRC16
0005aa 87ea      	STD  Y+10,R30
0005ab 87fb      	STD  Y+10+1,R31
                 ; 0000 0359                     mbtransmit_data[j] = i%256;
0005ac 85e8      	LDD  R30,Y+8
0005ad 85f9      	LDD  R31,Y+8+1
0005ae 01de      	MOVW R26,R28
0005af 961c      	ADIW R26,12
0005b0 0fae      	ADD  R26,R30
0005b1 1fbf      	ADC  R27,R31
0005b2 85ea      	LDD  R30,Y+10
0005b3 93ec      	ST   X,R30
                 ; 0000 035A                     mbtransmit_data[j+1]=i/256;
0005b4 85e8      	LDD  R30,Y+8
0005b5 85f9      	LDD  R31,Y+8+1
0005b6 9631      	ADIW R30,1
0005b7 01de      	MOVW R26,R28
0005b8 961c      	ADIW R26,12
0005b9 0fae      	ADD  R26,R30
0005ba 1fbf      	ADC  R27,R31
0005bb 85eb      	LDD  R30,Y+11
0005bc 93ec      	ST   X,R30
                 ; 0000 035B                     #asm("cli")
0005bd 94f8      	cli
                 ; 0000 035C 
                 ; 0000 035D //                    mb_dir =0;//set to transmit data
                 ; 0000 035E                     for (i=0;i<mbtransmit_data[2]+4+1;i++)
0005be e0e0      	LDI  R30,LOW(0)
0005bf 87ea      	STD  Y+10,R30
0005c0 87eb      	STD  Y+10+1,R30
                 _0x44:
0005c1 85ee      	LDD  R30,Y+14
0005c2 e0f0      	LDI  R31,0
0005c3 9635      	ADIW R30,5
0005c4 85aa      	LDD  R26,Y+10
0005c5 85bb      	LDD  R27,Y+10+1
0005c6 17ae      	CP   R26,R30
0005c7 07bf      	CPC  R27,R31
0005c8 f470      	BRSH _0x45
                 ; 0000 035F                         {
                 ; 0000 0360                         putchar(mbtransmit_data[i]);
0005c9 85ea      	LDD  R30,Y+10
0005ca 85fb      	LDD  R31,Y+10+1
0005cb 01de      	MOVW R26,R28
0005cc 961c      	ADIW R26,12
0005cd 0fae      	ADD  R26,R30
0005ce 1fbf      	ADC  R27,R31
0005cf 91ac      	LD   R26,X
0005d0 dd8d      	RCALL _putchar
                 ; 0000 0361                         }
0005d1 85ea      	LDD  R30,Y+10
0005d2 85fb      	LDD  R31,Y+10+1
0005d3 9631      	ADIW R30,1
0005d4 87ea      	STD  Y+10,R30
0005d5 87fb      	STD  Y+10+1,R31
0005d6 cfea      	RJMP _0x44
                 _0x45:
                 ; 0000 0362 
                 ; 0000 0363 //                     mbreset();
                 ; 0000 0364                     #asm("sei")
0005d7 9478      	sei
                 ; 0000 0365                     delay_ms(50);      //wait till all data transmitted need time to transmit max 36 bytes @9600
0005d8 e3a2      	LDI  R26,LOW(50)
0005d9 e0b0      	LDI  R27,0
0005da 940e 2c4f 	CALL _delay_ms
                 ; 0000 0366                     mb_dir =0;   //recieve
0005dc 9894      	CBI  0x12,4
                 ; 0000 0367                     mbreset();
0005dd ddcf      	RCALL _mbreset
                 ; 0000 0368 
                 ; 0000 0369 
                 ; 0000 036A 
                 ; 0000 036B                     break;
0005de c08f      	RJMP _0x23
                 ; 0000 036C 
                 ; 0000 036D 
                 ; 0000 036E 
                 ; 0000 036F             //Preset Single Register
                 ; 0000 0370             case 0x06:
                 _0x36:
0005df 30e6      	CPI  R30,LOW(0x6)
0005e0 e0a0      	LDI  R26,HIGH(0x6)
0005e1 07fa      	CPC  R31,R26
0005e2 f009      	BREQ PC+2
0005e3 c088      	RJMP _0x59
                 ; 0000 0371                  mbaddress = mbreceived_data[3];      //start address;
                +
0005e4 9100 032b+LDS R16 , _mbreceived_data + ( 3 )
                 	__GETBRMN 16,_mbreceived_data,3
0005e6 2711      	CLR  R17
                 ; 0000 0372                  if (mbaddress+1 > 58)
0005e7 01d8      	MOVW R26,R16
0005e8 9611      	ADIW R26,1
0005e9 97db      	SBIW R26,59
0005ea f018      	BRLO _0x49
                 ; 0000 0373                     {
                 ; 0000 0374                     error_code = mbillegaldataaddress;
                +
0005eb e042     +LDI R20 , LOW ( 2 )
0005ec e050     +LDI R21 , HIGH ( 2 )
                 	__GETWRN 20,21,2
                 ; 0000 0375                     break;
0005ed c080      	RJMP _0x23
                 ; 0000 0376                     }
                 ; 0000 0377                  mbamount = (mbreceived_data[4] *256) +mbreceived_data[5];      //requested amount
                 _0x49:
                +
0005ee 91a0 032c+LDS R26 , _mbreceived_data + ( 4 )
                 	__GETB2MN _mbreceived_data,4
0005f0 e0b0      	LDI  R27,0
0005f1 e0e0      	LDI  R30,LOW(256)
0005f2 e0f1      	LDI  R31,HIGH(256)
0005f3 940e 2e81 	CALL __MULW12
0005f5 01df      	MOVW R26,R30
                +
0005f6 91e0 032d+LDS R30 , _mbreceived_data + ( 5 )
                 	__GETB1MN _mbreceived_data,5
0005f8 e0f0      	LDI  R31,0
0005f9 0fea      	ADD  R30,R26
0005fa 1ffb      	ADC  R31,R27
0005fb 019f      	MOVW R18,R30
                 ; 0000 0378 
                 ; 0000 0379                  if (mbamount < -1999 || mbamount >9999)
                +
0005fc 3321     +CPI R18 , LOW ( - 1999 )
0005fd efe8     +LDI R30 , HIGH ( - 1999 )
0005fe 073e     +CPC R19 , R30
                 	__CPWRN 18,19,-1999
0005ff f024      	BRLT _0x4B
                +
000600 3120     +CPI R18 , LOW ( 10000 )
000601 e2e7     +LDI R30 , HIGH ( 10000 )
000602 073e     +CPC R19 , R30
                 	__CPWRN 18,19,10000
000603 f01c      	BRLT _0x4A
                 _0x4B:
                 ; 0000 037A                     {
                 ; 0000 037B                     error_code = mbillegaldatavalue;         //requested data overflow
                +
000604 e043     +LDI R20 , LOW ( 3 )
000605 e050     +LDI R21 , HIGH ( 3 )
                 	__GETWRN 20,21,3
                 ; 0000 037C                     break;
000606 c067      	RJMP _0x23
                 ; 0000 037D                     }
                 ; 0000 037E                  else
                 _0x4A:
                 ; 0000 037F                     {
                 ; 0000 0380                     k = mblimitcheck(mbaddress,mbamount);
000607 931a      	ST   -Y,R17
000608 930a      	ST   -Y,R16
000609 01d9      	MOVW R26,R18
00060a de27      	RCALL _mblimitcheck
00060b 83ee      	STD  Y+6,R30
00060c 83ff      	STD  Y+6+1,R31
                 ; 0000 0381                     if (k == 1)
00060d 81ae      	LDD  R26,Y+6
00060e 81bf      	LDD  R27,Y+6+1
00060f 9711      	SBIW R26,1
000610 f419      	BRNE _0x4E
                 ; 0000 0382                     {
                 ; 0000 0383                     error_code = 7;//mbillegaldatavalue;       //write not done. invalid value
                +
000611 e047     +LDI R20 , LOW ( 7 )
000612 e050     +LDI R21 , HIGH ( 7 )
                 	__GETWRN 20,21,7
                 ; 0000 0384                     break;
000613 c05a      	RJMP _0x23
                 ; 0000 0385                     }
                 ; 0000 0386                     }
                 _0x4E:
                 ; 0000 0387                     i = CRC16(rx_buffer,6);
000614 e1e1      	LDI  R30,LOW(_rx_buffer)
000615 e0f3      	LDI  R31,HIGH(_rx_buffer)
000616 93fa      	ST   -Y,R31
000617 93ea      	ST   -Y,R30
000618 e0a6      	LDI  R26,LOW(6)
000619 e0b0      	LDI  R27,0
00061a dd6b      	RCALL _CRC16
00061b 87ea      	STD  Y+10,R30
00061c 87fb      	STD  Y+10+1,R31
                 ; 0000 0388 
                 ; 0000 0389                  if((rx_buffer[6] != i%256) || (rx_buffer[7] != i/256)  )
                +
00061d 91a0 0317+LDS R26 , _rx_buffer + ( 6 )
                 	__GETB2MN _rx_buffer,6
00061f 70f0      	ANDI R31,HIGH(0xFF)
000620 e0b0      	LDI  R27,0
000621 17ea      	CP   R30,R26
000622 07fb      	CPC  R31,R27
000623 f441      	BRNE _0x50
                +
000624 91a0 0318+LDS R26 , _rx_buffer + ( 7 )
                 	__GETB2MN _rx_buffer,7
000626 85eb      	LDD  R30,Y+11
000627 70f0      	ANDI R31,HIGH(0x0)
000628 e0b0      	LDI  R27,0
000629 17ea      	CP   R30,R26
00062a 07fb      	CPC  R31,R27
00062b f019      	BREQ _0x4F
                 _0x50:
                 ; 0000 038A                     {
                 ; 0000 038B                     error_code = mbillegaldatavalue;      //CRC not matching
                +
00062c e043     +LDI R20 , LOW ( 3 )
00062d e050     +LDI R21 , HIGH ( 3 )
                 	__GETWRN 20,21,3
                 ; 0000 038C                     break;
00062e c03f      	RJMP _0x23
                 ; 0000 038D                     }
                 ; 0000 038E                   //valid request so form mb frame  echo accordingly
                 ; 0000 038F                   error_code =0;       //
                 _0x4F:
                +
00062f e040     +LDI R20 , LOW ( 0 )
000630 e050     +LDI R21 , HIGH ( 0 )
                 	__GETWRN 20,21,0
                 ; 0000 0390                   mb_dir =1;      //transmit
000631 9a94      	SBI  0x12,4
                 ; 0000 0391                   mbtransmit_data[0] = mbreceived_data[0];      //slave id
000632 91e0 0328 	LDS  R30,_mbreceived_data
000634 87ec      	STD  Y+12,R30
                 ; 0000 0392                   mbtransmit_data[1] = mbreceived_data[1];       //function code
                +
000635 91e0 0329+LDS R30 , _mbreceived_data + ( 1 )
                 	__GETB1MN _mbreceived_data,1
000637 87ed      	STD  Y+13,R30
                 ; 0000 0393                   mbtransmit_data[2] = mbreceived_data[2];      //slave id
                +
000638 91e0 032a+LDS R30 , _mbreceived_data + ( 2 )
                 	__GETB1MN _mbreceived_data,2
00063a 87ee      	STD  Y+14,R30
                 ; 0000 0394                   mbtransmit_data[3] = mbreceived_data[3];       //function code
                +
00063b 91e0 032b+LDS R30 , _mbreceived_data + ( 3 )
                 	__GETB1MN _mbreceived_data,3
00063d 87ef      	STD  Y+15,R30
                 ; 0000 0395                   mbtransmit_data[4] = mbreceived_data[4];      //slave id
                +
00063e 91e0 032c+LDS R30 , _mbreceived_data + ( 4 )
                 	__GETB1MN _mbreceived_data,4
000640 8be8      	STD  Y+16,R30
                 ; 0000 0396                   mbtransmit_data[5] = mbreceived_data[5];       //function code
                +
000641 91e0 032d+LDS R30 , _mbreceived_data + ( 5 )
                 	__GETB1MN _mbreceived_data,5
000643 8be9      	STD  Y+17,R30
                 ; 0000 0397                   mbtransmit_data[6] = mbreceived_data[6];      //slave id
                +
000644 91e0 032e+LDS R30 , _mbreceived_data + ( 6 )
                 	__GETB1MN _mbreceived_data,6
000646 8bea      	STD  Y+18,R30
                 ; 0000 0398                   mbtransmit_data[7] = mbreceived_data[7];       //function code
                +
000647 91e0 032f+LDS R30 , _mbreceived_data + ( 7 )
                 	__GETB1MN _mbreceived_data,7
000649 8beb      	STD  Y+19,R30
                 ; 0000 0399 
                 ; 0000 039A                     delay_ms(2);
00064a e0a2      	LDI  R26,LOW(2)
00064b e0b0      	LDI  R27,0
00064c 940e 2c4f 	CALL _delay_ms
                 ; 0000 039B 
                 ; 0000 039C                     #asm("cli")
00064e 94f8      	cli
                 ; 0000 039D 
                 ; 0000 039E //                    mb_dir =0;//set to transmit data
                 ; 0000 039F                     for (i=0;i<8;i++)
00064f e0e0      	LDI  R30,LOW(0)
000650 87ea      	STD  Y+10,R30
000651 87eb      	STD  Y+10+1,R30
                 _0x55:
000652 85aa      	LDD  R26,Y+10
000653 85bb      	LDD  R27,Y+10+1
000654 9718      	SBIW R26,8
000655 f470      	BRSH _0x56
                 ; 0000 03A0                         {
                 ; 0000 03A1                         putchar(mbtransmit_data[i]);
000656 85ea      	LDD  R30,Y+10
000657 85fb      	LDD  R31,Y+10+1
000658 01de      	MOVW R26,R28
000659 961c      	ADIW R26,12
00065a 0fae      	ADD  R26,R30
00065b 1fbf      	ADC  R27,R31
00065c 91ac      	LD   R26,X
00065d dd00      	RCALL _putchar
                 ; 0000 03A2                         }
00065e 85ea      	LDD  R30,Y+10
00065f 85fb      	LDD  R31,Y+10+1
000660 9631      	ADIW R30,1
000661 87ea      	STD  Y+10,R30
000662 87fb      	STD  Y+10+1,R31
000663 cfee      	RJMP _0x55
                 _0x56:
                 ; 0000 03A3 
                 ; 0000 03A4 //                     mbreset();
                 ; 0000 03A5                     #asm("sei")
000664 9478      	sei
                 ; 0000 03A6                     delay_ms(50);      //wait till all data transmitted need time to transmit max 36 bytes @9600
000665 e3a2      	LDI  R26,LOW(50)
000666 e0b0      	LDI  R27,0
000667 940e 2c4f 	CALL _delay_ms
                 ; 0000 03A7                     mb_dir =0;   //recieve
000669 9894      	CBI  0x12,4
                 ; 0000 03A8                     mbreset();
00066a dd42      	RCALL _mbreset
                 ; 0000 03A9                     break;
00066b c002      	RJMP _0x23
                 ; 0000 03AA             default: error_code = mbillegalfunction;
                 _0x59:
                +
00066c e041     +LDI R20 , LOW ( 1 )
00066d e050     +LDI R21 , HIGH ( 1 )
                 	__GETWRN 20,21,1
                 ; 0000 03AB //                    mbreset();
                 ; 0000 03AC                     break;
                 ; 0000 03AD 
                 ; 0000 03AE             }
                 _0x23:
                 ; 0000 03AF //        error handling;
                 ; 0000 03B0         if (error_code !=0)
00066e 2e04      	MOV  R0,R20
00066f 2a05      	OR   R0,R21
000670 f1a9      	BREQ _0x5A
                 ; 0000 03B1             {
                 ; 0000 03B2             //todo : error handling code here
                 ; 0000 03B3                 mb_dir =1;
000671 9a94      	SBI  0x12,4
                 ; 0000 03B4                 mbtransmit_data[0] = mbreceived_data[0];    //slave id
000672 91e0 0328 	LDS  R30,_mbreceived_data
000674 87ec      	STD  Y+12,R30
                 ; 0000 03B5                 mbtransmit_data[1] = mbreceived_data[1] | 0x80;     //set highest bit to indicate exception
                +
000675 91e0 0329+LDS R30 , _mbreceived_data + ( 1 )
                 	__GETB1MN _mbreceived_data,1
000677 68e0      	ORI  R30,0x80
000678 87ed      	STD  Y+13,R30
                 ; 0000 03B6                 mbtransmit_data[2] = error_code;        //error code
000679 01fe      	MOVW R30,R28
00067a 963e      	ADIW R30,14
00067b 8340      	ST   Z,R20
                 ; 0000 03B7                     i= CRC16(mbtransmit_data,3);    // CRC
00067c 01fe      	MOVW R30,R28
00067d 963c      	ADIW R30,12
00067e 93fa      	ST   -Y,R31
00067f 93ea      	ST   -Y,R30
000680 e0a3      	LDI  R26,LOW(3)
000681 e0b0      	LDI  R27,0
000682 dd03      	RCALL _CRC16
000683 87ea      	STD  Y+10,R30
000684 87fb      	STD  Y+10+1,R31
                 ; 0000 03B8                     mbtransmit_data[3] = i%256;
000685 85ea      	LDD  R30,Y+10
000686 87ef      	STD  Y+15,R30
                 ; 0000 03B9                     mbtransmit_data[4]=i/256;
000687 85eb      	LDD  R30,Y+11
000688 8be8      	STD  Y+16,R30
                 ; 0000 03BA                     #asm("cli")
000689 94f8      	cli
                 ; 0000 03BB 
                 ; 0000 03BC //                    mb_dir =0;//set to transmit data
                 ; 0000 03BD                     for (i=0;i<5;i++)
00068a e0e0      	LDI  R30,LOW(0)
00068b 87ea      	STD  Y+10,R30
00068c 87eb      	STD  Y+10+1,R30
                 _0x5E:
00068d 85aa      	LDD  R26,Y+10
00068e 85bb      	LDD  R27,Y+10+1
00068f 9715      	SBIW R26,5
000690 f470      	BRSH _0x5F
                 ; 0000 03BE                         {
                 ; 0000 03BF                         putchar(mbtransmit_data[i]);
000691 85ea      	LDD  R30,Y+10
000692 85fb      	LDD  R31,Y+10+1
000693 01de      	MOVW R26,R28
000694 961c      	ADIW R26,12
000695 0fae      	ADD  R26,R30
000696 1fbf      	ADC  R27,R31
000697 91ac      	LD   R26,X
000698 dcc5      	RCALL _putchar
                 ; 0000 03C0                         }
000699 85ea      	LDD  R30,Y+10
00069a 85fb      	LDD  R31,Y+10+1
00069b 9631      	ADIW R30,1
00069c 87ea      	STD  Y+10,R30
00069d 87fb      	STD  Y+10+1,R31
00069e cfee      	RJMP _0x5E
                 _0x5F:
                 ; 0000 03C1 
                 ; 0000 03C2 //                     mbreset();
                 ; 0000 03C3                     #asm("sei")
00069f 9478      	sei
                 ; 0000 03C4                     delay_ms(50);      //wait till all data transmitted need time to transmit max 36 bytes @9600
0006a0 e3a2      	LDI  R26,LOW(50)
0006a1 e0b0      	LDI  R27,0
0006a2 940e 2c4f 	CALL _delay_ms
                 ; 0000 03C5                     mb_dir =0;   //recieve
0006a4 9894      	CBI  0x12,4
                 ; 0000 03C6                     mbreset();
0006a5 dd07      	RCALL _mbreset
                 ; 0000 03C7 
                 ; 0000 03C8 
                 ; 0000 03C9             }
                 ; 0000 03CA 
                 ; 0000 03CB 
                 ; 0000 03CC 
                 ; 0000 03CD }
                 _0x5A:
0006a6 940e 2fa5 	CALL __LOADLOCR6
0006a8 96e4      	ADIW R28,52
0006a9 9508      	RET
                 ; .FEND
                 ;
                 ;
                 ;
                 ;
                 ;
                 ;
                 ;
                 ;
                 ;
                 ;
                 ;
                 ;
                 ;////////////////////////////////////////////////////////////
                 ;
                 ;
                 ;
                 ;/* table for the user defined character
                 ;   arrow that points to the top right corner */
                 ;
                 ;
                 ;
                 ;flash char char0[8]={
                 ;0b0001110,
                 ;0b0010001,
                 ;0b0010001,
                 ;0b0001110,
                 ;0b0000000,
                 ;0b0000000,
                 ;0b0000000,
                 ;0b0000000};
                 ;
                 ;void backtrack(void);
                 ;
                 ;
                 ;
                 ;
                 ;/* function used to define user characters */
                 ;void define_char(char flash *pc,char char_code)
                 ; 0000 03F4 {
                 _define_char:
                 ; .FSTART _define_char
                 ; 0000 03F5 char i,a;
                 ; 0000 03F6 a=(char_code<<3) | 0x40;
0006aa 93aa      	ST   -Y,R26
0006ab 931a      	ST   -Y,R17
0006ac 930a      	ST   -Y,R16
                 ;	*pc -> Y+3
                 ;	char_code -> Y+2
                 ;	i -> R17
                 ;	a -> R16
0006ad 81ea      	LDD  R30,Y+2
0006ae 0fee      	LSL  R30
0006af 0fee      	LSL  R30
0006b0 0fee      	LSL  R30
0006b1 64e0      	ORI  R30,0x40
0006b2 2f0e      	MOV  R16,R30
                 ; 0000 03F7 for (i=0; i<8; i++) lcd_write_byte(a++,*pc++);
0006b3 e010      	LDI  R17,LOW(0)
                 _0x63:
0006b4 3018      	CPI  R17,8
0006b5 f468      	BRSH _0x64
0006b6 930a      	ST   -Y,R16
0006b7 9503      	INC  R16
0006b8 81ec      	LDD  R30,Y+4
0006b9 81fd      	LDD  R31,Y+4+1
0006ba 9631      	ADIW R30,1
0006bb 83ec      	STD  Y+4,R30
0006bc 83fd      	STD  Y+4+1,R31
0006bd 9731      	SBIW R30,1
0006be 91a4      	LPM  R26,Z
0006bf 940e 2b1c 	CALL _lcd_write_byte
0006c1 5f1f      	SUBI R17,-1
0006c2 cff1      	RJMP _0x63
                 _0x64:
                 ; 0000 03F8 }
0006c3 8119      	LDD  R17,Y+1
0006c4 8108      	LDD  R16,Y+0
0006c5 c5d6      	RJMP _0x212000F
                 ; .FEND
                 ;
                 ;
                 ;
                 ;
                 ;
                 ;
                 ;
                 ;//void control_buck_off(void)
                 ;//{
                 ;//TCCR1A &= 0x3f;         // stop PWM outpu
                 ;//shutdown = 0;
                 ;//}
                 ;
                 ;//void control_buck_on(void)
                 ;//{
                 ;//shutdown =1;
                 ;//delay_ms(2);
                 ;//TCCR1A |= 0x80;         // turn PWM on.
                 ;//}
                 ;//////*********
                 ;
                 ;float fnday(long y,long m,long d,float h)
                 ; 0000 040F             {
                 _fnday:
                 ; .FSTART _fnday
                 ; 0000 0410             long int luku = -7 *(y+(m+9)/12)/4 + 275*m/9 + d;
                 ; 0000 0411             luku+=(long int) y*367;
0006c6 940e 2f3e 	CALL __PUTPARD2
0006c8 9724      	SBIW R28,4
                 ;	y -> Y+16
                 ;	m -> Y+12
                 ;	d -> Y+8
                 ;	h -> Y+4
                 ;	luku -> Y+0
                +
0006c9 85ac     +LDD R26 , Y + 12
0006ca 85bd     +LDD R27 , Y + 12 + 1
0006cb 858e     +LDD R24 , Y + 12 + 2
0006cc 859f     +LDD R25 , Y + 12 + 3
                 	__GETD2S 12
                +
0006cd 5fa7     +SUBI R26 , LOW ( - 9 )
0006ce 4fbf     +SBCI R27 , HIGH ( - 9 )
0006cf 4f8f     +SBCI R24 , BYTE3 ( - 9 )
0006d0 4f9f     +SBCI R25 , BYTE4 ( - 9 )
                 	__ADDD2N 9
                +
0006d1 e0ec     +LDI R30 , LOW ( 0xC )
0006d2 e0f0     +LDI R31 , HIGH ( 0xC )
0006d3 e060     +LDI R22 , BYTE3 ( 0xC )
0006d4 e070     +LDI R23 , BYTE4 ( 0xC )
                 	__GETD1N 0xC
0006d5 940e 2ec8 	CALL __DIVD21
                +
0006d7 89a8     +LDD R26 , Y + 16
0006d8 89b9     +LDD R27 , Y + 16 + 1
0006d9 898a     +LDD R24 , Y + 16 + 2
0006da 899b     +LDD R25 , Y + 16 + 3
                 	__GETD2S 16
0006db 940e 2e39 	CALL __ADDD12
                +
0006dd efa9     +LDI R26 , LOW ( 0xFFFFFFF9 )
0006de efbf     +LDI R27 , HIGH ( 0xFFFFFFF9 )
0006df ef8f     +LDI R24 , BYTE3 ( 0xFFFFFFF9 )
0006e0 ef9f     +LDI R25 , BYTE4 ( 0xFFFFFFF9 )
                 	__GETD2N 0xFFFFFFF9
0006e1 940e 2e86 	CALL __MULD12
0006e3 01df      	MOVW R26,R30
0006e4 01cb      	MOVW R24,R22
                +
0006e5 e0e4     +LDI R30 , LOW ( 0x4 )
0006e6 e0f0     +LDI R31 , HIGH ( 0x4 )
0006e7 e060     +LDI R22 , BYTE3 ( 0x4 )
0006e8 e070     +LDI R23 , BYTE4 ( 0x4 )
                 	__GETD1N 0x4
0006e9 940e 2ec8 	CALL __DIVD21
0006eb 937f      	PUSH R23
0006ec 936f      	PUSH R22
0006ed 93ff      	PUSH R31
0006ee 93ef      	PUSH R30
                +
0006ef 85ec     +LDD R30 , Y + 12
0006f0 85fd     +LDD R31 , Y + 12 + 1
0006f1 856e     +LDD R22 , Y + 12 + 2
0006f2 857f     +LDD R23 , Y + 12 + 3
                 	__GETD1S 12
                +
0006f3 e1a3     +LDI R26 , LOW ( 0x113 )
0006f4 e0b1     +LDI R27 , HIGH ( 0x113 )
0006f5 e080     +LDI R24 , BYTE3 ( 0x113 )
0006f6 e090     +LDI R25 , BYTE4 ( 0x113 )
                 	__GETD2N 0x113
0006f7 940e 2e86 	CALL __MULD12
0006f9 01df      	MOVW R26,R30
0006fa 01cb      	MOVW R24,R22
                +
0006fb e0e9     +LDI R30 , LOW ( 0x9 )
0006fc e0f0     +LDI R31 , HIGH ( 0x9 )
0006fd e060     +LDI R22 , BYTE3 ( 0x9 )
0006fe e070     +LDI R23 , BYTE4 ( 0x9 )
                 	__GETD1N 0x9
0006ff 940e 2ec8 	CALL __DIVD21
000701 91af      	POP  R26
000702 91bf      	POP  R27
000703 918f      	POP  R24
000704 919f      	POP  R25
000705 940e 2e39 	CALL __ADDD12
                +
000707 85a8     +LDD R26 , Y + 8
000708 85b9     +LDD R27 , Y + 8 + 1
000709 858a     +LDD R24 , Y + 8 + 2
00070a 859b     +LDD R25 , Y + 8 + 3
                 	__GETD2S 8
00070b 940e 2e39 	CALL __ADDD12
00070d 940e 2f34 	CALL __PUTD1S0
                +
00070f 89e8     +LDD R30 , Y + 16
000710 89f9     +LDD R31 , Y + 16 + 1
000711 896a     +LDD R22 , Y + 16 + 2
000712 897b     +LDD R23 , Y + 16 + 3
                 	__GETD1S 16
                +
000713 e6af     +LDI R26 , LOW ( 0x16F )
000714 e0b1     +LDI R27 , HIGH ( 0x16F )
000715 e080     +LDI R24 , BYTE3 ( 0x16F )
000716 e090     +LDI R25 , BYTE4 ( 0x16F )
                 	__GETD2N 0x16F
000717 940e 2e86 	CALL __MULD12
000719 940e 2f2f 	CALL __GETD2S0
00071b 940e 2e39 	CALL __ADDD12
00071d 940e 2f34 	CALL __PUTD1S0
                 ; 0000 0412             return (float)luku-730531.5 + h/24.0;
00071f 940e 2cc5 	CALL __CDF1
000721 01df      	MOVW R26,R30
000722 01cb      	MOVW R24,R22
                +
000723 e3e8     +LDI R30 , LOW ( 0x49325A38 )
000724 e5fa     +LDI R31 , HIGH ( 0x49325A38 )
000725 e362     +LDI R22 , BYTE3 ( 0x49325A38 )
000726 e479     +LDI R23 , BYTE4 ( 0x49325A38 )
                 	__GETD1N 0x49325A38
000727 940e 2f48 	CALL __SWAPD12
000729 940e 2cf8 	CALL __SUBF12
00072b 937f      	PUSH R23
00072c 936f      	PUSH R22
00072d 93ff      	PUSH R31
00072e 93ef      	PUSH R30
                +
00072f 81ac     +LDD R26 , Y + 4
000730 81bd     +LDD R27 , Y + 4 + 1
000731 818e     +LDD R24 , Y + 4 + 2
000732 819f     +LDD R25 , Y + 4 + 3
                 	__GETD2S 4
                +
000733 e0e0     +LDI R30 , LOW ( 0x41C00000 )
000734 e0f0     +LDI R31 , HIGH ( 0x41C00000 )
000735 ec60     +LDI R22 , BYTE3 ( 0x41C00000 )
000736 e471     +LDI R23 , BYTE4 ( 0x41C00000 )
                 	__GETD1N 0x41C00000
000737 940e 2d9d 	CALL __DIVF21
000739 91af      	POP  R26
00073a 91bf      	POP  R27
00073b 918f      	POP  R24
00073c 919f      	POP  R25
00073d 940e 2cff 	CALL __ADDF12
00073f 9664      	ADIW R28,20
000740 9508      	RET
                 ; 0000 0413             }
                 ; .FEND
                 ;
                 ;float fnrange(float x)
                 ; 0000 0416             {
                 _fnrange:
                 ; .FSTART _fnrange
                 ; 0000 0417             float b = 0.5 * x / pi;
                 ; 0000 0418             float a = 2.0 * pi * (b - (long) b);
                 ; 0000 0419             if (a<0) a = 2.0 * pi+a;
000741 940e 2f3e 	CALL __PUTPARD2
000743 9728      	SBIW R28,8
                 ;	x -> Y+8
                 ;	b -> Y+4
                 ;	a -> Y+0
                +
000744 85e8     +LDD R30 , Y + 8
000745 85f9     +LDD R31 , Y + 8 + 1
000746 856a     +LDD R22 , Y + 8 + 2
000747 857b     +LDD R23 , Y + 8 + 3
                 	__GETD1S 8
                +
000748 e0a0     +LDI R26 , LOW ( 0x3F000000 )
000749 e0b0     +LDI R27 , HIGH ( 0x3F000000 )
00074a e080     +LDI R24 , BYTE3 ( 0x3F000000 )
00074b e39f     +LDI R25 , BYTE4 ( 0x3F000000 )
                 	__GETD2N 0x3F000000
00074c 940e 2d4f 	CALL __MULF12
00074e 01df      	MOVW R26,R30
00074f 01cb      	MOVW R24,R22
000750 91e0 0260 	LDS  R30,_pi
000752 91f0 0261 	LDS  R31,_pi+1
000754 9160 0262 	LDS  R22,_pi+2
000756 9170 0263 	LDS  R23,_pi+3
000758 940e 2d9d 	CALL __DIVF21
                +
00075a 83ec     +STD Y + 4 , R30
00075b 83fd     +STD Y + 4 + 1 , R31
00075c 836e     +STD Y + 4 + 2 , R22
00075d 837f     +STD Y + 4 + 3 , R23
                 	__PUTD1S 4
00075e 91e0 0260 	LDS  R30,_pi
000760 91f0 0261 	LDS  R31,_pi+1
000762 9160 0262 	LDS  R22,_pi+2
000764 9170 0263 	LDS  R23,_pi+3
                +
000766 e0a0     +LDI R26 , LOW ( 0x40000000 )
000767 e0b0     +LDI R27 , HIGH ( 0x40000000 )
000768 e080     +LDI R24 , BYTE3 ( 0x40000000 )
000769 e490     +LDI R25 , BYTE4 ( 0x40000000 )
                 	__GETD2N 0x40000000
00076a 940e 2d4f 	CALL __MULF12
00076c 937f      	PUSH R23
00076d 936f      	PUSH R22
00076e 93ff      	PUSH R31
00076f 93ef      	PUSH R30
                +
000770 81ec     +LDD R30 , Y + 4
000771 81fd     +LDD R31 , Y + 4 + 1
000772 816e     +LDD R22 , Y + 4 + 2
000773 817f     +LDD R23 , Y + 4 + 3
                 	__GETD1S 4
000774 940e 2c8e 	CALL __CFD1
                +
000776 81ac     +LDD R26 , Y + 4
000777 81bd     +LDD R27 , Y + 4 + 1
000778 818e     +LDD R24 , Y + 4 + 2
000779 819f     +LDD R25 , Y + 4 + 3
                 	__GETD2S 4
00077a 940e 2cc5 	CALL __CDF1
00077c 940e 2f48 	CALL __SWAPD12
00077e 940e 2cf8 	CALL __SUBF12
000780 91af      	POP  R26
000781 91bf      	POP  R27
000782 918f      	POP  R24
000783 919f      	POP  R25
000784 940e 2d4f 	CALL __MULF12
000786 940e 2f34 	CALL __PUTD1S0
000788 81ab      	LDD  R26,Y+3
000789 23aa      	TST  R26
00078a f4a2      	BRPL _0x65
00078b 91e0 0260 	LDS  R30,_pi
00078d 91f0 0261 	LDS  R31,_pi+1
00078f 9160 0262 	LDS  R22,_pi+2
000791 9170 0263 	LDS  R23,_pi+3
                +
000793 e0a0     +LDI R26 , LOW ( 0x40000000 )
000794 e0b0     +LDI R27 , HIGH ( 0x40000000 )
000795 e080     +LDI R24 , BYTE3 ( 0x40000000 )
000796 e490     +LDI R25 , BYTE4 ( 0x40000000 )
                 	__GETD2N 0x40000000
000797 940e 2d4f 	CALL __MULF12
000799 940e 2f2f 	CALL __GETD2S0
00079b 940e 2cff 	CALL __ADDF12
00079d 940e 2f34 	CALL __PUTD1S0
                 ; 0000 041A             return a;
                 _0x65:
00079f 940e 2f2a 	CALL __GETD1S0
0007a1 962c      	ADIW R28,12
0007a2 9508      	RET
                 ; 0000 041B             }
                 ; .FEND
                 ;
                 ;
                 ;float f0(float lat, float declin)
                 ; 0000 041F             {
                 _f0:
                 ; .FSTART _f0
                 ; 0000 0420             float f0,df0;
                 ; 0000 0421             df0 = rads *(0.5*sundia + airrefr);
0007a3 940e 2f3e 	CALL __PUTPARD2
0007a5 9728      	SBIW R28,8
                 ;	lat -> Y+12
                 ;	declin -> Y+8
                 ;	f0 -> Y+4
                 ;	df0 -> Y+0
0007a6 91e0 0274 	LDS  R30,_sundia
0007a8 91f0 0275 	LDS  R31,_sundia+1
0007aa 9160 0276 	LDS  R22,_sundia+2
0007ac 9170 0277 	LDS  R23,_sundia+3
                +
0007ae e0a0     +LDI R26 , LOW ( 0x3F000000 )
0007af e0b0     +LDI R27 , HIGH ( 0x3F000000 )
0007b0 e080     +LDI R24 , BYTE3 ( 0x3F000000 )
0007b1 e39f     +LDI R25 , BYTE4 ( 0x3F000000 )
                 	__GETD2N 0x3F000000
0007b2 940e 2d4f 	CALL __MULF12
0007b4 91a0 0278 	LDS  R26,_airrefr
0007b6 91b0 0279 	LDS  R27,_airrefr+1
0007b8 9180 027a 	LDS  R24,_airrefr+2
0007ba 9190 027b 	LDS  R25,_airrefr+3
0007bc 940e 2cff 	CALL __ADDF12
0007be 91a0 0268 	LDS  R26,_rads
0007c0 91b0 0269 	LDS  R27,_rads+1
0007c2 9180 026a 	LDS  R24,_rads+2
0007c4 9190 026b 	LDS  R25,_rads+3
0007c6 940e 2d4f 	CALL __MULF12
0007c8 940e 2f34 	CALL __PUTD1S0
                 ; 0000 0422             if (lat <0.0) df0 = -df0;
0007ca 85af      	LDD  R26,Y+15
0007cb 23aa      	TST  R26
0007cc f422      	BRPL _0x66
0007cd 940e 2c59 	CALL __ANEGF1
0007cf 940e 2f34 	CALL __PUTD1S0
                 ; 0000 0423             f0 = tan(declin+df0) * tan(lat*rads);
                 _0x66:
0007d1 940e 2f2a 	CALL __GETD1S0
                +
0007d3 85a8     +LDD R26 , Y + 8
0007d4 85b9     +LDD R27 , Y + 8 + 1
0007d5 858a     +LDD R24 , Y + 8 + 2
0007d6 859b     +LDD R25 , Y + 8 + 3
                 	__GETD2S 8
0007d7 940e 2cff 	CALL __ADDF12
0007d9 01df      	MOVW R26,R30
0007da 01cb      	MOVW R24,R22
0007db 940e 2856 	CALL _tan
0007dd 937f      	PUSH R23
0007de 936f      	PUSH R22
0007df 93ff      	PUSH R31
0007e0 93ef      	PUSH R30
0007e1 91e0 0268 	LDS  R30,_rads
0007e3 91f0 0269 	LDS  R31,_rads+1
0007e5 9160 026a 	LDS  R22,_rads+2
0007e7 9170 026b 	LDS  R23,_rads+3
                +
0007e9 85ac     +LDD R26 , Y + 12
0007ea 85bd     +LDD R27 , Y + 12 + 1
0007eb 858e     +LDD R24 , Y + 12 + 2
0007ec 859f     +LDD R25 , Y + 12 + 3
                 	__GETD2S 12
0007ed 940e 2d4f 	CALL __MULF12
0007ef 01df      	MOVW R26,R30
0007f0 01cb      	MOVW R24,R22
0007f1 940e 2856 	CALL _tan
0007f3 91af      	POP  R26
0007f4 91bf      	POP  R27
0007f5 918f      	POP  R24
0007f6 919f      	POP  R25
0007f7 940e 2d4f 	CALL __MULF12
                +
0007f9 83ec     +STD Y + 4 , R30
0007fa 83fd     +STD Y + 4 + 1 , R31
0007fb 836e     +STD Y + 4 + 2 , R22
0007fc 837f     +STD Y + 4 + 3 , R23
                 	__PUTD1S 4
                 ; 0000 0424             if (f0>0.99999) f0 = 1.0;
                +
0007fd 81ac     +LDD R26 , Y + 4
0007fe 81bd     +LDD R27 , Y + 4 + 1
0007ff 818e     +LDD R24 , Y + 4 + 2
000800 819f     +LDD R25 , Y + 4 + 3
                 	__GETD2S 4
                +
000801 e5e8     +LDI R30 , LOW ( 0x3F7FFF58 )
000802 efff     +LDI R31 , HIGH ( 0x3F7FFF58 )
000803 e76f     +LDI R22 , BYTE3 ( 0x3F7FFF58 )
000804 e37f     +LDI R23 , BYTE4 ( 0x3F7FFF58 )
                 	__GETD1N 0x3F7FFF58
000805 940e 2de2 	CALL __CMPF12
000807 f009      	BREQ PC+2
000808 f408      	BRCC PC+2
000809 c008      	RJMP _0x67
                +
00080a e0e0     +LDI R30 , LOW ( 0x3F800000 )
00080b e0f0     +LDI R31 , HIGH ( 0x3F800000 )
00080c e860     +LDI R22 , BYTE3 ( 0x3F800000 )
00080d e37f     +LDI R23 , BYTE4 ( 0x3F800000 )
                 	__GETD1N 0x3F800000
                +
00080e 83ec     +STD Y + 4 , R30
00080f 83fd     +STD Y + 4 + 1 , R31
000810 836e     +STD Y + 4 + 2 , R22
000811 837f     +STD Y + 4 + 3 , R23
                 	__PUTD1S 4
                 ; 0000 0425             f0 = asin(f0) + pi/2.0;
                 _0x67:
                +
000812 81ac     +LDD R26 , Y + 4
000813 81bd     +LDD R27 , Y + 4 + 1
000814 818e     +LDD R24 , Y + 4 + 2
000815 819f     +LDD R25 , Y + 4 + 3
                 	__GETD2S 4
000816 940e 2915 	CALL _asin
000818 937f      	PUSH R23
000819 936f      	PUSH R22
00081a 93ff      	PUSH R31
00081b 93ef      	PUSH R30
00081c 91a0 0260 	LDS  R26,_pi
00081e 91b0 0261 	LDS  R27,_pi+1
000820 9180 0262 	LDS  R24,_pi+2
000822 9190 0263 	LDS  R25,_pi+3
                +
000824 e0e0     +LDI R30 , LOW ( 0x40000000 )
000825 e0f0     +LDI R31 , HIGH ( 0x40000000 )
000826 e060     +LDI R22 , BYTE3 ( 0x40000000 )
000827 e470     +LDI R23 , BYTE4 ( 0x40000000 )
                 	__GETD1N 0x40000000
000828 940e 2d9d 	CALL __DIVF21
00082a 91af      	POP  R26
00082b 91bf      	POP  R27
00082c 918f      	POP  R24
00082d 919f      	POP  R25
00082e 940e 2cff 	CALL __ADDF12
                +
000830 83ec     +STD Y + 4 , R30
000831 83fd     +STD Y + 4 + 1 , R31
000832 836e     +STD Y + 4 + 2 , R22
000833 837f     +STD Y + 4 + 3 , R23
                 	__PUTD1S 4
                 ; 0000 0426             return f0;
000834 9660      	ADIW R28,16
000835 9508      	RET
                 ; 0000 0427             }
                 ; .FEND
                 ;
                 ;
                 ;float fnsun(float d)
                 ; 0000 042B             {
                 _fnsun:
                 ; .FSTART _fnsun
                 ; 0000 042C             L = fnrange(280.461* rads + 0.9856474 * rads * d);
000836 940e 2f3e 	CALL __PUTPARD2
                 ;	d -> Y+0
000838 91e0 0268 	LDS  R30,_rads
00083a 91f0 0269 	LDS  R31,_rads+1
00083c 9160 026a 	LDS  R22,_rads+2
00083e 9170 026b 	LDS  R23,_rads+3
                +
000840 e0a2     +LDI R26 , LOW ( 0x438C3B02 )
000841 e3bb     +LDI R27 , HIGH ( 0x438C3B02 )
000842 e88c     +LDI R24 , BYTE3 ( 0x438C3B02 )
000843 e493     +LDI R25 , BYTE4 ( 0x438C3B02 )
                 	__GETD2N 0x438C3B02
000844 940e 2d4f 	CALL __MULF12
000846 937f      	PUSH R23
000847 936f      	PUSH R22
000848 93ff      	PUSH R31
000849 93ef      	PUSH R30
00084a 91e0 0268 	LDS  R30,_rads
00084c 91f0 0269 	LDS  R31,_rads+1
00084e 9160 026a 	LDS  R22,_rads+2
000850 9170 026b 	LDS  R23,_rads+3
                +
000852 e6a3     +LDI R26 , LOW ( 0x3F7C5363 )
000853 e5b3     +LDI R27 , HIGH ( 0x3F7C5363 )
000854 e78c     +LDI R24 , BYTE3 ( 0x3F7C5363 )
000855 e39f     +LDI R25 , BYTE4 ( 0x3F7C5363 )
                 	__GETD2N 0x3F7C5363
000856 940e 2d4f 	CALL __MULF12
000858 940e 2f2f 	CALL __GETD2S0
00085a 940e 2d4f 	CALL __MULF12
00085c 91af      	POP  R26
00085d 91bf      	POP  R27
00085e 918f      	POP  R24
00085f 919f      	POP  R25
000860 940e 2cff 	CALL __ADDF12
000862 01df      	MOVW R26,R30
000863 01cb      	MOVW R24,R22
000864 dedc      	RCALL _fnrange
000865 93e0 026c 	STS  _L,R30
000867 93f0 026d 	STS  _L+1,R31
000869 9360 026e 	STS  _L+2,R22
00086b 9370 026f 	STS  _L+3,R23
                 ; 0000 042D             g = fnrange(357.528 * rads + 0.9856003 * rads * d);
00086d 91e0 0268 	LDS  R30,_rads
00086f 91f0 0269 	LDS  R31,_rads+1
000871 9160 026a 	LDS  R22,_rads+2
000873 9170 026b 	LDS  R23,_rads+3
                +
000875 e9a6     +LDI R26 , LOW ( 0x43B2C396 )
000876 ecb3     +LDI R27 , HIGH ( 0x43B2C396 )
000877 eb82     +LDI R24 , BYTE3 ( 0x43B2C396 )
000878 e493     +LDI R25 , BYTE4 ( 0x43B2C396 )
                 	__GETD2N 0x43B2C396
000879 940e 2d4f 	CALL __MULF12
00087b 937f      	PUSH R23
00087c 936f      	PUSH R22
00087d 93ff      	PUSH R31
00087e 93ef      	PUSH R30
00087f 91e0 0268 	LDS  R30,_rads
000881 91f0 0269 	LDS  R31,_rads+1
000883 9160 026a 	LDS  R22,_rads+2
000885 9170 026b 	LDS  R23,_rads+3
                +
000887 e4ad     +LDI R26 , LOW ( 0x3F7C504D )
000888 e5b0     +LDI R27 , HIGH ( 0x3F7C504D )
000889 e78c     +LDI R24 , BYTE3 ( 0x3F7C504D )
00088a e39f     +LDI R25 , BYTE4 ( 0x3F7C504D )
                 	__GETD2N 0x3F7C504D
00088b 940e 2d4f 	CALL __MULF12
00088d 940e 2f2f 	CALL __GETD2S0
00088f 940e 2d4f 	CALL __MULF12
000891 91af      	POP  R26
000892 91bf      	POP  R27
000893 918f      	POP  R24
000894 919f      	POP  R25
000895 940e 2cff 	CALL __ADDF12
000897 01df      	MOVW R26,R30
000898 01cb      	MOVW R24,R22
000899 dea7      	RCALL _fnrange
00089a 93e0 0270 	STS  _g,R30
00089c 93f0 0271 	STS  _g+1,R31
00089e 9360 0272 	STS  _g+2,R22
0008a0 9370 0273 	STS  _g+3,R23
                 ; 0000 042E 
                 ; 0000 042F             return fnrange(L+1.915 * rads * sin(g) + 0.02 * rads * sin(2*g));
0008a2 91e0 0268 	LDS  R30,_rads
0008a4 91f0 0269 	LDS  R31,_rads+1
0008a6 9160 026a 	LDS  R22,_rads+2
0008a8 9170 026b 	LDS  R23,_rads+3
                +
0008aa eba8     +LDI R26 , LOW ( 0x3FF51EB8 )
0008ab e1be     +LDI R27 , HIGH ( 0x3FF51EB8 )
0008ac ef85     +LDI R24 , BYTE3 ( 0x3FF51EB8 )
0008ad e39f     +LDI R25 , BYTE4 ( 0x3FF51EB8 )
                 	__GETD2N 0x3FF51EB8
0008ae 940e 2d4f 	CALL __MULF12
0008b0 937f      	PUSH R23
0008b1 936f      	PUSH R22
0008b2 93ff      	PUSH R31
0008b3 93ef      	PUSH R30
0008b4 91a0 0270 	LDS  R26,_g
0008b6 91b0 0271 	LDS  R27,_g+1
0008b8 9180 0272 	LDS  R24,_g+2
0008ba 9190 0273 	LDS  R25,_g+3
0008bc 940e 2793 	CALL _sin
0008be 91af      	POP  R26
0008bf 91bf      	POP  R27
0008c0 918f      	POP  R24
0008c1 919f      	POP  R25
0008c2 940e 2d4f 	CALL __MULF12
0008c4 91a0 026c 	LDS  R26,_L
0008c6 91b0 026d 	LDS  R27,_L+1
0008c8 9180 026e 	LDS  R24,_L+2
0008ca 9190 026f 	LDS  R25,_L+3
0008cc 940e 2cff 	CALL __ADDF12
0008ce 937f      	PUSH R23
0008cf 936f      	PUSH R22
0008d0 93ff      	PUSH R31
0008d1 93ef      	PUSH R30
0008d2 91e0 0268 	LDS  R30,_rads
0008d4 91f0 0269 	LDS  R31,_rads+1
0008d6 9160 026a 	LDS  R22,_rads+2
0008d8 9170 026b 	LDS  R23,_rads+3
                +
0008da e0aa     +LDI R26 , LOW ( 0x3CA3D70A )
0008db edb7     +LDI R27 , HIGH ( 0x3CA3D70A )
0008dc ea83     +LDI R24 , BYTE3 ( 0x3CA3D70A )
0008dd e39c     +LDI R25 , BYTE4 ( 0x3CA3D70A )
                 	__GETD2N 0x3CA3D70A
0008de 940e 2d4f 	CALL __MULF12
0008e0 937f      	PUSH R23
0008e1 936f      	PUSH R22
0008e2 93ff      	PUSH R31
0008e3 93ef      	PUSH R30
0008e4 91e0 0270 	LDS  R30,_g
0008e6 91f0 0271 	LDS  R31,_g+1
0008e8 9160 0272 	LDS  R22,_g+2
0008ea 9170 0273 	LDS  R23,_g+3
                +
0008ec e0a0     +LDI R26 , LOW ( 0x40000000 )
0008ed e0b0     +LDI R27 , HIGH ( 0x40000000 )
0008ee e080     +LDI R24 , BYTE3 ( 0x40000000 )
0008ef e490     +LDI R25 , BYTE4 ( 0x40000000 )
                 	__GETD2N 0x40000000
0008f0 940e 2d4f 	CALL __MULF12
0008f2 01df      	MOVW R26,R30
0008f3 01cb      	MOVW R24,R22
0008f4 940e 2793 	CALL _sin
0008f6 91af      	POP  R26
0008f7 91bf      	POP  R27
0008f8 918f      	POP  R24
0008f9 919f      	POP  R25
0008fa 940e 2d4f 	CALL __MULF12
0008fc 91af      	POP  R26
0008fd 91bf      	POP  R27
0008fe 918f      	POP  R24
0008ff 919f      	POP  R25
000900 940e 2cff 	CALL __ADDF12
000902 01df      	MOVW R26,R30
000903 01cb      	MOVW R24,R22
000904 de3c      	RCALL _fnrange
000905 c4aa      	RJMP _0x212000B
                 ; 0000 0430             }
                 ; .FEND
                 ;
                 ;void rise_set( float day,float m,float y,float h,float latit,float longit,float tzone)
                 ; 0000 0433 {
                 _rise_set:
                 ; .FSTART _rise_set
                 ; 0000 0434 float d,lamda;
                 ; 0000 0435 float obliq,alpha,delta,LL,equation,ha;
                 ; 0000 0436 degs = 180.0/pi;
000906 940e 2f3e 	CALL __PUTPARD2
000908 97a0      	SBIW R28,32
                 ;	day -> Y+56
                 ;	m -> Y+52
                 ;	y -> Y+48
                 ;	h -> Y+44
                 ;	latit -> Y+40
                 ;	longit -> Y+36
                 ;	tzone -> Y+32
                 ;	d -> Y+28
                 ;	lamda -> Y+24
                 ;	obliq -> Y+20
                 ;	alpha -> Y+16
                 ;	delta -> Y+12
                 ;	LL -> Y+8
                 ;	equation -> Y+4
                 ;	ha -> Y+0
000909 91e0 0260 	LDS  R30,_pi
00090b 91f0 0261 	LDS  R31,_pi+1
00090d 9160 0262 	LDS  R22,_pi+2
00090f 9170 0263 	LDS  R23,_pi+3
                +
000911 e0a0     +LDI R26 , LOW ( 0x43340000 )
000912 e0b0     +LDI R27 , HIGH ( 0x43340000 )
000913 e384     +LDI R24 , BYTE3 ( 0x43340000 )
000914 e493     +LDI R25 , BYTE4 ( 0x43340000 )
                 	__GETD2N 0x43340000
000915 940e 2d9d 	CALL __DIVF21
000917 93e0 0264 	STS  _degs,R30
000919 93f0 0265 	STS  _degs+1,R31
00091b 9360 0266 	STS  _degs+2,R22
00091d 9370 0267 	STS  _degs+3,R23
                 ; 0000 0437 rads = pi/180.0;
00091f 91a0 0260 	LDS  R26,_pi
000921 91b0 0261 	LDS  R27,_pi+1
000923 9180 0262 	LDS  R24,_pi+2
000925 9190 0263 	LDS  R25,_pi+3
                +
000927 e0e0     +LDI R30 , LOW ( 0x43340000 )
000928 e0f0     +LDI R31 , HIGH ( 0x43340000 )
000929 e364     +LDI R22 , BYTE3 ( 0x43340000 )
00092a e473     +LDI R23 , BYTE4 ( 0x43340000 )
                 	__GETD1N 0x43340000
00092b 940e 2d9d 	CALL __DIVF21
00092d 93e0 0268 	STS  _rads,R30
00092f 93f0 0269 	STS  _rads+1,R31
000931 9360 026a 	STS  _rads+2,R22
000933 9370 026b 	STS  _rads+3,R23
                 ; 0000 0438 h=12;
                +
000935 e0e0     +LDI R30 , LOW ( 0x41400000 )
000936 e0f0     +LDI R31 , HIGH ( 0x41400000 )
000937 e460     +LDI R22 , BYTE3 ( 0x41400000 )
000938 e471     +LDI R23 , BYTE4 ( 0x41400000 )
                 	__GETD1N 0x41400000
                +
000939 a7ec     +STD Y + 44 , R30
00093a a7fd     +STD Y + 44 + 1 , R31
00093b a76e     +STD Y + 44 + 2 , R22
00093c a77f     +STD Y + 44 + 3 , R23
                 	__PUTD1S 44
                 ; 0000 0439 d= fnday (y,m,day,h);
                +
00093d a9e8     +LDD R30 , Y + 48
00093e a9f9     +LDD R31 , Y + 48 + 1
00093f a96a     +LDD R22 , Y + 48 + 2
000940 a97b     +LDD R23 , Y + 48 + 3
                 	__GETD1S 48
000941 940e 2c8e 	CALL __CFD1
000943 940e 2f39 	CALL __PUTPARD1
                +
000945 ade8     +LDD R30 , Y + 56
000946 adf9     +LDD R31 , Y + 56 + 1
000947 ad6a     +LDD R22 , Y + 56 + 2
000948 ad7b     +LDD R23 , Y + 56 + 3
                 	__GETD1S 56
000949 940e 2c8e 	CALL __CFD1
00094b 940e 2f39 	CALL __PUTPARD1
                +
00094d 01fe     +MOVW R30 , R28
00094e 5ce0     +SUBI R30 , LOW ( - 64 )
00094f 4fff     +SBCI R31 , HIGH ( - 64 )
000950 9001     +LD R0 , Z +
000951 9011     +LD R1 , Z +
000952 9161     +LD R22 , Z +
000953 8170     +LD R23 , Z
000954 01f0     +MOVW R30 , R0
                 	__GETD1SX 64
000955 940e 2c8e 	CALL __CFD1
000957 940e 2f39 	CALL __PUTPARD1
                +
000959 ada8     +LDD R26 , Y + 56
00095a adb9     +LDD R27 , Y + 56 + 1
00095b ad8a     +LDD R24 , Y + 56 + 2
00095c ad9b     +LDD R25 , Y + 56 + 3
                 	__GETD2S 56
00095d dd68      	RCALL _fnday
                +
00095e 8fec     +STD Y + 28 , R30
00095f 8ffd     +STD Y + 28 + 1 , R31
000960 8f6e     +STD Y + 28 + 2 , R22
000961 8f7f     +STD Y + 28 + 3 , R23
                 	__PUTD1S 28
                 ; 0000 043A lamda = fnsun(d);
                +
000962 8dac     +LDD R26 , Y + 28
000963 8dbd     +LDD R27 , Y + 28 + 1
000964 8d8e     +LDD R24 , Y + 28 + 2
000965 8d9f     +LDD R25 , Y + 28 + 3
                 	__GETD2S 28
000966 decf      	RCALL _fnsun
                +
000967 8fe8     +STD Y + 24 , R30
000968 8ff9     +STD Y + 24 + 1 , R31
000969 8f6a     +STD Y + 24 + 2 , R22
00096a 8f7b     +STD Y + 24 + 3 , R23
                 	__PUTD1S 24
                 ; 0000 043B obliq = 23.439 * rads - 0.0000004 * rads *d;
00096b 91e0 0268 	LDS  R30,_rads
00096d 91f0 0269 	LDS  R31,_rads+1
00096f 9160 026a 	LDS  R22,_rads+2
000971 9170 026b 	LDS  R23,_rads+3
                +
000973 e1a2     +LDI R26 , LOW ( 0x41BB8312 )
000974 e8b3     +LDI R27 , HIGH ( 0x41BB8312 )
000975 eb8b     +LDI R24 , BYTE3 ( 0x41BB8312 )
000976 e491     +LDI R25 , BYTE4 ( 0x41BB8312 )
                 	__GETD2N 0x41BB8312
000977 940e 2d4f 	CALL __MULF12
000979 937f      	PUSH R23
00097a 936f      	PUSH R22
00097b 93ff      	PUSH R31
00097c 93ef      	PUSH R30
00097d 91e0 0268 	LDS  R30,_rads
00097f 91f0 0269 	LDS  R31,_rads+1
000981 9160 026a 	LDS  R22,_rads+2
000983 9170 026b 	LDS  R23,_rads+3
                +
000985 e9a5     +LDI R26 , LOW ( 0x34D6BF95 )
000986 ebbf     +LDI R27 , HIGH ( 0x34D6BF95 )
000987 ed86     +LDI R24 , BYTE3 ( 0x34D6BF95 )
000988 e394     +LDI R25 , BYTE4 ( 0x34D6BF95 )
                 	__GETD2N 0x34D6BF95
000989 940e 2d4f 	CALL __MULF12
                +
00098b 8dac     +LDD R26 , Y + 28
00098c 8dbd     +LDD R27 , Y + 28 + 1
00098d 8d8e     +LDD R24 , Y + 28 + 2
00098e 8d9f     +LDD R25 , Y + 28 + 3
                 	__GETD2S 28
00098f 940e 2d4f 	CALL __MULF12
000991 91af      	POP  R26
000992 91bf      	POP  R27
000993 918f      	POP  R24
000994 919f      	POP  R25
000995 940e 2f48 	CALL __SWAPD12
000997 940e 2cf8 	CALL __SUBF12
                +
000999 8bec     +STD Y + 20 , R30
00099a 8bfd     +STD Y + 20 + 1 , R31
00099b 8b6e     +STD Y + 20 + 2 , R22
00099c 8b7f     +STD Y + 20 + 3 , R23
                 	__PUTD1S 20
                 ; 0000 043C alpha =atan2(cos(obliq) * sin(lamda),cos(lamda));
                +
00099d 89ac     +LDD R26 , Y + 20
00099e 89bd     +LDD R27 , Y + 20 + 1
00099f 898e     +LDD R24 , Y + 20 + 2
0009a0 899f     +LDD R25 , Y + 20 + 3
                 	__GETD2S 20
0009a1 940e 2847 	CALL _cos
0009a3 937f      	PUSH R23
0009a4 936f      	PUSH R22
0009a5 93ff      	PUSH R31
0009a6 93ef      	PUSH R30
                +
0009a7 8da8     +LDD R26 , Y + 24
0009a8 8db9     +LDD R27 , Y + 24 + 1
0009a9 8d8a     +LDD R24 , Y + 24 + 2
0009aa 8d9b     +LDD R25 , Y + 24 + 3
                 	__GETD2S 24
0009ab 940e 2793 	CALL _sin
0009ad 91af      	POP  R26
0009ae 91bf      	POP  R27
0009af 918f      	POP  R24
0009b0 919f      	POP  R25
0009b1 940e 2d4f 	CALL __MULF12
0009b3 940e 2f39 	CALL __PUTPARD1
                +
0009b5 8dac     +LDD R26 , Y + 28
0009b6 8dbd     +LDD R27 , Y + 28 + 1
0009b7 8d8e     +LDD R24 , Y + 28 + 2
0009b8 8d9f     +LDD R25 , Y + 28 + 3
                 	__GETD2S 28
0009b9 940e 2847 	CALL _cos
0009bb 01df      	MOVW R26,R30
0009bc 01cb      	MOVW R24,R22
0009bd 940e 29b1 	CALL _atan2
                +
0009bf 8be8     +STD Y + 16 , R30
0009c0 8bf9     +STD Y + 16 + 1 , R31
0009c1 8b6a     +STD Y + 16 + 2 , R22
0009c2 8b7b     +STD Y + 16 + 3 , R23
                 	__PUTD1S 16
                 ; 0000 043D delta = asin(sin(obliq) * sin(lamda));
                +
0009c3 89ac     +LDD R26 , Y + 20
0009c4 89bd     +LDD R27 , Y + 20 + 1
0009c5 898e     +LDD R24 , Y + 20 + 2
0009c6 899f     +LDD R25 , Y + 20 + 3
                 	__GETD2S 20
0009c7 940e 2793 	CALL _sin
0009c9 937f      	PUSH R23
0009ca 936f      	PUSH R22
0009cb 93ff      	PUSH R31
0009cc 93ef      	PUSH R30
                +
0009cd 8da8     +LDD R26 , Y + 24
0009ce 8db9     +LDD R27 , Y + 24 + 1
0009cf 8d8a     +LDD R24 , Y + 24 + 2
0009d0 8d9b     +LDD R25 , Y + 24 + 3
                 	__GETD2S 24
0009d1 940e 2793 	CALL _sin
0009d3 91af      	POP  R26
0009d4 91bf      	POP  R27
0009d5 918f      	POP  R24
0009d6 919f      	POP  R25
0009d7 940e 2d4f 	CALL __MULF12
0009d9 01df      	MOVW R26,R30
0009da 01cb      	MOVW R24,R22
0009db 940e 2915 	CALL _asin
                +
0009dd 87ec     +STD Y + 12 , R30
0009de 87fd     +STD Y + 12 + 1 , R31
0009df 876e     +STD Y + 12 + 2 , R22
0009e0 877f     +STD Y + 12 + 3 , R23
                 	__PUTD1S 12
                 ; 0000 043E 
                 ; 0000 043F LL = L-alpha;
                +
0009e1 89a8     +LDD R26 , Y + 16
0009e2 89b9     +LDD R27 , Y + 16 + 1
0009e3 898a     +LDD R24 , Y + 16 + 2
0009e4 899b     +LDD R25 , Y + 16 + 3
                 	__GETD2S 16
0009e5 91e0 026c 	LDS  R30,_L
0009e7 91f0 026d 	LDS  R31,_L+1
0009e9 9160 026e 	LDS  R22,_L+2
0009eb 9170 026f 	LDS  R23,_L+3
0009ed 940e 2cf8 	CALL __SUBF12
                +
0009ef 87e8     +STD Y + 8 , R30
0009f0 87f9     +STD Y + 8 + 1 , R31
0009f1 876a     +STD Y + 8 + 2 , R22
0009f2 877b     +STD Y + 8 + 3 , R23
                 	__PUTD1S 8
                 ; 0000 0440 if (L<pi) LL+= 2.0 * pi;
0009f3 91e0 0260 	LDS  R30,_pi
0009f5 91f0 0261 	LDS  R31,_pi+1
0009f7 9160 0262 	LDS  R22,_pi+2
0009f9 9170 0263 	LDS  R23,_pi+3
0009fb 91a0 026c 	LDS  R26,_L
0009fd 91b0 026d 	LDS  R27,_L+1
0009ff 9180 026e 	LDS  R24,_L+2
000a01 9190 026f 	LDS  R25,_L+3
000a03 940e 2de2 	CALL __CMPF12
000a05 f480      	BRSH _0x68
                +
000a06 e0a0     +LDI R26 , LOW ( 0x40000000 )
000a07 e0b0     +LDI R27 , HIGH ( 0x40000000 )
000a08 e080     +LDI R24 , BYTE3 ( 0x40000000 )
000a09 e490     +LDI R25 , BYTE4 ( 0x40000000 )
                 	__GETD2N 0x40000000
000a0a 940e 2d4f 	CALL __MULF12
                +
000a0c 85a8     +LDD R26 , Y + 8
000a0d 85b9     +LDD R27 , Y + 8 + 1
000a0e 858a     +LDD R24 , Y + 8 + 2
000a0f 859b     +LDD R25 , Y + 8 + 3
                 	__GETD2S 8
000a10 940e 2cff 	CALL __ADDF12
                +
000a12 87e8     +STD Y + 8 , R30
000a13 87f9     +STD Y + 8 + 1 , R31
000a14 876a     +STD Y + 8 + 2 , R22
000a15 877b     +STD Y + 8 + 3 , R23
                 	__PUTD1S 8
                 ; 0000 0441 equation = 1440.0 * (1.0 - LL/pi/2.0);
                 _0x68:
000a16 91e0 0260 	LDS  R30,_pi
000a18 91f0 0261 	LDS  R31,_pi+1
000a1a 9160 0262 	LDS  R22,_pi+2
000a1c 9170 0263 	LDS  R23,_pi+3
                +
000a1e 85a8     +LDD R26 , Y + 8
000a1f 85b9     +LDD R27 , Y + 8 + 1
000a20 858a     +LDD R24 , Y + 8 + 2
000a21 859b     +LDD R25 , Y + 8 + 3
                 	__GETD2S 8
000a22 940e 2d9d 	CALL __DIVF21
000a24 01df      	MOVW R26,R30
000a25 01cb      	MOVW R24,R22
                +
000a26 e0e0     +LDI R30 , LOW ( 0x40000000 )
000a27 e0f0     +LDI R31 , HIGH ( 0x40000000 )
000a28 e060     +LDI R22 , BYTE3 ( 0x40000000 )
000a29 e470     +LDI R23 , BYTE4 ( 0x40000000 )
                 	__GETD1N 0x40000000
000a2a 940e 2d9d 	CALL __DIVF21
                +
000a2c e0a0     +LDI R26 , LOW ( 0x3F800000 )
000a2d e0b0     +LDI R27 , HIGH ( 0x3F800000 )
000a2e e880     +LDI R24 , BYTE3 ( 0x3F800000 )
000a2f e39f     +LDI R25 , BYTE4 ( 0x3F800000 )
                 	__GETD2N 0x3F800000
000a30 940e 2f48 	CALL __SWAPD12
000a32 940e 2cf8 	CALL __SUBF12
                +
000a34 e0a0     +LDI R26 , LOW ( 0x44B40000 )
000a35 e0b0     +LDI R27 , HIGH ( 0x44B40000 )
000a36 eb84     +LDI R24 , BYTE3 ( 0x44B40000 )
000a37 e494     +LDI R25 , BYTE4 ( 0x44B40000 )
                 	__GETD2N 0x44B40000
000a38 940e 2d4f 	CALL __MULF12
                +
000a3a 83ec     +STD Y + 4 , R30
000a3b 83fd     +STD Y + 4 + 1 , R31
000a3c 836e     +STD Y + 4 + 2 , R22
000a3d 837f     +STD Y + 4 + 3 , R23
                 	__PUTD1S 4
                 ; 0000 0442 ha = f0(latit,delta);
                +
000a3e a5e8     +LDD R30 , Y + 40
000a3f a5f9     +LDD R31 , Y + 40 + 1
000a40 a56a     +LDD R22 , Y + 40 + 2
000a41 a57b     +LDD R23 , Y + 40 + 3
                 	__GETD1S 40
000a42 940e 2f39 	CALL __PUTPARD1
                +
000a44 89a8     +LDD R26 , Y + 16
000a45 89b9     +LDD R27 , Y + 16 + 1
000a46 898a     +LDD R24 , Y + 16 + 2
000a47 899b     +LDD R25 , Y + 16 + 3
                 	__GETD2S 16
000a48 dd5a      	RCALL _f0
000a49 940e 2f34 	CALL __PUTD1S0
                 ; 0000 0443 riset = 12.0 - 12.0 * ha/pi +tzone - longit/15.0 +equation/60.0;
                +
000a4b e0a0     +LDI R26 , LOW ( 0x41400000 )
000a4c e0b0     +LDI R27 , HIGH ( 0x41400000 )
000a4d e480     +LDI R24 , BYTE3 ( 0x41400000 )
000a4e e491     +LDI R25 , BYTE4 ( 0x41400000 )
                 	__GETD2N 0x41400000
000a4f 940e 2d4f 	CALL __MULF12
000a51 01df      	MOVW R26,R30
000a52 01cb      	MOVW R24,R22
000a53 91e0 0260 	LDS  R30,_pi
000a55 91f0 0261 	LDS  R31,_pi+1
000a57 9160 0262 	LDS  R22,_pi+2
000a59 9170 0263 	LDS  R23,_pi+3
000a5b 940e 2d9d 	CALL __DIVF21
                +
000a5d e0a0     +LDI R26 , LOW ( 0x41400000 )
000a5e e0b0     +LDI R27 , HIGH ( 0x41400000 )
000a5f e480     +LDI R24 , BYTE3 ( 0x41400000 )
000a60 e491     +LDI R25 , BYTE4 ( 0x41400000 )
                 	__GETD2N 0x41400000
000a61 940e 2f48 	CALL __SWAPD12
000a63 940e 2cf8 	CALL __SUBF12
                +
000a65 a1a8     +LDD R26 , Y + 32
000a66 a1b9     +LDD R27 , Y + 32 + 1
000a67 a18a     +LDD R24 , Y + 32 + 2
000a68 a19b     +LDD R25 , Y + 32 + 3
                 	__GETD2S 32
000a69 940e 2cff 	CALL __ADDF12
000a6b 937f      	PUSH R23
000a6c 936f      	PUSH R22
000a6d 93ff      	PUSH R31
000a6e 93ef      	PUSH R30
                +
000a6f a1ac     +LDD R26 , Y + 36
000a70 a1bd     +LDD R27 , Y + 36 + 1
000a71 a18e     +LDD R24 , Y + 36 + 2
000a72 a19f     +LDD R25 , Y + 36 + 3
                 	__GETD2S 36
                +
000a73 e0e0     +LDI R30 , LOW ( 0x41700000 )
000a74 e0f0     +LDI R31 , HIGH ( 0x41700000 )
000a75 e760     +LDI R22 , BYTE3 ( 0x41700000 )
000a76 e471     +LDI R23 , BYTE4 ( 0x41700000 )
                 	__GETD1N 0x41700000
000a77 940e 2d9d 	CALL __DIVF21
000a79 91af      	POP  R26
000a7a 91bf      	POP  R27
000a7b 918f      	POP  R24
000a7c 919f      	POP  R25
000a7d 940e 2f48 	CALL __SWAPD12
000a7f 940e 2cf8 	CALL __SUBF12
000a81 937f      	PUSH R23
000a82 936f      	PUSH R22
000a83 93ff      	PUSH R31
000a84 93ef      	PUSH R30
                +
000a85 81ac     +LDD R26 , Y + 4
000a86 81bd     +LDD R27 , Y + 4 + 1
000a87 818e     +LDD R24 , Y + 4 + 2
000a88 819f     +LDD R25 , Y + 4 + 3
                 	__GETD2S 4
                +
000a89 e0e0     +LDI R30 , LOW ( 0x42700000 )
000a8a e0f0     +LDI R31 , HIGH ( 0x42700000 )
000a8b e760     +LDI R22 , BYTE3 ( 0x42700000 )
000a8c e472     +LDI R23 , BYTE4 ( 0x42700000 )
                 	__GETD1N 0x42700000
000a8d 940e 2d9d 	CALL __DIVF21
000a8f 91af      	POP  R26
000a90 91bf      	POP  R27
000a91 918f      	POP  R24
000a92 919f      	POP  R25
000a93 940e 2cff 	CALL __ADDF12
000a95 93e0 0280 	STS  _riset,R30
000a97 93f0 0281 	STS  _riset+1,R31
000a99 9360 0282 	STS  _riset+2,R22
000a9b 9370 0283 	STS  _riset+3,R23
                 ; 0000 0444 settm = 12.0 + 12.0 * ha/pi +tzone - longit/15.0 + equation/60.0;
000a9d 940e 2f2a 	CALL __GETD1S0
                +
000a9f e0a0     +LDI R26 , LOW ( 0x41400000 )
000aa0 e0b0     +LDI R27 , HIGH ( 0x41400000 )
000aa1 e480     +LDI R24 , BYTE3 ( 0x41400000 )
000aa2 e491     +LDI R25 , BYTE4 ( 0x41400000 )
                 	__GETD2N 0x41400000
000aa3 940e 2d4f 	CALL __MULF12
000aa5 01df      	MOVW R26,R30
000aa6 01cb      	MOVW R24,R22
000aa7 91e0 0260 	LDS  R30,_pi
000aa9 91f0 0261 	LDS  R31,_pi+1
000aab 9160 0262 	LDS  R22,_pi+2
000aad 9170 0263 	LDS  R23,_pi+3
000aaf 940e 2d9d 	CALL __DIVF21
                +
000ab1 e0a0     +LDI R26 , LOW ( 0x41400000 )
000ab2 e0b0     +LDI R27 , HIGH ( 0x41400000 )
000ab3 e480     +LDI R24 , BYTE3 ( 0x41400000 )
000ab4 e491     +LDI R25 , BYTE4 ( 0x41400000 )
                 	__GETD2N 0x41400000
000ab5 940e 2cff 	CALL __ADDF12
                +
000ab7 a1a8     +LDD R26 , Y + 32
000ab8 a1b9     +LDD R27 , Y + 32 + 1
000ab9 a18a     +LDD R24 , Y + 32 + 2
000aba a19b     +LDD R25 , Y + 32 + 3
                 	__GETD2S 32
000abb 940e 2cff 	CALL __ADDF12
000abd 937f      	PUSH R23
000abe 936f      	PUSH R22
000abf 93ff      	PUSH R31
000ac0 93ef      	PUSH R30
                +
000ac1 a1ac     +LDD R26 , Y + 36
000ac2 a1bd     +LDD R27 , Y + 36 + 1
000ac3 a18e     +LDD R24 , Y + 36 + 2
000ac4 a19f     +LDD R25 , Y + 36 + 3
                 	__GETD2S 36
                +
000ac5 e0e0     +LDI R30 , LOW ( 0x41700000 )
000ac6 e0f0     +LDI R31 , HIGH ( 0x41700000 )
000ac7 e760     +LDI R22 , BYTE3 ( 0x41700000 )
000ac8 e471     +LDI R23 , BYTE4 ( 0x41700000 )
                 	__GETD1N 0x41700000
000ac9 940e 2d9d 	CALL __DIVF21
000acb 91af      	POP  R26
000acc 91bf      	POP  R27
000acd 918f      	POP  R24
000ace 919f      	POP  R25
000acf 940e 2f48 	CALL __SWAPD12
000ad1 940e 2cf8 	CALL __SUBF12
000ad3 937f      	PUSH R23
000ad4 936f      	PUSH R22
000ad5 93ff      	PUSH R31
000ad6 93ef      	PUSH R30
                +
000ad7 81ac     +LDD R26 , Y + 4
000ad8 81bd     +LDD R27 , Y + 4 + 1
000ad9 818e     +LDD R24 , Y + 4 + 2
000ada 819f     +LDD R25 , Y + 4 + 3
                 	__GETD2S 4
                +
000adb e0e0     +LDI R30 , LOW ( 0x42700000 )
000adc e0f0     +LDI R31 , HIGH ( 0x42700000 )
000add e760     +LDI R22 , BYTE3 ( 0x42700000 )
000ade e472     +LDI R23 , BYTE4 ( 0x42700000 )
                 	__GETD1N 0x42700000
000adf 940e 2d9d 	CALL __DIVF21
000ae1 91af      	POP  R26
000ae2 91bf      	POP  R27
000ae3 918f      	POP  R24
000ae4 919f      	POP  R25
000ae5 940e 2cff 	CALL __ADDF12
000ae7 93e0 027c 	STS  _settm,R30
000ae9 93f0 027d 	STS  _settm+1,R31
000aeb 9360 027e 	STS  _settm+2,R22
000aed 9370 027f 	STS  _settm+3,R23
                 ; 0000 0445 if (riset > 24.0) riset =riset -24.0;
000aef 91a0 0280 	LDS  R26,_riset
000af1 91b0 0281 	LDS  R27,_riset+1
000af3 9180 0282 	LDS  R24,_riset+2
000af5 9190 0283 	LDS  R25,_riset+3
                +
000af7 e0e0     +LDI R30 , LOW ( 0x41C00000 )
000af8 e0f0     +LDI R31 , HIGH ( 0x41C00000 )
000af9 ec60     +LDI R22 , BYTE3 ( 0x41C00000 )
000afa e471     +LDI R23 , BYTE4 ( 0x41C00000 )
                 	__GETD1N 0x41C00000
000afb 940e 2de2 	CALL __CMPF12
000afd f009      	BREQ PC+2
000afe f408      	BRCC PC+2
000aff c016      	RJMP _0x69
000b00 91e0 0280 	LDS  R30,_riset
000b02 91f0 0281 	LDS  R31,_riset+1
000b04 9160 0282 	LDS  R22,_riset+2
000b06 9170 0283 	LDS  R23,_riset+3
                +
000b08 e0a0     +LDI R26 , LOW ( 0x41C00000 )
000b09 e0b0     +LDI R27 , HIGH ( 0x41C00000 )
000b0a ec80     +LDI R24 , BYTE3 ( 0x41C00000 )
000b0b e491     +LDI R25 , BYTE4 ( 0x41C00000 )
                 	__GETD2N 0x41C00000
000b0c 940e 2cf8 	CALL __SUBF12
000b0e 93e0 0280 	STS  _riset,R30
000b10 93f0 0281 	STS  _riset+1,R31
000b12 9360 0282 	STS  _riset+2,R22
000b14 9370 0283 	STS  _riset+3,R23
                 ; 0000 0446 if (settm > 24.0) settm =settm -24.0;
                 _0x69:
000b16 91a0 027c 	LDS  R26,_settm
000b18 91b0 027d 	LDS  R27,_settm+1
000b1a 9180 027e 	LDS  R24,_settm+2
000b1c 9190 027f 	LDS  R25,_settm+3
                +
000b1e e0e0     +LDI R30 , LOW ( 0x41C00000 )
000b1f e0f0     +LDI R31 , HIGH ( 0x41C00000 )
000b20 ec60     +LDI R22 , BYTE3 ( 0x41C00000 )
000b21 e471     +LDI R23 , BYTE4 ( 0x41C00000 )
                 	__GETD1N 0x41C00000
000b22 940e 2de2 	CALL __CMPF12
000b24 f009      	BREQ PC+2
000b25 f408      	BRCC PC+2
000b26 c016      	RJMP _0x6A
000b27 91e0 027c 	LDS  R30,_settm
000b29 91f0 027d 	LDS  R31,_settm+1
000b2b 9160 027e 	LDS  R22,_settm+2
000b2d 9170 027f 	LDS  R23,_settm+3
                +
000b2f e0a0     +LDI R26 , LOW ( 0x41C00000 )
000b30 e0b0     +LDI R27 , HIGH ( 0x41C00000 )
000b31 ec80     +LDI R24 , BYTE3 ( 0x41C00000 )
000b32 e491     +LDI R25 , BYTE4 ( 0x41C00000 )
                 	__GETD2N 0x41C00000
000b33 940e 2cf8 	CALL __SUBF12
000b35 93e0 027c 	STS  _settm,R30
000b37 93f0 027d 	STS  _settm+1,R31
000b39 9360 027e 	STS  _settm+2,R22
000b3b 9370 027f 	STS  _settm+3,R23
                 ; 0000 0447 sunrise_min = riset * 60;       //rise time in minutes
                 _0x6A:
000b3d 91a0 0280 	LDS  R26,_riset
000b3f 91b0 0281 	LDS  R27,_riset+1
000b41 9180 0282 	LDS  R24,_riset+2
000b43 9190 0283 	LDS  R25,_riset+3
                +
000b45 e0e0     +LDI R30 , LOW ( 0x42700000 )
000b46 e0f0     +LDI R31 , HIGH ( 0x42700000 )
000b47 e760     +LDI R22 , BYTE3 ( 0x42700000 )
000b48 e472     +LDI R23 , BYTE4 ( 0x42700000 )
                 	__GETD1N 0x42700000
000b49 940e 2d4f 	CALL __MULF12
000b4b 93e0 0288 	STS  _sunrise_min,R30
000b4d 93f0 0289 	STS  _sunrise_min+1,R31
000b4f 9360 028a 	STS  _sunrise_min+2,R22
000b51 9370 028b 	STS  _sunrise_min+3,R23
                 ; 0000 0448 sunset_min = settm * 60;        //set time in minutes
000b53 91a0 027c 	LDS  R26,_settm
000b55 91b0 027d 	LDS  R27,_settm+1
000b57 9180 027e 	LDS  R24,_settm+2
000b59 9190 027f 	LDS  R25,_settm+3
                +
000b5b e0e0     +LDI R30 , LOW ( 0x42700000 )
000b5c e0f0     +LDI R31 , HIGH ( 0x42700000 )
000b5d e760     +LDI R22 , BYTE3 ( 0x42700000 )
000b5e e472     +LDI R23 , BYTE4 ( 0x42700000 )
                 	__GETD1N 0x42700000
000b5f 940e 2d4f 	CALL __MULF12
000b61 93e0 028c 	STS  _sunset_min,R30
000b63 93f0 028d 	STS  _sunset_min+1,R31
000b65 9360 028e 	STS  _sunset_min+2,R22
000b67 9370 028f 	STS  _sunset_min+3,R23
                 ; 0000 0449 daytime = sunset_min - sunrise_min ;   //day time in minutes
000b69 91a0 0288 	LDS  R26,_sunrise_min
000b6b 91b0 0289 	LDS  R27,_sunrise_min+1
000b6d 9180 028a 	LDS  R24,_sunrise_min+2
000b6f 9190 028b 	LDS  R25,_sunrise_min+3
000b71 940e 2cf8 	CALL __SUBF12
000b73 93e0 0284 	STS  _daytime,R30
000b75 93f0 0285 	STS  _daytime+1,R31
000b77 9360 0286 	STS  _daytime+2,R22
000b79 9370 0287 	STS  _daytime+3,R23
                 ; 0000 044A }
000b7b 96ec      	ADIW R28,60
000b7c 9508      	RET
                 ; .FEND
                 ;
                 ;/////*********
                 ;
                 ;
                 ;//void print_realtime(void);
                 ;
                 ;void clear_to_default()
                 ; 0000 0452 {
                 _clear_to_default:
                 ; .FSTART _clear_to_default
                 ; 0000 0453 if (mode!=0)
000b7d 91e0 02ac 	LDS  R30,_mode
000b7f 91f0 02ad 	LDS  R31,_mode+1
000b81 9730      	SBIW R30,0
000b82 f0d1      	BREQ _0x6B
                 ; 0000 0454     {
                 ; 0000 0455                 mode1_count =0;
000b83 e0e0      	LDI  R30,LOW(0)
000b84 93e0 02c0 	STS  _mode1_count,R30
000b86 93e0 02c1 	STS  _mode1_count+1,R30
                 ; 0000 0456                 mode =0;
000b88 93e0 02ac 	STS  _mode,R30
000b8a 93e0 02ad 	STS  _mode+1,R30
                 ; 0000 0457                 pgm_fl =0;
000b8c 94e8      	CLT
000b8d f841      	BLD  R4,1
                 ; 0000 0458                 blink_fl =0;
000b8e f842      	BLD  R4,2
                 ; 0000 0459                 set =0;
000b8f 93e0 02ae 	STS  _set,R30
000b91 93e0 02af 	STS  _set+1,R30
                 ; 0000 045A                 item1 =0;
000b93 93e0 02b0 	STS  _item1,R30
000b95 93e0 02b1 	STS  _item1+1,R30
                 ; 0000 045B                 lcd_clear();
000b97 940e 2b4d 	CALL _lcd_clear
                 ; 0000 045C                 delay_ms(10);
000b99 e0aa      	LDI  R26,LOW(10)
000b9a e0b0      	LDI  R27,0
000b9b 940e 2c4f 	CALL _delay_ms
                 ; 0000 045D     }
                 ; 0000 045E if (manual_fl)
                 _0x6B:
000b9d fe52      	SBRS R5,2
000b9e c015      	RJMP _0x6C
                 ; 0000 045F     {
                 ; 0000 0460             manual_fl =0;
000b9f 94e8      	CLT
000ba0 f852      	BLD  R5,2
                 ; 0000 0461             lcd_clear();
000ba1 940e 2b4d 	CALL _lcd_clear
                 ; 0000 0462             lcd_putsf("manual mode");
                +
000ba3 e7ae     +LDI R26 , LOW ( 2 * _0x0 + ( 0 ) )
000ba4 e0b2     +LDI R27 , HIGH ( 2 * _0x0 + ( 0 ) )
                 	__POINTW2FN _0x0,0
000ba5 940e 2b89 	CALL _lcd_putsf
                 ; 0000 0463             lcd_gotoxy(0,1);
000ba7 e0e0      	LDI  R30,LOW(0)
000ba8 93ea      	ST   -Y,R30
000ba9 e0a1      	LDI  R26,LOW(1)
000baa 940e 2b39 	CALL _lcd_gotoxy
                 ; 0000 0464             lcd_putsf("exiting...");
                +
000bac e8aa     +LDI R26 , LOW ( 2 * _0x0 + ( 12 ) )
000bad e0b2     +LDI R27 , HIGH ( 2 * _0x0 + ( 12 ) )
                 	__POINTW2FN _0x0,12
000bae 940e 2b89 	CALL _lcd_putsf
                 ; 0000 0465             delay_ms(2000);
000bb0 eda0      	LDI  R26,LOW(2000)
000bb1 e0b7      	LDI  R27,HIGH(2000)
000bb2 940e 2c4f 	CALL _delay_ms
                 ; 0000 0466 
                 ; 0000 0467     }
                 ; 0000 0468 }
                 _0x6C:
000bb4 9508      	RET
                 ; .FEND
                 ;
                 ;int to_minute(char hr,char min)
                 ; 0000 046B {
                 _to_minute:
                 ; .FSTART _to_minute
                 ; 0000 046C return (hr*60 + min);
000bb5 93aa      	ST   -Y,R26
                 ;	hr -> Y+1
                 ;	min -> Y+0
000bb6 81a9      	LDD  R26,Y+1
000bb7 e3ec      	LDI  R30,LOW(60)
000bb8 9fea      	MUL  R30,R26
000bb9 01f0      	MOVW R30,R0
000bba 01df      	MOVW R26,R30
000bbb 81e8      	LD   R30,Y
000bbc e0f0      	LDI  R31,0
000bbd 0fea      	ADD  R30,R26
000bbe 1ffb      	ADC  R31,R27
000bbf c19b      	RJMP _0x212000C
                 ; 0000 046D }
                 ; .FEND
                 ;
                 ;
                 ;
                 ;void put_message(long int a)
                 ; 0000 0472 {
                 _put_message:
                 ; .FSTART _put_message
                 ; 0000 0473 char b[5];
                 ; 0000 0474 if (a <0)
000bc0 940e 2f3e 	CALL __PUTPARD2
000bc2 9725      	SBIW R28,5
                 ;	a -> Y+5
                 ;	b -> Y+0
000bc3 85a8      	LDD  R26,Y+8
000bc4 23aa      	TST  R26
000bc5 f472      	BRPL _0x6D
                 ; 0000 0475 {
                 ; 0000 0476 lcd_putchar('-');
000bc6 e2ad      	LDI  R26,LOW(45)
000bc7 940e 2b62 	CALL _lcd_putchar
                 ; 0000 0477 a = -a;
                +
000bc9 81ed     +LDD R30 , Y + 5
000bca 81fe     +LDD R31 , Y + 5 + 1
000bcb 816f     +LDD R22 , Y + 5 + 2
000bcc 8578     +LDD R23 , Y + 5 + 3
                 	__GETD1S 5
000bcd 940e 2e42 	CALL __ANEGD1
                +
000bcf 83ed     +STD Y + 5 , R30
000bd0 83fe     +STD Y + 5 + 1 , R31
000bd1 836f     +STD Y + 5 + 2 , R22
000bd2 8778     +STD Y + 5 + 3 , R23
                 	__PUTD1S 5
                 ; 0000 0478 }
                 ; 0000 0479 else
000bd3 c003      	RJMP _0x6E
                 _0x6D:
                 ; 0000 047A {
                 ; 0000 047B lcd_putchar(' ');
000bd4 e2a0      	LDI  R26,LOW(32)
000bd5 940e 2b62 	CALL _lcd_putchar
                 ; 0000 047C }
                 _0x6E:
                 ; 0000 047D b[0] = a % 10 + 48;
                +
000bd7 81ad     +LDD R26 , Y + 5
000bd8 81be     +LDD R27 , Y + 5 + 1
000bd9 818f     +LDD R24 , Y + 5 + 2
000bda 8598     +LDD R25 , Y + 5 + 3
                 	__GETD2S 5
                +
000bdb e0ea     +LDI R30 , LOW ( 0xA )
000bdc e0f0     +LDI R31 , HIGH ( 0xA )
000bdd e060     +LDI R22 , BYTE3 ( 0xA )
000bde e070     +LDI R23 , BYTE4 ( 0xA )
                 	__GETD1N 0xA
000bdf 940e 2ede 	CALL __MODD21
000be1 5de0      	SUBI R30,-LOW(48)
000be2 83e8      	ST   Y,R30
                 ; 0000 047E a = a/10;
                +
000be3 81ad     +LDD R26 , Y + 5
000be4 81be     +LDD R27 , Y + 5 + 1
000be5 818f     +LDD R24 , Y + 5 + 2
000be6 8598     +LDD R25 , Y + 5 + 3
                 	__GETD2S 5
                +
000be7 e0ea     +LDI R30 , LOW ( 0xA )
000be8 e0f0     +LDI R31 , HIGH ( 0xA )
000be9 e060     +LDI R22 , BYTE3 ( 0xA )
000bea e070     +LDI R23 , BYTE4 ( 0xA )
                 	__GETD1N 0xA
000beb 940e 2ec8 	CALL __DIVD21
                +
000bed 83ed     +STD Y + 5 , R30
000bee 83fe     +STD Y + 5 + 1 , R31
000bef 836f     +STD Y + 5 + 2 , R22
000bf0 8778     +STD Y + 5 + 3 , R23
                 	__PUTD1S 5
                 ; 0000 047F b[1] = a % 10 + 48;
                +
000bf1 81ad     +LDD R26 , Y + 5
000bf2 81be     +LDD R27 , Y + 5 + 1
000bf3 818f     +LDD R24 , Y + 5 + 2
000bf4 8598     +LDD R25 , Y + 5 + 3
                 	__GETD2S 5
                +
000bf5 e0ea     +LDI R30 , LOW ( 0xA )
000bf6 e0f0     +LDI R31 , HIGH ( 0xA )
000bf7 e060     +LDI R22 , BYTE3 ( 0xA )
000bf8 e070     +LDI R23 , BYTE4 ( 0xA )
                 	__GETD1N 0xA
000bf9 940e 2ede 	CALL __MODD21
000bfb 5de0      	SUBI R30,-LOW(48)
000bfc 83e9      	STD  Y+1,R30
                 ; 0000 0480 a = a/10;
                +
000bfd 81ad     +LDD R26 , Y + 5
000bfe 81be     +LDD R27 , Y + 5 + 1
000bff 818f     +LDD R24 , Y + 5 + 2
000c00 8598     +LDD R25 , Y + 5 + 3
                 	__GETD2S 5
                +
000c01 e0ea     +LDI R30 , LOW ( 0xA )
000c02 e0f0     +LDI R31 , HIGH ( 0xA )
000c03 e060     +LDI R22 , BYTE3 ( 0xA )
000c04 e070     +LDI R23 , BYTE4 ( 0xA )
                 	__GETD1N 0xA
000c05 940e 2ec8 	CALL __DIVD21
                +
000c07 83ed     +STD Y + 5 , R30
000c08 83fe     +STD Y + 5 + 1 , R31
000c09 836f     +STD Y + 5 + 2 , R22
000c0a 8778     +STD Y + 5 + 3 , R23
                 	__PUTD1S 5
                 ; 0000 0481 b[2] = a % 10 + 48;
                +
000c0b 81ad     +LDD R26 , Y + 5
000c0c 81be     +LDD R27 , Y + 5 + 1
000c0d 818f     +LDD R24 , Y + 5 + 2
000c0e 8598     +LDD R25 , Y + 5 + 3
                 	__GETD2S 5
                +
000c0f e0ea     +LDI R30 , LOW ( 0xA )
000c10 e0f0     +LDI R31 , HIGH ( 0xA )
000c11 e060     +LDI R22 , BYTE3 ( 0xA )
000c12 e070     +LDI R23 , BYTE4 ( 0xA )
                 	__GETD1N 0xA
000c13 940e 2ede 	CALL __MODD21
000c15 5de0      	SUBI R30,-LOW(48)
000c16 83ea      	STD  Y+2,R30
                 ; 0000 0482 a = a/10;
                +
000c17 81ad     +LDD R26 , Y + 5
000c18 81be     +LDD R27 , Y + 5 + 1
000c19 818f     +LDD R24 , Y + 5 + 2
000c1a 8598     +LDD R25 , Y + 5 + 3
                 	__GETD2S 5
                +
000c1b e0ea     +LDI R30 , LOW ( 0xA )
000c1c e0f0     +LDI R31 , HIGH ( 0xA )
000c1d e060     +LDI R22 , BYTE3 ( 0xA )
000c1e e070     +LDI R23 , BYTE4 ( 0xA )
                 	__GETD1N 0xA
000c1f 940e 2ec8 	CALL __DIVD21
                +
000c21 83ed     +STD Y + 5 , R30
000c22 83fe     +STD Y + 5 + 1 , R31
000c23 836f     +STD Y + 5 + 2 , R22
000c24 8778     +STD Y + 5 + 3 , R23
                 	__PUTD1S 5
                 ; 0000 0483 b[3] = a % 10 + 48;
                +
000c25 81ad     +LDD R26 , Y + 5
000c26 81be     +LDD R27 , Y + 5 + 1
000c27 818f     +LDD R24 , Y + 5 + 2
000c28 8598     +LDD R25 , Y + 5 + 3
                 	__GETD2S 5
                +
000c29 e0ea     +LDI R30 , LOW ( 0xA )
000c2a e0f0     +LDI R31 , HIGH ( 0xA )
000c2b e060     +LDI R22 , BYTE3 ( 0xA )
000c2c e070     +LDI R23 , BYTE4 ( 0xA )
                 	__GETD1N 0xA
000c2d 940e 2ede 	CALL __MODD21
000c2f 5de0      	SUBI R30,-LOW(48)
000c30 83eb      	STD  Y+3,R30
                 ; 0000 0484 a = a/10;
                +
000c31 81ad     +LDD R26 , Y + 5
000c32 81be     +LDD R27 , Y + 5 + 1
000c33 818f     +LDD R24 , Y + 5 + 2
000c34 8598     +LDD R25 , Y + 5 + 3
                 	__GETD2S 5
                +
000c35 e0ea     +LDI R30 , LOW ( 0xA )
000c36 e0f0     +LDI R31 , HIGH ( 0xA )
000c37 e060     +LDI R22 , BYTE3 ( 0xA )
000c38 e070     +LDI R23 , BYTE4 ( 0xA )
                 	__GETD1N 0xA
000c39 940e 2ec8 	CALL __DIVD21
                +
000c3b 83ed     +STD Y + 5 , R30
000c3c 83fe     +STD Y + 5 + 1 , R31
000c3d 836f     +STD Y + 5 + 2 , R22
000c3e 8778     +STD Y + 5 + 3 , R23
                 	__PUTD1S 5
                 ; 0000 0485 b[4] = a + 48;
000c3f 81ed      	LDD  R30,Y+5
000c40 5de0      	SUBI R30,-LOW(48)
000c41 83ec      	STD  Y+4,R30
                 ; 0000 0486 lcd_putchar(b[4]);
000c42 81ac      	LDD  R26,Y+4
000c43 940e 2b62 	CALL _lcd_putchar
                 ; 0000 0487 lcd_putchar(b[3]);
000c45 81ab      	LDD  R26,Y+3
000c46 940e 2b62 	CALL _lcd_putchar
                 ; 0000 0488 lcd_putchar(b[2]);
000c48 81aa      	LDD  R26,Y+2
000c49 940e 2b62 	CALL _lcd_putchar
                 ; 0000 0489 lcd_putchar(b[1]);
000c4b 81a9      	LDD  R26,Y+1
000c4c 940e 2b62 	CALL _lcd_putchar
                 ; 0000 048A lcd_putchar(b[0]);
000c4e 81a8      	LD   R26,Y
000c4f 940e 2b62 	CALL _lcd_putchar
                 ; 0000 048B 
                 ; 0000 048C 
                 ; 0000 048D }
000c51 9629      	ADIW R28,9
000c52 9508      	RET
                 ; .FEND
                 ;
                 ;void put_message2(unsigned char a)
                 ; 0000 0490 {
                 _put_message2:
                 ; .FSTART _put_message2
                 ; 0000 0491 char b[2];
                 ; 0000 0492 b[0] = a % 10 + 48;
000c53 93aa      	ST   -Y,R26
000c54 9722      	SBIW R28,2
                 ;	a -> Y+2
                 ;	b -> Y+0
000c55 81aa      	LDD  R26,Y+2
000c56 27bb      	CLR  R27
000c57 e0ea      	LDI  R30,LOW(10)
000c58 e0f0      	LDI  R31,HIGH(10)
000c59 940e 2ed0 	CALL __MODW21
000c5b 5de0      	SUBI R30,-LOW(48)
000c5c 83e8      	ST   Y,R30
                 ; 0000 0493 a = a/10;
000c5d 81aa      	LDD  R26,Y+2
000c5e e0b0      	LDI  R27,0
000c5f e0ea      	LDI  R30,LOW(10)
000c60 e0f0      	LDI  R31,HIGH(10)
000c61 940e 2e9e 	CALL __DIVW21
000c63 83ea      	STD  Y+2,R30
                 ; 0000 0494 b[1] = a + 48;
000c64 5de0      	SUBI R30,-LOW(48)
000c65 83e9      	STD  Y+1,R30
                 ; 0000 0495 lcd_putchar(b[1]);
000c66 81a9      	LDD  R26,Y+1
000c67 940e 2b62 	CALL _lcd_putchar
                 ; 0000 0496 lcd_putchar(b[0]);
000c69 81a8      	LD   R26,Y
000c6a 940e 2b62 	CALL _lcd_putchar
                 ; 0000 0497 }
000c6c c0d7      	RJMP _0x212000D
                 ; .FEND
                 ;
                 ;void put_message3(unsigned int a)
                 ; 0000 049A {
                 _put_message3:
                 ; .FSTART _put_message3
                 ; 0000 049B char b[3];
                 ; 0000 049C b[0] = (a %10) + 48;
000c6d 93ba      	ST   -Y,R27
000c6e 93aa      	ST   -Y,R26
000c6f 9723      	SBIW R28,3
                 ;	a -> Y+3
                 ;	b -> Y+0
000c70 81ab      	LDD  R26,Y+3
000c71 81bc      	LDD  R27,Y+3+1
000c72 e0ea      	LDI  R30,LOW(10)
000c73 e0f0      	LDI  R31,HIGH(10)
000c74 940e 2ecd 	CALL __MODW21U
000c76 5de0      	SUBI R30,-LOW(48)
000c77 83e8      	ST   Y,R30
                 ; 0000 049D a = a/10;
000c78 81ab      	LDD  R26,Y+3
000c79 81bc      	LDD  R27,Y+3+1
000c7a e0ea      	LDI  R30,LOW(10)
000c7b e0f0      	LDI  R31,HIGH(10)
000c7c 940e 2e8b 	CALL __DIVW21U
000c7e 83eb      	STD  Y+3,R30
000c7f 83fc      	STD  Y+3+1,R31
                 ; 0000 049E b[1] = (a %10) + 48;
000c80 81ab      	LDD  R26,Y+3
000c81 81bc      	LDD  R27,Y+3+1
000c82 e0ea      	LDI  R30,LOW(10)
000c83 e0f0      	LDI  R31,HIGH(10)
000c84 940e 2ecd 	CALL __MODW21U
000c86 5de0      	SUBI R30,-LOW(48)
000c87 83e9      	STD  Y+1,R30
                 ; 0000 049F a = a/10;
000c88 81ab      	LDD  R26,Y+3
000c89 81bc      	LDD  R27,Y+3+1
000c8a e0ea      	LDI  R30,LOW(10)
000c8b e0f0      	LDI  R31,HIGH(10)
000c8c 940e 2e8b 	CALL __DIVW21U
000c8e 83eb      	STD  Y+3,R30
000c8f 83fc      	STD  Y+3+1,R31
                 ; 0000 04A0 b[2] = a + 48;
000c90 81eb      	LDD  R30,Y+3
000c91 5de0      	SUBI R30,-LOW(48)
000c92 83ea      	STD  Y+2,R30
                 ; 0000 04A1 lcd_putchar(b[2]);
000c93 81aa      	LDD  R26,Y+2
000c94 940e 2b62 	CALL _lcd_putchar
                 ; 0000 04A2 lcd_putchar(b[1]);
000c96 81a9      	LDD  R26,Y+1
000c97 940e 2b62 	CALL _lcd_putchar
                 ; 0000 04A3 lcd_putchar(b[0]);
000c99 81a8      	LD   R26,Y
000c9a 940e 2b62 	CALL _lcd_putchar
                 ; 0000 04A4 }
                 _0x212000F:
000c9c 9625      	ADIW R28,5
000c9d 9508      	RET
                 ; .FEND
                 ;
                 ;void blink_control(void)
                 ; 0000 04A7 {
                 _blink_control:
                 ; .FSTART _blink_control
                 ; 0000 04A8 if (blink_fl)
000c9e fe42      	SBRS R4,2
000c9f c02e      	RJMP _0x6F
                 ; 0000 04A9 {
                 ; 0000 04AA  blink_count++;
000ca0 eca2      	LDI  R26,LOW(_blink_count)
000ca1 e0b2      	LDI  R27,HIGH(_blink_count)
000ca2 91ed      	LD   R30,X+
000ca3 91fd      	LD   R31,X+
000ca4 9631      	ADIW R30,1
000ca5 93fe      	ST   -X,R31
000ca6 93ee      	ST   -X,R30
                 ; 0000 04AB  if (blink_count >=200) blink_count =0;
000ca7 91a0 02c2 	LDS  R26,_blink_count
000ca9 91b0 02c3 	LDS  R27,_blink_count+1
000cab 3ca8      	CPI  R26,LOW(0xC8)
000cac e0e0      	LDI  R30,HIGH(0xC8)
000cad 07be      	CPC  R27,R30
000cae f028      	BRLO _0x70
000caf e0e0      	LDI  R30,LOW(0)
000cb0 93e0 02c2 	STS  _blink_count,R30
000cb2 93e0 02c3 	STS  _blink_count+1,R30
                 ; 0000 04AC 
                 ; 0000 04AD  if (blink_count >=150)
                 _0x70:
000cb4 91a0 02c2 	LDS  R26,_blink_count
000cb6 91b0 02c3 	LDS  R27,_blink_count+1
000cb8 39a6      	CPI  R26,LOW(0x96)
000cb9 e0e0      	LDI  R30,HIGH(0x96)
000cba 07be      	CPC  R27,R30
000cbb f050      	BRLO _0x71
                 ; 0000 04AE  {
                 ; 0000 04AF  lcd_gotoxy(blink_locx,blink_locy);
000cbc 92ca      	ST   -Y,R12
000cbd 91a0 02c8 	LDS  R26,_blink_locy
000cbf 940e 2b39 	CALL _lcd_gotoxy
                 ; 0000 04B0  lcd_putsf("  ");
                +
000cc1 e9a5     +LDI R26 , LOW ( 2 * _0x0 + ( 23 ) )
000cc2 e0b2     +LDI R27 , HIGH ( 2 * _0x0 + ( 23 ) )
                 	__POINTW2FN _0x0,23
000cc3 940e 2b89 	CALL _lcd_putsf
                 ; 0000 04B1  }
                 ; 0000 04B2  else
000cc5 c008      	RJMP _0x72
                 _0x71:
                 ; 0000 04B3  {
                 ; 0000 04B4  lcd_gotoxy(blink_locx,blink_locy);
000cc6 92ca      	ST   -Y,R12
000cc7 91a0 02c8 	LDS  R26,_blink_locy
000cc9 940e 2b39 	CALL _lcd_gotoxy
                 ; 0000 04B5  put_message2(blink_data);
000ccb 91a0 02c9 	LDS  R26,_blink_data
000ccd df85      	RCALL _put_message2
                 ; 0000 04B6  }
                 _0x72:
                 ; 0000 04B7 
                 ; 0000 04B8 
                 ; 0000 04B9 
                 ; 0000 04BA  }
                 ; 0000 04BB  }
                 _0x6F:
000cce 9508      	RET
                 ; .FEND
                 ;
                 ;void display_time(void)
                 ; 0000 04BE {
                 _display_time:
                 ; .FSTART _display_time
                 ; 0000 04BF       put_message2(hour);
000ccf 2da7      	MOV  R26,R7
000cd0 df82      	RCALL _put_message2
                 ; 0000 04C0       lcd_putchar(':');
000cd1 e3aa      	LDI  R26,LOW(58)
000cd2 940e 2b62 	CALL _lcd_putchar
                 ; 0000 04C1       put_message2(minute);
000cd4 2da6      	MOV  R26,R6
000cd5 df7d      	RCALL _put_message2
                 ; 0000 04C2       lcd_putchar(':');
000cd6 e3aa      	LDI  R26,LOW(58)
000cd7 940e 2b62 	CALL _lcd_putchar
                 ; 0000 04C3       put_message2(second);
000cd9 2da9      	MOV  R26,R9
000cda c04d      	RJMP _0x212000E
                 ; 0000 04C4 }
                 ; .FEND
                 ;
                 ;void display_latlong(signed int l)
                 ; 0000 04C7 {
                 _display_latlong:
                 ; .FSTART _display_latlong
                 ; 0000 04C8 unsigned int m;
                 ; 0000 04C9 if (l<0)
000cdb 93ba      	ST   -Y,R27
000cdc 93aa      	ST   -Y,R26
000cdd 931a      	ST   -Y,R17
000cde 930a      	ST   -Y,R16
                 ;	l -> Y+2
                 ;	m -> R16,R17
000cdf 81ab      	LDD  R26,Y+3
000ce0 23aa      	TST  R26
000ce1 f412      	BRPL _0x73
                 ; 0000 04CA lcd_putchar('-');
000ce2 e2ad      	LDI  R26,LOW(45)
000ce3 c001      	RJMP _0x27F
                 ; 0000 04CB else
                 _0x73:
                 ; 0000 04CC lcd_putchar('+');
000ce4 e2ab      	LDI  R26,LOW(43)
                 _0x27F:
000ce5 940e 2b62 	CALL _lcd_putchar
                 ; 0000 04CD m = abs(l);
000ce7 81aa      	LDD  R26,Y+2
000ce8 81bb      	LDD  R27,Y+2+1
000ce9 940e 2a1a 	CALL _abs
000ceb 018f      	MOVW R16,R30
                 ; 0000 04CE put_message3(m/100);
000cec 01d8      	MOVW R26,R16
000ced e6e4      	LDI  R30,LOW(100)
000cee e0f0      	LDI  R31,HIGH(100)
000cef 940e 2e8b 	CALL __DIVW21U
000cf1 01df      	MOVW R26,R30
000cf2 df7a      	RCALL _put_message3
                 ; 0000 04CF lcd_putchar('.');
000cf3 e2ae      	LDI  R26,LOW(46)
000cf4 940e 2b62 	CALL _lcd_putchar
                 ; 0000 04D0 put_message2(m%100);
000cf6 01d8      	MOVW R26,R16
000cf7 e6e4      	LDI  R30,LOW(100)
000cf8 e0f0      	LDI  R31,HIGH(100)
000cf9 940e 2ecd 	CALL __MODW21U
000cfb 2fae      	MOV  R26,R30
000cfc df56      	RCALL _put_message2
                 ; 0000 04D1 }
000cfd c0b0      	RJMP _0x212000A
                 ; .FEND
                 ;
                 ;void display_modbus(signed int l)
                 ; 0000 04D4 {
                 _display_modbus:
                 ; .FSTART _display_modbus
                 ; 0000 04D5 unsigned int m;
                 ; 0000 04D6 lcd_putchar(' ');
000cfe 93ba      	ST   -Y,R27
000cff 93aa      	ST   -Y,R26
000d00 931a      	ST   -Y,R17
000d01 930a      	ST   -Y,R16
                 ;	l -> Y+2
                 ;	m -> R16,R17
000d02 e2a0      	LDI  R26,LOW(32)
000d03 940e 2b62 	CALL _lcd_putchar
                 ; 0000 04D7 m = abs(l);
000d05 81aa      	LDD  R26,Y+2
000d06 81bb      	LDD  R27,Y+2+1
000d07 940e 2a1a 	CALL _abs
000d09 018f      	MOVW R16,R30
                 ; 0000 04D8 put_message2(m/100);
000d0a 01d8      	MOVW R26,R16
000d0b e6e4      	LDI  R30,LOW(100)
000d0c e0f0      	LDI  R31,HIGH(100)
000d0d 940e 2e8b 	CALL __DIVW21U
000d0f 2fae      	MOV  R26,R30
000d10 df42      	RCALL _put_message2
                 ; 0000 04D9 put_message2(m%100);
000d11 01d8      	MOVW R26,R16
000d12 e6e4      	LDI  R30,LOW(100)
000d13 e0f0      	LDI  R31,HIGH(100)
000d14 940e 2ecd 	CALL __MODW21U
000d16 2fae      	MOV  R26,R30
000d17 df3b      	RCALL _put_message2
                 ; 0000 04DA }
000d18 c095      	RJMP _0x212000A
                 ; .FEND
                 ;
                 ;
                 ;
                 ;/*
                 ;void display_time2(int t)
                 ;{
                 ;    put_message2(t/100);
                 ;    lcd_putchar(':');
                 ;    put_message2((t%100)*6/10);
                 ;}
                 ;*/
                 ;
                 ;void display_date(void)
                 ; 0000 04E8 {
                 _display_date:
                 ; .FSTART _display_date
                 ; 0000 04E9       put_message2(day);
000d19 2dab      	MOV  R26,R11
000d1a df38      	RCALL _put_message2
                 ; 0000 04EA       lcd_putchar('.');
000d1b e2ae      	LDI  R26,LOW(46)
000d1c 940e 2b62 	CALL _lcd_putchar
                 ; 0000 04EB       put_message2(month);
000d1e 2daa      	MOV  R26,R10
000d1f df33      	RCALL _put_message2
                 ; 0000 04EC       lcd_putchar('.');
000d20 e2ae      	LDI  R26,LOW(46)
000d21 940e 2b62 	CALL _lcd_putchar
                 ; 0000 04ED       lcd_putsf("20");
                +
000d23 e9a8     +LDI R26 , LOW ( 2 * _0x0 + ( 26 ) )
000d24 e0b2     +LDI R27 , HIGH ( 2 * _0x0 + ( 26 ) )
                 	__POINTW2FN _0x0,26
000d25 940e 2b89 	CALL _lcd_putsf
                 ; 0000 04EE       put_message2(year);
000d27 2dad      	MOV  R26,R13
                 _0x212000E:
000d28 df2a      	RCALL _put_message2
                 ; 0000 04EF }
000d29 9508      	RET
                 ; .FEND
                 ;
                 ;/*
                 ;void display_day(int data)
                 ;{
                 ;char a;
                 ;a = data /100;
                 ;put_message2(a);
                 ;lcd_putsf(":");
                 ;a = data%100;
                 ;put_message2(a);
                 ;}
                 ;*/
                 ;
                 ;void display_day2(int data)
                 ; 0000 04FE {
                 _display_day2:
                 ; .FSTART _display_day2
                 ; 0000 04FF char a;
                 ; 0000 0500 a = data /60;
000d2a 93ba      	ST   -Y,R27
000d2b 93aa      	ST   -Y,R26
000d2c 931a      	ST   -Y,R17
                 ;	data -> Y+1
                 ;	a -> R17
000d2d 81a9      	LDD  R26,Y+1
000d2e 81ba      	LDD  R27,Y+1+1
000d2f e3ec      	LDI  R30,LOW(60)
000d30 e0f0      	LDI  R31,HIGH(60)
000d31 940e 2e9e 	CALL __DIVW21
000d33 2f1e      	MOV  R17,R30
                 ; 0000 0501 put_message2(a);
000d34 2fa1      	MOV  R26,R17
000d35 df1d      	RCALL _put_message2
                 ; 0000 0502 lcd_putsf(":");
                +
000d36 e9ab     +LDI R26 , LOW ( 2 * _0x0 + ( 29 ) )
000d37 e0b2     +LDI R27 , HIGH ( 2 * _0x0 + ( 29 ) )
                 	__POINTW2FN _0x0,29
000d38 940e 2b89 	CALL _lcd_putsf
                 ; 0000 0503 a = data%60;
000d3a 81a9      	LDD  R26,Y+1
000d3b 81ba      	LDD  R27,Y+1+1
000d3c e3ec      	LDI  R30,LOW(60)
000d3d e0f0      	LDI  R31,HIGH(60)
000d3e 940e 2ed0 	CALL __MODW21
000d40 2f1e      	MOV  R17,R30
                 ; 0000 0504 put_message2(a);
000d41 2fa1      	MOV  R26,R17
000d42 df10      	RCALL _put_message2
                 ; 0000 0505 }
000d43 8118      	LDD  R17,Y+0
                 _0x212000D:
000d44 9623      	ADIW R28,3
000d45 9508      	RET
                 ; .FEND
                 ;
                 ;void display_analog(int a)
                 ; 0000 0508 {
                 _display_analog:
                 ; .FSTART _display_analog
                 ; 0000 0509     put_message2(a/100);
000d46 93ba      	ST   -Y,R27
000d47 93aa      	ST   -Y,R26
                 ;	a -> Y+0
000d48 81a8      	LD   R26,Y
000d49 81b9      	LDD  R27,Y+1
000d4a e6e4      	LDI  R30,LOW(100)
000d4b e0f0      	LDI  R31,HIGH(100)
000d4c 940e 2e9e 	CALL __DIVW21
000d4e 2fae      	MOV  R26,R30
000d4f df03      	RCALL _put_message2
                 ; 0000 050A     lcd_putchar('.');
000d50 e2ae      	LDI  R26,LOW(46)
000d51 940e 2b62 	CALL _lcd_putchar
                 ; 0000 050B     put_message2(a%100);
000d53 81a8      	LD   R26,Y
000d54 81b9      	LDD  R27,Y+1
000d55 e6e4      	LDI  R30,LOW(100)
000d56 e0f0      	LDI  R31,HIGH(100)
000d57 940e 2ed0 	CALL __MODW21
000d59 2fae      	MOV  R26,R30
000d5a def8      	RCALL _put_message2
                 ; 0000 050C }
                 _0x212000C:
000d5b 9622      	ADIW R28,2
000d5c 9508      	RET
                 ; .FEND
                 ;
                 ;void display_angle(int a)
                 ; 0000 050F {
                 _display_angle:
                 ; .FSTART _display_angle
                 ; 0000 0510 char x,y;
                 ; 0000 0511 if (a<0)
000d5d 93ba      	ST   -Y,R27
000d5e 93aa      	ST   -Y,R26
000d5f 931a      	ST   -Y,R17
000d60 930a      	ST   -Y,R16
                 ;	a -> Y+2
                 ;	x -> R17
                 ;	y -> R16
000d61 81ab      	LDD  R26,Y+3
000d62 23aa      	TST  R26
000d63 f442      	BRPL _0x75
                 ; 0000 0512 {
                 ; 0000 0513 a = -a;
000d64 81ea      	LDD  R30,Y+2
000d65 81fb      	LDD  R31,Y+2+1
000d66 940e 2e3e 	CALL __ANEGW1
000d68 83ea      	STD  Y+2,R30
000d69 83fb      	STD  Y+2+1,R31
                 ; 0000 0514 lcd_putchar('-');
000d6a e2ad      	LDI  R26,LOW(45)
000d6b c001      	RJMP _0x280
                 ; 0000 0515 }
                 ; 0000 0516 else
                 _0x75:
                 ; 0000 0517 {
                 ; 0000 0518 lcd_putchar(' ');
000d6c e2a0      	LDI  R26,LOW(32)
                 _0x280:
000d6d 940e 2b62 	CALL _lcd_putchar
                 ; 0000 0519 }
                 ; 0000 051A y = a/10;
000d6f c012      	RJMP _0x2120009
                 ; 0000 051B x = y%100;
                 ; 0000 051C y = y/100;
                 ; 0000 051D lcd_putchar(y+48);
                 ; 0000 051E put_message2(x);
                 ; 0000 051F 
                 ; 0000 0520 lcd_putchar('.');
                 ; 0000 0521 x = a%10;
                 ; 0000 0522 
                 ; 0000 0523 lcd_putchar(x+48);
                 ; 0000 0524 lcd_putchar(0);
                 ; 0000 0525 }
                 ; .FEND
                 ;
                 ;void display_angle1(int a)
                 ; 0000 0528 {
                 _display_angle1:
                 ; .FSTART _display_angle1
                 ; 0000 0529 char x,y;
                 ; 0000 052A if (a<0)
000d70 93ba      	ST   -Y,R27
000d71 93aa      	ST   -Y,R26
000d72 931a      	ST   -Y,R17
000d73 930a      	ST   -Y,R16
                 ;	a -> Y+2
                 ;	x -> R17
                 ;	y -> R16
000d74 81ab      	LDD  R26,Y+3
000d75 23aa      	TST  R26
000d76 f442      	BRPL _0x77
                 ; 0000 052B {
                 ; 0000 052C a = -a;
000d77 81ea      	LDD  R30,Y+2
000d78 81fb      	LDD  R31,Y+2+1
000d79 940e 2e3e 	CALL __ANEGW1
000d7b 83ea      	STD  Y+2,R30
000d7c 83fb      	STD  Y+2+1,R31
                 ; 0000 052D lcd_putchar('-');
000d7d e2ad      	LDI  R26,LOW(45)
000d7e c001      	RJMP _0x281
                 ; 0000 052E }
                 ; 0000 052F else
                 _0x77:
                 ; 0000 0530 {
                 ; 0000 0531 lcd_putchar(' ');
000d7f e2a0      	LDI  R26,LOW(32)
                 _0x281:
000d80 940e 2b62 	CALL _lcd_putchar
                 ; 0000 0532 }
                 ; 0000 0533 y = a/10;
                 _0x2120009:
000d82 81aa      	LDD  R26,Y+2
000d83 81bb      	LDD  R27,Y+2+1
000d84 e0ea      	LDI  R30,LOW(10)
000d85 e0f0      	LDI  R31,HIGH(10)
000d86 940e 2e9e 	CALL __DIVW21
000d88 2f0e      	MOV  R16,R30
                 ; 0000 0534 x = y%100;
000d89 2fa0      	MOV  R26,R16
000d8a 27bb      	CLR  R27
000d8b e6e4      	LDI  R30,LOW(100)
000d8c e0f0      	LDI  R31,HIGH(100)
000d8d 940e 2ed0 	CALL __MODW21
000d8f 2f1e      	MOV  R17,R30
                 ; 0000 0535 y = y/100;
000d90 2fa0      	MOV  R26,R16
000d91 e0b0      	LDI  R27,0
000d92 e6e4      	LDI  R30,LOW(100)
000d93 e0f0      	LDI  R31,HIGH(100)
000d94 940e 2e9e 	CALL __DIVW21
000d96 2f0e      	MOV  R16,R30
                 ; 0000 0536 lcd_putchar(y+48);
000d97 2fa0      	MOV  R26,R16
000d98 5da0      	SUBI R26,-LOW(48)
000d99 940e 2b62 	CALL _lcd_putchar
                 ; 0000 0537 put_message2(x);
000d9b 2fa1      	MOV  R26,R17
000d9c deb6      	RCALL _put_message2
                 ; 0000 0538 
                 ; 0000 0539 lcd_putchar('.');
000d9d e2ae      	LDI  R26,LOW(46)
000d9e 940e 2b62 	CALL _lcd_putchar
                 ; 0000 053A x = a%10;
000da0 81aa      	LDD  R26,Y+2
000da1 81bb      	LDD  R27,Y+2+1
000da2 e0ea      	LDI  R30,LOW(10)
000da3 e0f0      	LDI  R31,HIGH(10)
000da4 940e 2ed0 	CALL __MODW21
000da6 2f1e      	MOV  R17,R30
                 ; 0000 053B 
                 ; 0000 053C lcd_putchar(x+48);
000da7 2fa1      	MOV  R26,R17
000da8 5da0      	SUBI R26,-LOW(48)
000da9 940e 2b62 	CALL _lcd_putchar
                 ; 0000 053D lcd_putchar(0);
000dab e0a0      	LDI  R26,LOW(0)
000dac 940e 2b62 	CALL _lcd_putchar
                 ; 0000 053E }
                 _0x212000A:
000dae 8119      	LDD  R17,Y+1
000daf 8108      	LDD  R16,Y+0
                 _0x212000B:
000db0 9624      	ADIW R28,4
000db1 9508      	RET
                 ; .FEND
                 ;
                 ;
                 ;void check_mode(void)
                 ; 0000 0542 {
                 _check_mode:
                 ; .FSTART _check_mode
                 ; 0000 0543 //key1 =1;
                 ; 0000 0544 if (!key1)
000db2 99c8      	SBIC 0x19,0
000db3 c069      	RJMP _0x79
                 ; 0000 0545     {
                 ; 0000 0546     bright_cnt =0;
000db4 e0e0      	LDI  R30,LOW(0)
000db5 93e0 02b2 	STS  _bright_cnt,R30
000db7 93e0 02b3 	STS  _bright_cnt+1,R30
                 ; 0000 0547     program_timeout=0;
000db9 93e0 02a8 	STS  _program_timeout,R30
000dbb 93e0 02a9 	STS  _program_timeout+1,R30
000dbd 93e0 02aa 	STS  _program_timeout+2,R30
000dbf 93e0 02ab 	STS  _program_timeout+3,R30
                 ; 0000 0548         mode1_count++;
000dc1 eca0      	LDI  R26,LOW(_mode1_count)
000dc2 e0b2      	LDI  R27,HIGH(_mode1_count)
000dc3 91ed      	LD   R30,X+
000dc4 91fd      	LD   R31,X+
000dc5 9631      	ADIW R30,1
000dc6 93fe      	ST   -X,R31
000dc7 93ee      	ST   -X,R30
                 ; 0000 0549         if (mode1_count >= 1000)
000dc8 91a0 02c0 	LDS  R26,_mode1_count
000dca 91b0 02c1 	LDS  R27,_mode1_count+1
000dcc 3ea8      	CPI  R26,LOW(0x3E8)
000dcd e0e3      	LDI  R30,HIGH(0x3E8)
000dce 07be      	CPC  R27,R30
000dcf f408      	BRSH PC+2
000dd0 c04b      	RJMP _0x7A
                 ; 0000 054A         {
                 ; 0000 054B             if (mode == 0)
000dd1 91e0 02ac 	LDS  R30,_mode
000dd3 91f0 02ad 	LDS  R31,_mode+1
000dd5 9730      	SBIW R30,0
000dd6 f559      	BRNE _0x7B
                 ; 0000 054C             {
                 ; 0000 054D                 mode1_count=0;
000dd7 e0e0      	LDI  R30,LOW(0)
000dd8 93e0 02c0 	STS  _mode1_count,R30
000dda 93e0 02c1 	STS  _mode1_count+1,R30
                 ; 0000 054E                 mode =1;
000ddc e0e1      	LDI  R30,LOW(1)
000ddd e0f0      	LDI  R31,HIGH(1)
000dde 93e0 02ac 	STS  _mode,R30
000de0 93f0 02ad 	STS  _mode+1,R31
                 ; 0000 054F                 pgm_fl =1;
000de2 9468      	SET
000de3 f841      	BLD  R4,1
                 ; 0000 0550 //                lcd_gotoxy(0,0);
                 ; 0000 0551                 lcd_clear();
000de4 940e 2b4d 	CALL _lcd_clear
                 ; 0000 0552                 lcd_putsf("set the time");
                +
000de6 e9ad     +LDI R26 , LOW ( 2 * _0x0 + ( 31 ) )
000de7 e0b2     +LDI R27 , HIGH ( 2 * _0x0 + ( 31 ) )
                 	__POINTW2FN _0x0,31
000de8 940e 2b89 	CALL _lcd_putsf
                 ; 0000 0553                 lcd_gotoxy(0,1);
000dea e0e0      	LDI  R30,LOW(0)
000deb 93ea      	ST   -Y,R30
000dec e0a1      	LDI  R26,LOW(1)
000ded 940e 2b39 	CALL _lcd_gotoxy
                 ; 0000 0554                 display_time();
000def dedf      	RCALL _display_time
                 ; 0000 0555                 blink_data = hour;
000df0 9270 02c9 	STS  _blink_data,R7
                 ; 0000 0556                 blink_locx =0;
000df2 24cc      	CLR  R12
                 ; 0000 0557                 blink_locy =1;
000df3 e0e1      	LDI  R30,LOW(1)
000df4 93e0 02c8 	STS  _blink_locy,R30
                 ; 0000 0558                 blink_fl =1;
000df6 9468      	SET
000df7 f842      	BLD  R4,2
                 ; 0000 0559                 set =0;
000df8 e0e0      	LDI  R30,LOW(0)
000df9 93e0 02ae 	STS  _set,R30
000dfb 93e0 02af 	STS  _set+1,R30
                 ; 0000 055A                 item1 =0;
000dfd 93e0 02b0 	STS  _item1,R30
000dff 93e0 02b1 	STS  _item1+1,R30
                 ; 0000 055B             }
                 ; 0000 055C             else
000e01 c01a      	RJMP _0x7C
                 _0x7B:
                 ; 0000 055D             {
                 ; 0000 055E                 mode1_count =0;
000e02 e0e0      	LDI  R30,LOW(0)
000e03 93e0 02c0 	STS  _mode1_count,R30
000e05 93e0 02c1 	STS  _mode1_count+1,R30
                 ; 0000 055F                 mode =0;
000e07 93e0 02ac 	STS  _mode,R30
000e09 93e0 02ad 	STS  _mode+1,R30
                 ; 0000 0560                 pgm_fl =0;
000e0b 94e8      	CLT
000e0c f841      	BLD  R4,1
                 ; 0000 0561                 blink_fl =0;
000e0d f842      	BLD  R4,2
                 ; 0000 0562                 set =0;
000e0e 93e0 02ae 	STS  _set,R30
000e10 93e0 02af 	STS  _set+1,R30
                 ; 0000 0563                 item1 =0;
000e12 93e0 02b0 	STS  _item1,R30
000e14 93e0 02b1 	STS  _item1+1,R30
                 ; 0000 0564                 lcd_clear();
000e16 940e 2b4d 	CALL _lcd_clear
                 ; 0000 0565                 delay_ms(10);
000e18 e0aa      	LDI  R26,LOW(10)
000e19 e0b0      	LDI  R27,0
000e1a 940e 2c4f 	CALL _delay_ms
                 ; 0000 0566             }
                 _0x7C:
                 ; 0000 0567         }
                 ; 0000 0568     }
                 _0x7A:
                 ; 0000 0569 else
000e1c c005      	RJMP _0x7D
                 _0x79:
                 ; 0000 056A     mode1_count =0;
000e1d e0e0      	LDI  R30,LOW(0)
000e1e 93e0 02c0 	STS  _mode1_count,R30
000e20 93e0 02c1 	STS  _mode1_count+1,R30
                 ; 0000 056B 
                 ; 0000 056C //////manual mode key check
                 ; 0000 056D if (!key4)
                 _0x7D:
000e22 99cb      	SBIC 0x19,3
000e23 c03c      	RJMP _0x7E
                 ; 0000 056E {
                 ; 0000 056F manual_cnt++;
000e24 eca6      	LDI  R26,LOW(_manual_cnt)
000e25 e0b2      	LDI  R27,HIGH(_manual_cnt)
000e26 91ed      	LD   R30,X+
000e27 91fd      	LD   R31,X+
000e28 9631      	ADIW R30,1
000e29 93fe      	ST   -X,R31
000e2a 93ee      	ST   -X,R30
                 ; 0000 0570 if (manual_cnt > 2000)
000e2b 91a0 02c6 	LDS  R26,_manual_cnt
000e2d 91b0 02c7 	LDS  R27,_manual_cnt+1
000e2f 3da1      	CPI  R26,LOW(0x7D1)
000e30 e0e7      	LDI  R30,HIGH(0x7D1)
000e31 07be      	CPC  R27,R30
000e32 f160      	BRLO _0x7F
                 ; 0000 0571         {
                 ; 0000 0572         manual_cnt =0;
000e33 e0e0      	LDI  R30,LOW(0)
000e34 93e0 02c6 	STS  _manual_cnt,R30
000e36 93e0 02c7 	STS  _manual_cnt+1,R30
                 ; 0000 0573         if (!manual_fl)
000e38 fc52      	SBRC R5,2
000e39 c010      	RJMP _0x80
                 ; 0000 0574             {
                 ; 0000 0575             manual_fl =1;
000e3a 9468      	SET
000e3b f852      	BLD  R5,2
                 ; 0000 0576             lcd_clear();
000e3c 940e 2b4d 	CALL _lcd_clear
                 ; 0000 0577             lcd_putsf("manual mode");
                +
000e3e e7ae     +LDI R26 , LOW ( 2 * _0x0 + ( 0 ) )
000e3f e0b2     +LDI R27 , HIGH ( 2 * _0x0 + ( 0 ) )
                 	__POINTW2FN _0x0,0
000e40 940e 2b89 	CALL _lcd_putsf
                 ; 0000 0578             lcd_gotoxy(0,1);
000e42 e0e0      	LDI  R30,LOW(0)
000e43 93ea      	ST   -Y,R30
000e44 e0a1      	LDI  R26,LOW(1)
000e45 940e 2b39 	CALL _lcd_gotoxy
                 ; 0000 0579             lcd_putsf("entering....");
                +
000e47 eaaa     +LDI R26 , LOW ( 2 * _0x0 + ( 44 ) )
000e48 e0b2     +LDI R27 , HIGH ( 2 * _0x0 + ( 44 ) )
                 	__POINTW2FN _0x0,44
000e49 c00f      	RJMP _0x282
                 ; 0000 057A             delay_ms(2000);
                 ; 0000 057B             }
                 ; 0000 057C         else
                 _0x80:
                 ; 0000 057D             {
                 ; 0000 057E             manual_fl =0;
000e4a 94e8      	CLT
000e4b f852      	BLD  R5,2
                 ; 0000 057F             lcd_clear();
000e4c 940e 2b4d 	CALL _lcd_clear
                 ; 0000 0580             lcd_putsf("manual mode");
                +
000e4e e7ae     +LDI R26 , LOW ( 2 * _0x0 + ( 0 ) )
000e4f e0b2     +LDI R27 , HIGH ( 2 * _0x0 + ( 0 ) )
                 	__POINTW2FN _0x0,0
000e50 940e 2b89 	CALL _lcd_putsf
                 ; 0000 0581             lcd_gotoxy(0,1);
000e52 e0e0      	LDI  R30,LOW(0)
000e53 93ea      	ST   -Y,R30
000e54 e0a1      	LDI  R26,LOW(1)
000e55 940e 2b39 	CALL _lcd_gotoxy
                 ; 0000 0582             lcd_putsf("exiting...");
                +
000e57 e8aa     +LDI R26 , LOW ( 2 * _0x0 + ( 12 ) )
000e58 e0b2     +LDI R27 , HIGH ( 2 * _0x0 + ( 12 ) )
                 	__POINTW2FN _0x0,12
                 _0x282:
000e59 940e 2b89 	CALL _lcd_putsf
                 ; 0000 0583             delay_ms(2000);
000e5b eda0      	LDI  R26,LOW(2000)
000e5c e0b7      	LDI  R27,HIGH(2000)
000e5d 940e 2c4f 	CALL _delay_ms
                 ; 0000 0584             }
                 ; 0000 0585 
                 ; 0000 0586         }
                 ; 0000 0587 
                 ; 0000 0588 }
                 _0x7F:
                 ; 0000 0589 else
000e5f c005      	RJMP _0x82
                 _0x7E:
                 ; 0000 058A {
                 ; 0000 058B manual_cnt =0;
000e60 e0e0      	LDI  R30,LOW(0)
000e61 93e0 02c6 	STS  _manual_cnt,R30
000e63 93e0 02c7 	STS  _manual_cnt+1,R30
                 ; 0000 058C }
                 _0x82:
                 ; 0000 058D 
                 ; 0000 058E 
                 ; 0000 058F 
                 ; 0000 0590 //////////////////////////
                 ; 0000 0591 
                 ; 0000 0592 
                 ; 0000 0593 
                 ; 0000 0594 }
000e65 9508      	RET
                 ; .FEND
                 ;
                 ;void check_increment(void)
                 ; 0000 0597 {
                 _check_increment:
                 ; .FSTART _check_increment
                 ; 0000 0598 if (key2_fl && pgm_fl)
000e66 fe31      	SBRS R3,1
000e67 c002      	RJMP _0x84
000e68 fc41      	SBRC R4,1
000e69 c001      	RJMP _0x85
                 _0x84:
000e6a c23e      	RJMP _0x83
                 _0x85:
                 ; 0000 0599 {
                 ; 0000 059A     key2_fl =0;
000e6b 94e8      	CLT
000e6c f831      	BLD  R3,1
                 ; 0000 059B         bright_cnt =0;
000e6d e0e0      	LDI  R30,LOW(0)
000e6e 93e0 02b2 	STS  _bright_cnt,R30
000e70 93e0 02b3 	STS  _bright_cnt+1,R30
                 ; 0000 059C         program_timeout=0;
000e72 93e0 02a8 	STS  _program_timeout,R30
000e74 93e0 02a9 	STS  _program_timeout+1,R30
000e76 93e0 02aa 	STS  _program_timeout+2,R30
000e78 93e0 02ab 	STS  _program_timeout+3,R30
                 ; 0000 059D 
                 ; 0000 059E     if (mode ==1)
000e7a 91a0 02ac 	LDS  R26,_mode
000e7c 91b0 02ad 	LDS  R27,_mode+1
000e7e 9711      	SBIW R26,1
000e7f f009      	BREQ PC+2
000e80 c228      	RJMP _0x86
                 ; 0000 059F     {
                 ; 0000 05A0 //    while(1);
                 ; 0000 05A1     switch (item1)
000e81 91e0 02b0 	LDS  R30,_item1
000e83 91f0 02b1 	LDS  R31,_item1+1
                 ; 0000 05A2     {
                 ; 0000 05A3         case 0: hour++;
000e85 9730      	SBIW R30,0
000e86 f431      	BRNE _0x8A
000e87 9473      	INC  R7
                 ; 0000 05A4                 if (hour > 24) hour =0;
000e88 e1e8      	LDI  R30,LOW(24)
000e89 15e7      	CP   R30,R7
000e8a f408      	BRSH _0x8B
000e8b 2477      	CLR  R7
                 ; 0000 05A5                 break;
                 _0x8B:
000e8c c21c      	RJMP _0x89
                 ; 0000 05A6         case 1: minute++;
                 _0x8A:
000e8d 30e1      	CPI  R30,LOW(0x1)
000e8e e0a0      	LDI  R26,HIGH(0x1)
000e8f 07fa      	CPC  R31,R26
000e90 f431      	BRNE _0x8C
000e91 9463      	INC  R6
                 ; 0000 05A7                 if (minute > 59) minute =0;
000e92 e3eb      	LDI  R30,LOW(59)
000e93 15e6      	CP   R30,R6
000e94 f408      	BRSH _0x8D
000e95 2466      	CLR  R6
                 ; 0000 05A8                 break;
                 _0x8D:
000e96 c212      	RJMP _0x89
                 ; 0000 05A9         case 2: second++;
                 _0x8C:
000e97 30e2      	CPI  R30,LOW(0x2)
000e98 e0a0      	LDI  R26,HIGH(0x2)
000e99 07fa      	CPC  R31,R26
000e9a f431      	BRNE _0x8E
000e9b 9493      	INC  R9
                 ; 0000 05AA                 if (second >59) second =0;
000e9c e3eb      	LDI  R30,LOW(59)
000e9d 15e9      	CP   R30,R9
000e9e f408      	BRSH _0x8F
000e9f 2499      	CLR  R9
                 ; 0000 05AB                 break;
                 _0x8F:
000ea0 c208      	RJMP _0x89
                 ; 0000 05AC         case 3: day++;
                 _0x8E:
000ea1 30e3      	CPI  R30,LOW(0x3)
000ea2 e0a0      	LDI  R26,HIGH(0x3)
000ea3 07fa      	CPC  R31,R26
000ea4 f439      	BRNE _0x90
000ea5 94b3      	INC  R11
                 ; 0000 05AD                 if (day > 31) day =1;
000ea6 e1ef      	LDI  R30,LOW(31)
000ea7 15eb      	CP   R30,R11
000ea8 f410      	BRSH _0x91
000ea9 e0e1      	LDI  R30,LOW(1)
000eaa 2ebe      	MOV  R11,R30
                 ; 0000 05AE                 break;
                 _0x91:
000eab c1fd      	RJMP _0x89
                 ; 0000 05AF         case 4: month++;
                 _0x90:
000eac 30e4      	CPI  R30,LOW(0x4)
000ead e0a0      	LDI  R26,HIGH(0x4)
000eae 07fa      	CPC  R31,R26
000eaf f439      	BRNE _0x92
000eb0 94a3      	INC  R10
                 ; 0000 05B0                 if (month > 12) month = 1;
000eb1 e0ec      	LDI  R30,LOW(12)
000eb2 15ea      	CP   R30,R10
000eb3 f410      	BRSH _0x93
000eb4 e0e1      	LDI  R30,LOW(1)
000eb5 2eae      	MOV  R10,R30
                 ; 0000 05B1                 break;
                 _0x93:
000eb6 c1f2      	RJMP _0x89
                 ; 0000 05B2         case 5: year++;
                 _0x92:
000eb7 30e5      	CPI  R30,LOW(0x5)
000eb8 e0a0      	LDI  R26,HIGH(0x5)
000eb9 07fa      	CPC  R31,R26
000eba f439      	BRNE _0x94
000ebb 94d3      	INC  R13
                 ; 0000 05B3                 if (year >99) year = 13;
000ebc e6e3      	LDI  R30,LOW(99)
000ebd 15ed      	CP   R30,R13
000ebe f410      	BRSH _0x95
000ebf e0ed      	LDI  R30,LOW(13)
000ec0 2ede      	MOV  R13,R30
                 ; 0000 05B4                 break;
                 _0x95:
000ec1 c1e7      	RJMP _0x89
                 ; 0000 05B5         case 6: set_latit+=100;
                 _0x94:
000ec2 30e6      	CPI  R30,LOW(0x6)
000ec3 e0a0      	LDI  R26,HIGH(0x6)
000ec4 07fa      	CPC  R31,R26
000ec5 f541      	BRNE _0x96
000ec6 91e0 02ca 	LDS  R30,_set_latit
000ec8 91f0 02cb 	LDS  R31,_set_latit+1
000eca 59ec      	SUBI R30,LOW(-100)
000ecb 4fff      	SBCI R31,HIGH(-100)
000ecc 93e0 02ca 	STS  _set_latit,R30
000ece 93f0 02cb 	STS  _set_latit+1,R31
                 ; 0000 05B6                 if (set_latit > 9000) set_latit =9000;
000ed0 91a0 02ca 	LDS  R26,_set_latit
000ed2 91b0 02cb 	LDS  R27,_set_latit+1
000ed4 32a9      	CPI  R26,LOW(0x2329)
000ed5 e2e3      	LDI  R30,HIGH(0x2329)
000ed6 07be      	CPC  R27,R30
000ed7 f034      	BRLT _0x97
000ed8 e2e8      	LDI  R30,LOW(9000)
000ed9 e2f3      	LDI  R31,HIGH(9000)
000eda 93e0 02ca 	STS  _set_latit,R30
000edc 93f0 02cb 	STS  _set_latit+1,R31
                 ; 0000 05B7                 char_latitude = blink_data = abs(set_latit)/100;
                 _0x97:
000ede 91a0 02ca 	LDS  R26,_set_latit
000ee0 91b0 02cb 	LDS  R27,_set_latit+1
000ee2 940e 2a1a 	CALL _abs
000ee4 01df      	MOVW R26,R30
000ee5 e6e4      	LDI  R30,LOW(100)
000ee6 e0f0      	LDI  R31,HIGH(100)
000ee7 940e 2e8b 	CALL __DIVW21U
000ee9 93e0 02c9 	STS  _blink_data,R30
000eeb 93e0 02e2 	STS  _char_latitude,R30
                 ; 0000 05B8                 break;
000eed c1bb      	RJMP _0x89
                 ; 0000 05B9         case 7: set_latit+=1;
                 _0x96:
000eee 30e7      	CPI  R30,LOW(0x7)
000eef e0a0      	LDI  R26,HIGH(0x7)
000ef0 07fa      	CPC  R31,R26
000ef1 f539      	BRNE _0x98
000ef2 91e0 02ca 	LDS  R30,_set_latit
000ef4 91f0 02cb 	LDS  R31,_set_latit+1
000ef6 9631      	ADIW R30,1
000ef7 93e0 02ca 	STS  _set_latit,R30
000ef9 93f0 02cb 	STS  _set_latit+1,R31
                 ; 0000 05BA                 if (set_latit > 9000) set_latit =9000;
000efb 91a0 02ca 	LDS  R26,_set_latit
000efd 91b0 02cb 	LDS  R27,_set_latit+1
000eff 32a9      	CPI  R26,LOW(0x2329)
000f00 e2e3      	LDI  R30,HIGH(0x2329)
000f01 07be      	CPC  R27,R30
000f02 f034      	BRLT _0x99
000f03 e2e8      	LDI  R30,LOW(9000)
000f04 e2f3      	LDI  R31,HIGH(9000)
000f05 93e0 02ca 	STS  _set_latit,R30
000f07 93f0 02cb 	STS  _set_latit+1,R31
                 ; 0000 05BB                 char_latitude = blink_data = abs(set_latit)%100;
                 _0x99:
000f09 91a0 02ca 	LDS  R26,_set_latit
000f0b 91b0 02cb 	LDS  R27,_set_latit+1
000f0d 940e 2a1a 	CALL _abs
000f0f 01df      	MOVW R26,R30
000f10 e6e4      	LDI  R30,LOW(100)
000f11 e0f0      	LDI  R31,HIGH(100)
000f12 940e 2ecd 	CALL __MODW21U
000f14 93e0 02c9 	STS  _blink_data,R30
000f16 93e0 02e2 	STS  _char_latitude,R30
                 ; 0000 05BC                 break;
000f18 c190      	RJMP _0x89
                 ; 0000 05BD         case 8: set_longitude+=100;
                 _0x98:
000f19 30e8      	CPI  R30,LOW(0x8)
000f1a e0a0      	LDI  R26,HIGH(0x8)
000f1b 07fa      	CPC  R31,R26
000f1c f569      	BRNE _0x9A
000f1d 91e0 02cc 	LDS  R30,_set_longitude
000f1f 91f0 02cd 	LDS  R31,_set_longitude+1
000f21 59ec      	SUBI R30,LOW(-100)
000f22 4fff      	SBCI R31,HIGH(-100)
000f23 93e0 02cc 	STS  _set_longitude,R30
000f25 93f0 02cd 	STS  _set_longitude+1,R31
                 ; 0000 05BE                 if (set_longitude > 18000) set_longitude = 18000;
000f27 91a0 02cc 	LDS  R26,_set_longitude
000f29 91b0 02cd 	LDS  R27,_set_longitude+1
000f2b 35a1      	CPI  R26,LOW(0x4651)
000f2c e4e6      	LDI  R30,HIGH(0x4651)
000f2d 07be      	CPC  R27,R30
000f2e f034      	BRLT _0x9B
000f2f e5e0      	LDI  R30,LOW(18000)
000f30 e4f6      	LDI  R31,HIGH(18000)
000f31 93e0 02cc 	STS  _set_longitude,R30
000f33 93f0 02cd 	STS  _set_longitude+1,R31
                 ; 0000 05BF                 char_longitude = blink_data = (abs(set_longitude)/100)%100;
                 _0x9B:
000f35 91a0 02cc 	LDS  R26,_set_longitude
000f37 91b0 02cd 	LDS  R27,_set_longitude+1
000f39 940e 2a1a 	CALL _abs
000f3b 01df      	MOVW R26,R30
000f3c e6e4      	LDI  R30,LOW(100)
000f3d e0f0      	LDI  R31,HIGH(100)
000f3e 940e 2e8b 	CALL __DIVW21U
000f40 01df      	MOVW R26,R30
000f41 e6e4      	LDI  R30,LOW(100)
000f42 e0f0      	LDI  R31,HIGH(100)
000f43 940e 2ecd 	CALL __MODW21U
000f45 93e0 02c9 	STS  _blink_data,R30
000f47 93e0 02e3 	STS  _char_longitude,R30
                 ; 0000 05C0                 break;
000f49 c15f      	RJMP _0x89
                 ; 0000 05C1         case 9: set_longitude+=1;
                 _0x9A:
000f4a 30e9      	CPI  R30,LOW(0x9)
000f4b e0a0      	LDI  R26,HIGH(0x9)
000f4c 07fa      	CPC  R31,R26
000f4d f539      	BRNE _0x9C
000f4e 91e0 02cc 	LDS  R30,_set_longitude
000f50 91f0 02cd 	LDS  R31,_set_longitude+1
000f52 9631      	ADIW R30,1
000f53 93e0 02cc 	STS  _set_longitude,R30
000f55 93f0 02cd 	STS  _set_longitude+1,R31
                 ; 0000 05C2                 if (set_longitude > 18000) set_longitude = 18000;
000f57 91a0 02cc 	LDS  R26,_set_longitude
000f59 91b0 02cd 	LDS  R27,_set_longitude+1
000f5b 35a1      	CPI  R26,LOW(0x4651)
000f5c e4e6      	LDI  R30,HIGH(0x4651)
000f5d 07be      	CPC  R27,R30
000f5e f034      	BRLT _0x9D
000f5f e5e0      	LDI  R30,LOW(18000)
000f60 e4f6      	LDI  R31,HIGH(18000)
000f61 93e0 02cc 	STS  _set_longitude,R30
000f63 93f0 02cd 	STS  _set_longitude+1,R31
                 ; 0000 05C3                 char_longitude = blink_data = abs(set_longitude)%100;
                 _0x9D:
000f65 91a0 02cc 	LDS  R26,_set_longitude
000f67 91b0 02cd 	LDS  R27,_set_longitude+1
000f69 940e 2a1a 	CALL _abs
000f6b 01df      	MOVW R26,R30
000f6c e6e4      	LDI  R30,LOW(100)
000f6d e0f0      	LDI  R31,HIGH(100)
000f6e 940e 2ecd 	CALL __MODW21U
000f70 93e0 02c9 	STS  _blink_data,R30
000f72 93e0 02e3 	STS  _char_longitude,R30
                 ; 0000 05C4                 break;
000f74 c134      	RJMP _0x89
                 ; 0000 05C5         case 10:time_interval+=5;
                 _0x9C:
000f75 30ea      	CPI  R30,LOW(0xA)
000f76 e0a0      	LDI  R26,HIGH(0xA)
000f77 07fa      	CPC  R31,R26
000f78 f4c1      	BRNE _0x9E
000f79 91e0 02d2 	LDS  R30,_time_interval
000f7b 91f0 02d3 	LDS  R31,_time_interval+1
000f7d 9635      	ADIW R30,5
000f7e 93e0 02d2 	STS  _time_interval,R30
000f80 93f0 02d3 	STS  _time_interval+1,R31
                 ; 0000 05C6                 if (time_interval > 90) time_interval = 5;
000f82 91a0 02d2 	LDS  R26,_time_interval
000f84 91b0 02d3 	LDS  R27,_time_interval+1
000f86 35ab      	CPI  R26,LOW(0x5B)
000f87 e0e0      	LDI  R30,HIGH(0x5B)
000f88 07be      	CPC  R27,R30
000f89 f034      	BRLT _0x9F
000f8a e0e5      	LDI  R30,LOW(5)
000f8b e0f0      	LDI  R31,HIGH(5)
000f8c 93e0 02d2 	STS  _time_interval,R30
000f8e 93f0 02d3 	STS  _time_interval+1,R31
                 ; 0000 05C7                 break;
                 _0x9F:
000f90 c118      	RJMP _0x89
                 ; 0000 05C8         case 11: set_timezone+=100;
                 _0x9E:
000f91 30eb      	CPI  R30,LOW(0xB)
000f92 e0a0      	LDI  R26,HIGH(0xB)
000f93 07fa      	CPC  R31,R26
000f94 f4c9      	BRNE _0xA0
000f95 91e0 02d8 	LDS  R30,_set_timezone
000f97 91f0 02d9 	LDS  R31,_set_timezone+1
000f99 59ec      	SUBI R30,LOW(-100)
000f9a 4fff      	SBCI R31,HIGH(-100)
000f9b 93e0 02d8 	STS  _set_timezone,R30
000f9d 93f0 02d9 	STS  _set_timezone+1,R31
                 ; 0000 05C9                 if(set_timezone > 1200) set_timezone = 1200;
000f9f 91a0 02d8 	LDS  R26,_set_timezone
000fa1 91b0 02d9 	LDS  R27,_set_timezone+1
000fa3 3ba1      	CPI  R26,LOW(0x4B1)
000fa4 e0e4      	LDI  R30,HIGH(0x4B1)
000fa5 07be      	CPC  R27,R30
000fa6 f034      	BRLT _0xA1
000fa7 ebe0      	LDI  R30,LOW(1200)
000fa8 e0f4      	LDI  R31,HIGH(1200)
000fa9 93e0 02d8 	STS  _set_timezone,R30
000fab 93f0 02d9 	STS  _set_timezone+1,R31
                 ; 0000 05CA                 break;
                 _0xA1:
000fad c0fb      	RJMP _0x89
                 ; 0000 05CB         case 12: set_timezone+=25;
                 _0xA0:
000fae 30ec      	CPI  R30,LOW(0xC)
000faf e0a0      	LDI  R26,HIGH(0xC)
000fb0 07fa      	CPC  R31,R26
000fb1 f4c1      	BRNE _0xA2
000fb2 91e0 02d8 	LDS  R30,_set_timezone
000fb4 91f0 02d9 	LDS  R31,_set_timezone+1
000fb6 9679      	ADIW R30,25
000fb7 93e0 02d8 	STS  _set_timezone,R30
000fb9 93f0 02d9 	STS  _set_timezone+1,R31
                 ; 0000 05CC                 if(set_timezone > 1200) set_timezone = 1200;
000fbb 91a0 02d8 	LDS  R26,_set_timezone
000fbd 91b0 02d9 	LDS  R27,_set_timezone+1
000fbf 3ba1      	CPI  R26,LOW(0x4B1)
000fc0 e0e4      	LDI  R30,HIGH(0x4B1)
000fc1 07be      	CPC  R27,R30
000fc2 f034      	BRLT _0xA3
000fc3 ebe0      	LDI  R30,LOW(1200)
000fc4 e0f4      	LDI  R31,HIGH(1200)
000fc5 93e0 02d8 	STS  _set_timezone,R30
000fc7 93f0 02d9 	STS  _set_timezone+1,R31
                 ; 0000 05CD                 break;
                 _0xA3:
000fc9 c0df      	RJMP _0x89
                 ; 0000 05CE         case 13:set_width+=100;
                 _0xA2:
000fca 30ed      	CPI  R30,LOW(0xD)
000fcb e0a0      	LDI  R26,HIGH(0xD)
000fcc 07fa      	CPC  R31,R26
000fcd f4c9      	BRNE _0xA4
000fce 91e0 0305 	LDS  R30,_set_width
000fd0 91f0 0306 	LDS  R31,_set_width+1
000fd2 59ec      	SUBI R30,LOW(-100)
000fd3 4fff      	SBCI R31,HIGH(-100)
000fd4 93e0 0305 	STS  _set_width,R30
000fd6 93f0 0306 	STS  _set_width+1,R31
                 ; 0000 05CF                 if (set_width > 9999) set_width = 9900;
000fd8 91a0 0305 	LDS  R26,_set_width
000fda 91b0 0306 	LDS  R27,_set_width+1
000fdc 31a0      	CPI  R26,LOW(0x2710)
000fdd e2e7      	LDI  R30,HIGH(0x2710)
000fde 07be      	CPC  R27,R30
000fdf f034      	BRLT _0xA5
000fe0 eaec      	LDI  R30,LOW(9900)
000fe1 e2f6      	LDI  R31,HIGH(9900)
000fe2 93e0 0305 	STS  _set_width,R30
000fe4 93f0 0306 	STS  _set_width+1,R31
                 ; 0000 05D0                 break;
                 _0xA5:
000fe6 c0c2      	RJMP _0x89
                 ; 0000 05D1         case 14:set_width+=10;
                 _0xA4:
000fe7 30ee      	CPI  R30,LOW(0xE)
000fe8 e0a0      	LDI  R26,HIGH(0xE)
000fe9 07fa      	CPC  R31,R26
000fea f4c1      	BRNE _0xA6
000feb 91e0 0305 	LDS  R30,_set_width
000fed 91f0 0306 	LDS  R31,_set_width+1
000fef 963a      	ADIW R30,10
000ff0 93e0 0305 	STS  _set_width,R30
000ff2 93f0 0306 	STS  _set_width+1,R31
                 ; 0000 05D2                 if (set_width > 9999) set_width = 9900;
000ff4 91a0 0305 	LDS  R26,_set_width
000ff6 91b0 0306 	LDS  R27,_set_width+1
000ff8 31a0      	CPI  R26,LOW(0x2710)
000ff9 e2e7      	LDI  R30,HIGH(0x2710)
000ffa 07be      	CPC  R27,R30
000ffb f034      	BRLT _0xA7
000ffc eaec      	LDI  R30,LOW(9900)
000ffd e2f6      	LDI  R31,HIGH(9900)
000ffe 93e0 0305 	STS  _set_width,R30
001000 93f0 0306 	STS  _set_width+1,R31
                 ; 0000 05D3                 break;
                 _0xA7:
001002 c0a6      	RJMP _0x89
                 ; 0000 05D4         case 15:set_distance+=100;
                 _0xA6:
001003 30ef      	CPI  R30,LOW(0xF)
001004 e0a0      	LDI  R26,HIGH(0xF)
001005 07fa      	CPC  R31,R26
001006 f4c9      	BRNE _0xA8
001007 91e0 0303 	LDS  R30,_set_distance
001009 91f0 0304 	LDS  R31,_set_distance+1
00100b 59ec      	SUBI R30,LOW(-100)
00100c 4fff      	SBCI R31,HIGH(-100)
00100d 93e0 0303 	STS  _set_distance,R30
00100f 93f0 0304 	STS  _set_distance+1,R31
                 ; 0000 05D5                 if (set_distance > 9999) set_distance = 9900;
001011 91a0 0303 	LDS  R26,_set_distance
001013 91b0 0304 	LDS  R27,_set_distance+1
001015 31a0      	CPI  R26,LOW(0x2710)
001016 e2e7      	LDI  R30,HIGH(0x2710)
001017 07be      	CPC  R27,R30
001018 f034      	BRLT _0xA9
001019 eaec      	LDI  R30,LOW(9900)
00101a e2f6      	LDI  R31,HIGH(9900)
00101b 93e0 0303 	STS  _set_distance,R30
00101d 93f0 0304 	STS  _set_distance+1,R31
                 ; 0000 05D6                 break;
                 _0xA9:
00101f c089      	RJMP _0x89
                 ; 0000 05D7         case 16:set_distance+=10;
                 _0xA8:
001020 31e0      	CPI  R30,LOW(0x10)
001021 e0a0      	LDI  R26,HIGH(0x10)
001022 07fa      	CPC  R31,R26
001023 f4c1      	BRNE _0xAA
001024 91e0 0303 	LDS  R30,_set_distance
001026 91f0 0304 	LDS  R31,_set_distance+1
001028 963a      	ADIW R30,10
001029 93e0 0303 	STS  _set_distance,R30
00102b 93f0 0304 	STS  _set_distance+1,R31
                 ; 0000 05D8                 if (set_distance > 9999) set_distance = 9900;
00102d 91a0 0303 	LDS  R26,_set_distance
00102f 91b0 0304 	LDS  R27,_set_distance+1
001031 31a0      	CPI  R26,LOW(0x2710)
001032 e2e7      	LDI  R30,HIGH(0x2710)
001033 07be      	CPC  R27,R30
001034 f034      	BRLT _0xAB
001035 eaec      	LDI  R30,LOW(9900)
001036 e2f6      	LDI  R31,HIGH(9900)
001037 93e0 0303 	STS  _set_distance,R30
001039 93f0 0304 	STS  _set_distance+1,R31
                 ; 0000 05D9                 break;
                 _0xAB:
00103b c06d      	RJMP _0x89
                 ; 0000 05DA         case 17:modbus_id+=100;
                 _0xAA:
00103c 31e1      	CPI  R30,LOW(0x11)
00103d e0a0      	LDI  R26,HIGH(0x11)
00103e 07fa      	CPC  R31,R26
00103f f4c9      	BRNE _0xAC
001040 91e0 0307 	LDS  R30,_modbus_id
001042 91f0 0308 	LDS  R31,_modbus_id+1
001044 59ec      	SUBI R30,LOW(-100)
001045 4fff      	SBCI R31,HIGH(-100)
001046 93e0 0307 	STS  _modbus_id,R30
001048 93f0 0308 	STS  _modbus_id+1,R31
                 ; 0000 05DB                 if (modbus_id > 240) modbus_id = 240;
00104a 91a0 0307 	LDS  R26,_modbus_id
00104c 91b0 0308 	LDS  R27,_modbus_id+1
00104e 3fa1      	CPI  R26,LOW(0xF1)
00104f e0e0      	LDI  R30,HIGH(0xF1)
001050 07be      	CPC  R27,R30
001051 f034      	BRLT _0xAD
001052 efe0      	LDI  R30,LOW(240)
001053 e0f0      	LDI  R31,HIGH(240)
001054 93e0 0307 	STS  _modbus_id,R30
001056 93f0 0308 	STS  _modbus_id+1,R31
                 ; 0000 05DC                 break;
                 _0xAD:
001058 c050      	RJMP _0x89
                 ; 0000 05DD         case 18:modbus_id+=1;
                 _0xAC:
001059 31e2      	CPI  R30,LOW(0x12)
00105a e0a0      	LDI  R26,HIGH(0x12)
00105b 07fa      	CPC  R31,R26
00105c f4c1      	BRNE _0xAE
00105d 91e0 0307 	LDS  R30,_modbus_id
00105f 91f0 0308 	LDS  R31,_modbus_id+1
001061 9631      	ADIW R30,1
001062 93e0 0307 	STS  _modbus_id,R30
001064 93f0 0308 	STS  _modbus_id+1,R31
                 ; 0000 05DE                 if (modbus_id > 240) modbus_id = 240;
001066 91a0 0307 	LDS  R26,_modbus_id
001068 91b0 0308 	LDS  R27,_modbus_id+1
00106a 3fa1      	CPI  R26,LOW(0xF1)
00106b e0e0      	LDI  R30,HIGH(0xF1)
00106c 07be      	CPC  R27,R30
00106d f034      	BRLT _0xAF
00106e efe0      	LDI  R30,LOW(240)
00106f e0f0      	LDI  R31,HIGH(240)
001070 93e0 0307 	STS  _modbus_id,R30
001072 93f0 0308 	STS  _modbus_id+1,R31
                 ; 0000 05DF                 break;
                 _0xAF:
001074 c034      	RJMP _0x89
                 ; 0000 05E0         case 19:modbus_rate+=100;
                 _0xAE:
001075 31e3      	CPI  R30,LOW(0x13)
001076 e0a0      	LDI  R26,HIGH(0x13)
001077 07fa      	CPC  R31,R26
001078 f4b9      	BRNE _0xB0
001079 91e0 0309 	LDS  R30,_modbus_rate
00107b 91f0 030a 	LDS  R31,_modbus_rate+1
00107d 59ec      	SUBI R30,LOW(-100)
00107e 4fff      	SBCI R31,HIGH(-100)
00107f 93e0 0309 	STS  _modbus_rate,R30
001081 93f0 030a 	STS  _modbus_rate+1,R31
                 ; 0000 05E1                 if (modbus_rate > 5) modbus_rate = 5;
001083 91a0 0309 	LDS  R26,_modbus_rate
001085 91b0 030a 	LDS  R27,_modbus_rate+1
001087 9716      	SBIW R26,6
001088 f034      	BRLT _0xB1
001089 e0e5      	LDI  R30,LOW(5)
00108a e0f0      	LDI  R31,HIGH(5)
00108b 93e0 0309 	STS  _modbus_rate,R30
00108d 93f0 030a 	STS  _modbus_rate+1,R31
                 ; 0000 05E2                 break;
                 _0xB1:
00108f c019      	RJMP _0x89
                 ; 0000 05E3         case 20:modbus_rate+=1;
                 _0xB0:
001090 31e4      	CPI  R30,LOW(0x14)
001091 e0a0      	LDI  R26,HIGH(0x14)
001092 07fa      	CPC  R31,R26
001093 f4a9      	BRNE _0x89
001094 91e0 0309 	LDS  R30,_modbus_rate
001096 91f0 030a 	LDS  R31,_modbus_rate+1
001098 9631      	ADIW R30,1
001099 93e0 0309 	STS  _modbus_rate,R30
00109b 93f0 030a 	STS  _modbus_rate+1,R31
                 ; 0000 05E4                 if (modbus_rate > 5) modbus_rate = 5;
00109d 91a0 0309 	LDS  R26,_modbus_rate
00109f 91b0 030a 	LDS  R27,_modbus_rate+1
0010a1 9716      	SBIW R26,6
0010a2 f034      	BRLT _0xB3
0010a3 e0e5      	LDI  R30,LOW(5)
0010a4 e0f0      	LDI  R31,HIGH(5)
0010a5 93e0 0309 	STS  _modbus_rate,R30
0010a7 93f0 030a 	STS  _modbus_rate+1,R31
                 ; 0000 05E5                 break;
                 _0xB3:
                 ; 0000 05E6 
                 ; 0000 05E7        }
                 _0x89:
                 ; 0000 05E8 
                 ; 0000 05E9     }
                 ; 0000 05EA 
                 ; 0000 05EB 
                 ; 0000 05EC }
                 _0x86:
                 ; 0000 05ED }
                 _0x83:
0010a9 9508      	RET
                 ; .FEND
                 ;
                 ;void check_decrement(void)
                 ; 0000 05F0 {
                 _check_decrement:
                 ; .FSTART _check_decrement
                 ; 0000 05F1 if (key3_fl && pgm_fl)
0010aa fe32      	SBRS R3,2
0010ab c002      	RJMP _0xB5
0010ac fc41      	SBRC R4,1
0010ad c001      	RJMP _0xB6
                 _0xB5:
0010ae c22f      	RJMP _0xB4
                 _0xB6:
                 ; 0000 05F2 {
                 ; 0000 05F3     bright_cnt =0;
0010af e0e0      	LDI  R30,LOW(0)
0010b0 93e0 02b2 	STS  _bright_cnt,R30
0010b2 93e0 02b3 	STS  _bright_cnt+1,R30
                 ; 0000 05F4     program_timeout=0;
0010b4 93e0 02a8 	STS  _program_timeout,R30
0010b6 93e0 02a9 	STS  _program_timeout+1,R30
0010b8 93e0 02aa 	STS  _program_timeout+2,R30
0010ba 93e0 02ab 	STS  _program_timeout+3,R30
                 ; 0000 05F5     key3_fl =0;
0010bc 94e8      	CLT
0010bd f832      	BLD  R3,2
                 ; 0000 05F6     if (mode ==1)
0010be 91a0 02ac 	LDS  R26,_mode
0010c0 91b0 02ad 	LDS  R27,_mode+1
0010c2 9711      	SBIW R26,1
0010c3 f009      	BREQ PC+2
0010c4 c219      	RJMP _0xB7
                 ; 0000 05F7     {
                 ; 0000 05F8     switch (item1)
0010c5 91e0 02b0 	LDS  R30,_item1
0010c7 91f0 02b1 	LDS  R31,_item1+1
                 ; 0000 05F9     {
                 ; 0000 05FA         case 0: hour--;
0010c9 9730      	SBIW R30,0
0010ca f431      	BRNE _0xBB
0010cb 947a      	DEC  R7
                 ; 0000 05FB                 if (hour > 23) hour =23;
0010cc e1e7      	LDI  R30,LOW(23)
0010cd 15e7      	CP   R30,R7
0010ce f408      	BRSH _0xBC
0010cf 2e7e      	MOV  R7,R30
                 ; 0000 05FC                 break;
                 _0xBC:
0010d0 c20d      	RJMP _0xBA
                 ; 0000 05FD         case 1: minute--;
                 _0xBB:
0010d1 30e1      	CPI  R30,LOW(0x1)
0010d2 e0a0      	LDI  R26,HIGH(0x1)
0010d3 07fa      	CPC  R31,R26
0010d4 f431      	BRNE _0xBD
0010d5 946a      	DEC  R6
                 ; 0000 05FE                 if (minute > 59) minute =59;
0010d6 e3eb      	LDI  R30,LOW(59)
0010d7 15e6      	CP   R30,R6
0010d8 f408      	BRSH _0xBE
0010d9 2e6e      	MOV  R6,R30
                 ; 0000 05FF                 break;
                 _0xBE:
0010da c203      	RJMP _0xBA
                 ; 0000 0600         case 2: second--;
                 _0xBD:
0010db 30e2      	CPI  R30,LOW(0x2)
0010dc e0a0      	LDI  R26,HIGH(0x2)
0010dd 07fa      	CPC  R31,R26
0010de f431      	BRNE _0xBF
0010df 949a      	DEC  R9
                 ; 0000 0601                 if (second > 59) second =59;
0010e0 e3eb      	LDI  R30,LOW(59)
0010e1 15e9      	CP   R30,R9
0010e2 f408      	BRSH _0xC0
0010e3 2e9e      	MOV  R9,R30
                 ; 0000 0602                 break;
                 _0xC0:
0010e4 c1f9      	RJMP _0xBA
                 ; 0000 0603         case 3: day--;
                 _0xBF:
0010e5 30e3      	CPI  R30,LOW(0x3)
0010e6 e0a0      	LDI  R26,HIGH(0x3)
0010e7 07fa      	CPC  R31,R26
0010e8 f439      	BRNE _0xC1
0010e9 94ba      	DEC  R11
                 ; 0000 0604                 if (day <1) day =31;
0010ea e0e1      	LDI  R30,LOW(1)
0010eb 16be      	CP   R11,R30
0010ec f410      	BRSH _0xC2
0010ed e1ef      	LDI  R30,LOW(31)
0010ee 2ebe      	MOV  R11,R30
                 ; 0000 0605                 break;
                 _0xC2:
0010ef c1ee      	RJMP _0xBA
                 ; 0000 0606         case 4: month--;
                 _0xC1:
0010f0 30e4      	CPI  R30,LOW(0x4)
0010f1 e0a0      	LDI  R26,HIGH(0x4)
0010f2 07fa      	CPC  R31,R26
0010f3 f439      	BRNE _0xC3
0010f4 94aa      	DEC  R10
                 ; 0000 0607                 if (month <1) month = 12;
0010f5 e0e1      	LDI  R30,LOW(1)
0010f6 16ae      	CP   R10,R30
0010f7 f410      	BRSH _0xC4
0010f8 e0ec      	LDI  R30,LOW(12)
0010f9 2eae      	MOV  R10,R30
                 ; 0000 0608                 break;
                 _0xC4:
0010fa c1e3      	RJMP _0xBA
                 ; 0000 0609         case 5: year--;
                 _0xC3:
0010fb 30e5      	CPI  R30,LOW(0x5)
0010fc e0a0      	LDI  R26,HIGH(0x5)
0010fd 07fa      	CPC  R31,R26
0010fe f431      	BRNE _0xC5
0010ff 94da      	DEC  R13
                 ; 0000 060A                 if (year >99) year = 99;
001100 e6e3      	LDI  R30,LOW(99)
001101 15ed      	CP   R30,R13
001102 f408      	BRSH _0xC6
001103 2ede      	MOV  R13,R30
                 ; 0000 060B                 break;
                 _0xC6:
001104 c1d9      	RJMP _0xBA
                 ; 0000 060C         case 6: set_latit-=100;
                 _0xC5:
001105 30e6      	CPI  R30,LOW(0x6)
001106 e0a0      	LDI  R26,HIGH(0x6)
001107 07fa      	CPC  R31,R26
001108 f541      	BRNE _0xC7
001109 91e0 02ca 	LDS  R30,_set_latit
00110b 91f0 02cb 	LDS  R31,_set_latit+1
00110d 56e4      	SUBI R30,LOW(100)
00110e 40f0      	SBCI R31,HIGH(100)
00110f 93e0 02ca 	STS  _set_latit,R30
001111 93f0 02cb 	STS  _set_latit+1,R31
                 ; 0000 060D                 if (set_latit <-9000) set_latit =-9000;
001113 91a0 02ca 	LDS  R26,_set_latit
001115 91b0 02cb 	LDS  R27,_set_latit+1
001117 3da8      	CPI  R26,LOW(0xDCD8)
001118 edec      	LDI  R30,HIGH(0xDCD8)
001119 07be      	CPC  R27,R30
00111a f434      	BRGE _0xC8
00111b ede8      	LDI  R30,LOW(56536)
00111c edfc      	LDI  R31,HIGH(56536)
00111d 93e0 02ca 	STS  _set_latit,R30
00111f 93f0 02cb 	STS  _set_latit+1,R31
                 ; 0000 060E                 char_latitude = blink_data = abs(set_latit)/100;
                 _0xC8:
001121 91a0 02ca 	LDS  R26,_set_latit
001123 91b0 02cb 	LDS  R27,_set_latit+1
001125 940e 2a1a 	CALL _abs
001127 01df      	MOVW R26,R30
001128 e6e4      	LDI  R30,LOW(100)
001129 e0f0      	LDI  R31,HIGH(100)
00112a 940e 2e8b 	CALL __DIVW21U
00112c 93e0 02c9 	STS  _blink_data,R30
00112e 93e0 02e2 	STS  _char_latitude,R30
                 ; 0000 060F                 break;
001130 c1ad      	RJMP _0xBA
                 ; 0000 0610         case 7: set_latit-=1;
                 _0xC7:
001131 30e7      	CPI  R30,LOW(0x7)
001132 e0a0      	LDI  R26,HIGH(0x7)
001133 07fa      	CPC  R31,R26
001134 f539      	BRNE _0xC9
001135 91e0 02ca 	LDS  R30,_set_latit
001137 91f0 02cb 	LDS  R31,_set_latit+1
001139 9731      	SBIW R30,1
00113a 93e0 02ca 	STS  _set_latit,R30
00113c 93f0 02cb 	STS  _set_latit+1,R31
                 ; 0000 0611                 if (set_latit <-9000) set_latit =-9000;
00113e 91a0 02ca 	LDS  R26,_set_latit
001140 91b0 02cb 	LDS  R27,_set_latit+1
001142 3da8      	CPI  R26,LOW(0xDCD8)
001143 edec      	LDI  R30,HIGH(0xDCD8)
001144 07be      	CPC  R27,R30
001145 f434      	BRGE _0xCA
001146 ede8      	LDI  R30,LOW(56536)
001147 edfc      	LDI  R31,HIGH(56536)
001148 93e0 02ca 	STS  _set_latit,R30
00114a 93f0 02cb 	STS  _set_latit+1,R31
                 ; 0000 0612                 char_latitude = blink_data = abs(set_latit)%100;
                 _0xCA:
00114c 91a0 02ca 	LDS  R26,_set_latit
00114e 91b0 02cb 	LDS  R27,_set_latit+1
001150 940e 2a1a 	CALL _abs
001152 01df      	MOVW R26,R30
001153 e6e4      	LDI  R30,LOW(100)
001154 e0f0      	LDI  R31,HIGH(100)
001155 940e 2ecd 	CALL __MODW21U
001157 93e0 02c9 	STS  _blink_data,R30
001159 93e0 02e2 	STS  _char_latitude,R30
                 ; 0000 0613                 break;
00115b c182      	RJMP _0xBA
                 ; 0000 0614         case 8: set_longitude-=100;
                 _0xC9:
00115c 30e8      	CPI  R30,LOW(0x8)
00115d e0a0      	LDI  R26,HIGH(0x8)
00115e 07fa      	CPC  R31,R26
00115f f569      	BRNE _0xCB
001160 91e0 02cc 	LDS  R30,_set_longitude
001162 91f0 02cd 	LDS  R31,_set_longitude+1
001164 56e4      	SUBI R30,LOW(100)
001165 40f0      	SBCI R31,HIGH(100)
001166 93e0 02cc 	STS  _set_longitude,R30
001168 93f0 02cd 	STS  _set_longitude+1,R31
                 ; 0000 0615                 if (set_longitude <-18000) set_longitude =-18000;
00116a 91a0 02cc 	LDS  R26,_set_longitude
00116c 91b0 02cd 	LDS  R27,_set_longitude+1
00116e 3ba0      	CPI  R26,LOW(0xB9B0)
00116f ebe9      	LDI  R30,HIGH(0xB9B0)
001170 07be      	CPC  R27,R30
001171 f434      	BRGE _0xCC
001172 ebe0      	LDI  R30,LOW(47536)
001173 ebf9      	LDI  R31,HIGH(47536)
001174 93e0 02cc 	STS  _set_longitude,R30
001176 93f0 02cd 	STS  _set_longitude+1,R31
                 ; 0000 0616                 char_longitude = blink_data = (abs(set_longitude)/100)%100;
                 _0xCC:
001178 91a0 02cc 	LDS  R26,_set_longitude
00117a 91b0 02cd 	LDS  R27,_set_longitude+1
00117c 940e 2a1a 	CALL _abs
00117e 01df      	MOVW R26,R30
00117f e6e4      	LDI  R30,LOW(100)
001180 e0f0      	LDI  R31,HIGH(100)
001181 940e 2e8b 	CALL __DIVW21U
001183 01df      	MOVW R26,R30
001184 e6e4      	LDI  R30,LOW(100)
001185 e0f0      	LDI  R31,HIGH(100)
001186 940e 2ecd 	CALL __MODW21U
001188 93e0 02c9 	STS  _blink_data,R30
00118a 93e0 02e3 	STS  _char_longitude,R30
                 ; 0000 0617                 break;
00118c c151      	RJMP _0xBA
                 ; 0000 0618         case 9: set_longitude-=1;
                 _0xCB:
00118d 30e9      	CPI  R30,LOW(0x9)
00118e e0a0      	LDI  R26,HIGH(0x9)
00118f 07fa      	CPC  R31,R26
001190 f539      	BRNE _0xCD
001191 91e0 02cc 	LDS  R30,_set_longitude
001193 91f0 02cd 	LDS  R31,_set_longitude+1
001195 9731      	SBIW R30,1
001196 93e0 02cc 	STS  _set_longitude,R30
001198 93f0 02cd 	STS  _set_longitude+1,R31
                 ; 0000 0619                 if (set_longitude <-18000) set_longitude =-18000;
00119a 91a0 02cc 	LDS  R26,_set_longitude
00119c 91b0 02cd 	LDS  R27,_set_longitude+1
00119e 3ba0      	CPI  R26,LOW(0xB9B0)
00119f ebe9      	LDI  R30,HIGH(0xB9B0)
0011a0 07be      	CPC  R27,R30
0011a1 f434      	BRGE _0xCE
0011a2 ebe0      	LDI  R30,LOW(47536)
0011a3 ebf9      	LDI  R31,HIGH(47536)
0011a4 93e0 02cc 	STS  _set_longitude,R30
0011a6 93f0 02cd 	STS  _set_longitude+1,R31
                 ; 0000 061A                 char_longitude = blink_data = abs(set_longitude)%100;
                 _0xCE:
0011a8 91a0 02cc 	LDS  R26,_set_longitude
0011aa 91b0 02cd 	LDS  R27,_set_longitude+1
0011ac 940e 2a1a 	CALL _abs
0011ae 01df      	MOVW R26,R30
0011af e6e4      	LDI  R30,LOW(100)
0011b0 e0f0      	LDI  R31,HIGH(100)
0011b1 940e 2ecd 	CALL __MODW21U
0011b3 93e0 02c9 	STS  _blink_data,R30
0011b5 93e0 02e3 	STS  _char_longitude,R30
                 ; 0000 061B                 break;
0011b7 c126      	RJMP _0xBA
                 ; 0000 061C         case 10:time_interval-=5;
                 _0xCD:
0011b8 30ea      	CPI  R30,LOW(0xA)
0011b9 e0a0      	LDI  R26,HIGH(0xA)
0011ba 07fa      	CPC  R31,R26
0011bb f4b1      	BRNE _0xCF
0011bc 91e0 02d2 	LDS  R30,_time_interval
0011be 91f0 02d3 	LDS  R31,_time_interval+1
0011c0 9735      	SBIW R30,5
0011c1 93e0 02d2 	STS  _time_interval,R30
0011c3 93f0 02d3 	STS  _time_interval+1,R31
                 ; 0000 061D                 if(time_interval<5) time_interval =90;
0011c5 91a0 02d2 	LDS  R26,_time_interval
0011c7 91b0 02d3 	LDS  R27,_time_interval+1
0011c9 9715      	SBIW R26,5
0011ca f434      	BRGE _0xD0
0011cb e5ea      	LDI  R30,LOW(90)
0011cc e0f0      	LDI  R31,HIGH(90)
0011cd 93e0 02d2 	STS  _time_interval,R30
0011cf 93f0 02d3 	STS  _time_interval+1,R31
                 ; 0000 061E                 break;
                 _0xD0:
0011d1 c10c      	RJMP _0xBA
                 ; 0000 061F         case 11: set_timezone-=100;
                 _0xCF:
0011d2 30eb      	CPI  R30,LOW(0xB)
0011d3 e0a0      	LDI  R26,HIGH(0xB)
0011d4 07fa      	CPC  R31,R26
0011d5 f4c9      	BRNE _0xD1
0011d6 91e0 02d8 	LDS  R30,_set_timezone
0011d8 91f0 02d9 	LDS  R31,_set_timezone+1
0011da 56e4      	SUBI R30,LOW(100)
0011db 40f0      	SBCI R31,HIGH(100)
0011dc 93e0 02d8 	STS  _set_timezone,R30
0011de 93f0 02d9 	STS  _set_timezone+1,R31
                 ; 0000 0620                 if(set_timezone < -1200) set_timezone = -1200;
0011e0 91a0 02d8 	LDS  R26,_set_timezone
0011e2 91b0 02d9 	LDS  R27,_set_timezone+1
0011e4 35a0      	CPI  R26,LOW(0xFB50)
0011e5 efeb      	LDI  R30,HIGH(0xFB50)
0011e6 07be      	CPC  R27,R30
0011e7 f434      	BRGE _0xD2
0011e8 e5e0      	LDI  R30,LOW(64336)
0011e9 effb      	LDI  R31,HIGH(64336)
0011ea 93e0 02d8 	STS  _set_timezone,R30
0011ec 93f0 02d9 	STS  _set_timezone+1,R31
                 ; 0000 0621                 break;
                 _0xD2:
0011ee c0ef      	RJMP _0xBA
                 ; 0000 0622         case 12: set_timezone-=25;
                 _0xD1:
0011ef 30ec      	CPI  R30,LOW(0xC)
0011f0 e0a0      	LDI  R26,HIGH(0xC)
0011f1 07fa      	CPC  R31,R26
0011f2 f4c1      	BRNE _0xD3
0011f3 91e0 02d8 	LDS  R30,_set_timezone
0011f5 91f0 02d9 	LDS  R31,_set_timezone+1
0011f7 9779      	SBIW R30,25
0011f8 93e0 02d8 	STS  _set_timezone,R30
0011fa 93f0 02d9 	STS  _set_timezone+1,R31
                 ; 0000 0623                 if(set_timezone < -1200) set_timezone = -1200;
0011fc 91a0 02d8 	LDS  R26,_set_timezone
0011fe 91b0 02d9 	LDS  R27,_set_timezone+1
001200 35a0      	CPI  R26,LOW(0xFB50)
001201 efeb      	LDI  R30,HIGH(0xFB50)
001202 07be      	CPC  R27,R30
001203 f434      	BRGE _0xD4
001204 e5e0      	LDI  R30,LOW(64336)
001205 effb      	LDI  R31,HIGH(64336)
001206 93e0 02d8 	STS  _set_timezone,R30
001208 93f0 02d9 	STS  _set_timezone+1,R31
                 ; 0000 0624                 break;
                 _0xD4:
00120a c0d3      	RJMP _0xBA
                 ; 0000 0625         case 13:set_width-=100;
                 _0xD3:
00120b 30ed      	CPI  R30,LOW(0xD)
00120c e0a0      	LDI  R26,HIGH(0xD)
00120d 07fa      	CPC  R31,R26
00120e f4b9      	BRNE _0xD5
00120f 91e0 0305 	LDS  R30,_set_width
001211 91f0 0306 	LDS  R31,_set_width+1
001213 56e4      	SUBI R30,LOW(100)
001214 40f0      	SBCI R31,HIGH(100)
001215 93e0 0305 	STS  _set_width,R30
001217 93f0 0306 	STS  _set_width+1,R31
                 ; 0000 0626                 if (set_width <1) set_width = 10;
001219 91a0 0305 	LDS  R26,_set_width
00121b 91b0 0306 	LDS  R27,_set_width+1
00121d 9711      	SBIW R26,1
00121e f434      	BRGE _0xD6
00121f e0ea      	LDI  R30,LOW(10)
001220 e0f0      	LDI  R31,HIGH(10)
001221 93e0 0305 	STS  _set_width,R30
001223 93f0 0306 	STS  _set_width+1,R31
                 ; 0000 0627                 break;
                 _0xD6:
001225 c0b8      	RJMP _0xBA
                 ; 0000 0628         case 14:set_width-=10;
                 _0xD5:
001226 30ee      	CPI  R30,LOW(0xE)
001227 e0a0      	LDI  R26,HIGH(0xE)
001228 07fa      	CPC  R31,R26
001229 f4b1      	BRNE _0xD7
00122a 91e0 0305 	LDS  R30,_set_width
00122c 91f0 0306 	LDS  R31,_set_width+1
00122e 973a      	SBIW R30,10
00122f 93e0 0305 	STS  _set_width,R30
001231 93f0 0306 	STS  _set_width+1,R31
                 ; 0000 0629                 if (set_width <1) set_width = 10;
001233 91a0 0305 	LDS  R26,_set_width
001235 91b0 0306 	LDS  R27,_set_width+1
001237 9711      	SBIW R26,1
001238 f434      	BRGE _0xD8
001239 e0ea      	LDI  R30,LOW(10)
00123a e0f0      	LDI  R31,HIGH(10)
00123b 93e0 0305 	STS  _set_width,R30
00123d 93f0 0306 	STS  _set_width+1,R31
                 ; 0000 062A                 break;
                 _0xD8:
00123f c09e      	RJMP _0xBA
                 ; 0000 062B         case 15:set_distance-=100;
                 _0xD7:
001240 30ef      	CPI  R30,LOW(0xF)
001241 e0a0      	LDI  R26,HIGH(0xF)
001242 07fa      	CPC  R31,R26
001243 f4b9      	BRNE _0xD9
001244 91e0 0303 	LDS  R30,_set_distance
001246 91f0 0304 	LDS  R31,_set_distance+1
001248 56e4      	SUBI R30,LOW(100)
001249 40f0      	SBCI R31,HIGH(100)
00124a 93e0 0303 	STS  _set_distance,R30
00124c 93f0 0304 	STS  _set_distance+1,R31
                 ; 0000 062C                 if (set_distance <1) set_distance = 10;
00124e 91a0 0303 	LDS  R26,_set_distance
001250 91b0 0304 	LDS  R27,_set_distance+1
001252 9711      	SBIW R26,1
001253 f434      	BRGE _0xDA
001254 e0ea      	LDI  R30,LOW(10)
001255 e0f0      	LDI  R31,HIGH(10)
001256 93e0 0303 	STS  _set_distance,R30
001258 93f0 0304 	STS  _set_distance+1,R31
                 ; 0000 062D                 break;
                 _0xDA:
00125a c083      	RJMP _0xBA
                 ; 0000 062E         case 16:set_distance-=10;
                 _0xD9:
00125b 31e0      	CPI  R30,LOW(0x10)
00125c e0a0      	LDI  R26,HIGH(0x10)
00125d 07fa      	CPC  R31,R26
00125e f4b1      	BRNE _0xDB
00125f 91e0 0303 	LDS  R30,_set_distance
001261 91f0 0304 	LDS  R31,_set_distance+1
001263 973a      	SBIW R30,10
001264 93e0 0303 	STS  _set_distance,R30
001266 93f0 0304 	STS  _set_distance+1,R31
                 ; 0000 062F                 if (set_distance <1) set_distance = 10;
001268 91a0 0303 	LDS  R26,_set_distance
00126a 91b0 0304 	LDS  R27,_set_distance+1
00126c 9711      	SBIW R26,1
00126d f434      	BRGE _0xDC
00126e e0ea      	LDI  R30,LOW(10)
00126f e0f0      	LDI  R31,HIGH(10)
001270 93e0 0303 	STS  _set_distance,R30
001272 93f0 0304 	STS  _set_distance+1,R31
                 ; 0000 0630                 break;
                 _0xDC:
001274 c069      	RJMP _0xBA
                 ; 0000 0631         case 17:modbus_id-=100;
                 _0xDB:
001275 31e1      	CPI  R30,LOW(0x11)
001276 e0a0      	LDI  R26,HIGH(0x11)
001277 07fa      	CPC  R31,R26
001278 f4b9      	BRNE _0xDD
001279 91e0 0307 	LDS  R30,_modbus_id
00127b 91f0 0308 	LDS  R31,_modbus_id+1
00127d 56e4      	SUBI R30,LOW(100)
00127e 40f0      	SBCI R31,HIGH(100)
00127f 93e0 0307 	STS  _modbus_id,R30
001281 93f0 0308 	STS  _modbus_id+1,R31
                 ; 0000 0632                 if (modbus_id <1) modbus_id = 1;
001283 91a0 0307 	LDS  R26,_modbus_id
001285 91b0 0308 	LDS  R27,_modbus_id+1
001287 9711      	SBIW R26,1
001288 f434      	BRGE _0xDE
001289 e0e1      	LDI  R30,LOW(1)
00128a e0f0      	LDI  R31,HIGH(1)
00128b 93e0 0307 	STS  _modbus_id,R30
00128d 93f0 0308 	STS  _modbus_id+1,R31
                 ; 0000 0633                 break;
                 _0xDE:
00128f c04e      	RJMP _0xBA
                 ; 0000 0634         case 18:modbus_id-=1;
                 _0xDD:
001290 31e2      	CPI  R30,LOW(0x12)
001291 e0a0      	LDI  R26,HIGH(0x12)
001292 07fa      	CPC  R31,R26
001293 f4b1      	BRNE _0xDF
001294 91e0 0307 	LDS  R30,_modbus_id
001296 91f0 0308 	LDS  R31,_modbus_id+1
001298 9731      	SBIW R30,1
001299 93e0 0307 	STS  _modbus_id,R30
00129b 93f0 0308 	STS  _modbus_id+1,R31
                 ; 0000 0635                 if (modbus_id <1) modbus_id = 1;
00129d 91a0 0307 	LDS  R26,_modbus_id
00129f 91b0 0308 	LDS  R27,_modbus_id+1
0012a1 9711      	SBIW R26,1
0012a2 f434      	BRGE _0xE0
0012a3 e0e1      	LDI  R30,LOW(1)
0012a4 e0f0      	LDI  R31,HIGH(1)
0012a5 93e0 0307 	STS  _modbus_id,R30
0012a7 93f0 0308 	STS  _modbus_id+1,R31
                 ; 0000 0636                 break;
                 _0xE0:
0012a9 c034      	RJMP _0xBA
                 ; 0000 0637         case 19:modbus_rate-=100;
                 _0xDF:
0012aa 31e3      	CPI  R30,LOW(0x13)
0012ab e0a0      	LDI  R26,HIGH(0x13)
0012ac 07fa      	CPC  R31,R26
0012ad f4b9      	BRNE _0xE1
0012ae 91e0 0309 	LDS  R30,_modbus_rate
0012b0 91f0 030a 	LDS  R31,_modbus_rate+1
0012b2 56e4      	SUBI R30,LOW(100)
0012b3 40f0      	SBCI R31,HIGH(100)
0012b4 93e0 0309 	STS  _modbus_rate,R30
0012b6 93f0 030a 	STS  _modbus_rate+1,R31
                 ; 0000 0638                 if (modbus_rate <1) modbus_rate = 1;
0012b8 91a0 0309 	LDS  R26,_modbus_rate
0012ba 91b0 030a 	LDS  R27,_modbus_rate+1
0012bc 9711      	SBIW R26,1
0012bd f434      	BRGE _0xE2
0012be e0e1      	LDI  R30,LOW(1)
0012bf e0f0      	LDI  R31,HIGH(1)
0012c0 93e0 0309 	STS  _modbus_rate,R30
0012c2 93f0 030a 	STS  _modbus_rate+1,R31
                 ; 0000 0639                 break;
                 _0xE2:
0012c4 c019      	RJMP _0xBA
                 ; 0000 063A         case 20:modbus_rate-=1;
                 _0xE1:
0012c5 31e4      	CPI  R30,LOW(0x14)
0012c6 e0a0      	LDI  R26,HIGH(0x14)
0012c7 07fa      	CPC  R31,R26
0012c8 f4a9      	BRNE _0xBA
0012c9 91e0 0309 	LDS  R30,_modbus_rate
0012cb 91f0 030a 	LDS  R31,_modbus_rate+1
0012cd 9731      	SBIW R30,1
0012ce 93e0 0309 	STS  _modbus_rate,R30
0012d0 93f0 030a 	STS  _modbus_rate+1,R31
                 ; 0000 063B                 if (modbus_rate <1) modbus_rate = 1;
0012d2 91a0 0309 	LDS  R26,_modbus_rate
0012d4 91b0 030a 	LDS  R27,_modbus_rate+1
0012d6 9711      	SBIW R26,1
0012d7 f434      	BRGE _0xE4
0012d8 e0e1      	LDI  R30,LOW(1)
0012d9 e0f0      	LDI  R31,HIGH(1)
0012da 93e0 0309 	STS  _modbus_rate,R30
0012dc 93f0 030a 	STS  _modbus_rate+1,R31
                 ; 0000 063C                 break;
                 _0xE4:
                 ; 0000 063D     }
                 _0xBA:
                 ; 0000 063E 
                 ; 0000 063F     }
                 ; 0000 0640 
                 ; 0000 0641 
                 ; 0000 0642 }
                 _0xB7:
                 ; 0000 0643 }
                 _0xB4:
0012de 9508      	RET
                 ; .FEND
                 ;
                 ;void check_shift(void)
                 ; 0000 0646 {
                 _check_shift:
                 ; .FSTART _check_shift
                 ; 0000 0647 if (key4_fl && pgm_fl)
0012df fe33      	SBRS R3,3
0012e0 c002      	RJMP _0xE6
0012e1 fc41      	SBRC R4,1
0012e2 c001      	RJMP _0xE7
                 _0xE6:
0012e3 c10b      	RJMP _0xE5
                 _0xE7:
                 ; 0000 0648 {
                 ; 0000 0649     bright_cnt =0;
0012e4 e0e0      	LDI  R30,LOW(0)
0012e5 93e0 02b2 	STS  _bright_cnt,R30
0012e7 93e0 02b3 	STS  _bright_cnt+1,R30
                 ; 0000 064A     program_timeout=0;
0012e9 93e0 02a8 	STS  _program_timeout,R30
0012eb 93e0 02a9 	STS  _program_timeout+1,R30
0012ed 93e0 02aa 	STS  _program_timeout+2,R30
0012ef 93e0 02ab 	STS  _program_timeout+3,R30
                 ; 0000 064B     key4_fl =0;
0012f1 94e8      	CLT
0012f2 f833      	BLD  R3,3
                 ; 0000 064C     if (mode ==1)
0012f3 91a0 02ac 	LDS  R26,_mode
0012f5 91b0 02ad 	LDS  R27,_mode+1
0012f7 9711      	SBIW R26,1
0012f8 f009      	BREQ PC+2
0012f9 c0f5      	RJMP _0xE8
                 ; 0000 064D     {
                 ; 0000 064E     item1++;
0012fa eba0      	LDI  R26,LOW(_item1)
0012fb e0b2      	LDI  R27,HIGH(_item1)
0012fc 91ed      	LD   R30,X+
0012fd 91fd      	LD   R31,X+
0012fe 9631      	ADIW R30,1
0012ff 93fe      	ST   -X,R31
001300 93ee      	ST   -X,R30
                 ; 0000 064F     if (set ==0 && item1>2) item1=0;
001301 91a0 02ae 	LDS  R26,_set
001303 91b0 02af 	LDS  R27,_set+1
001305 9710      	SBIW R26,0
001306 f431      	BRNE _0xEA
001307 91a0 02b0 	LDS  R26,_item1
001309 91b0 02b1 	LDS  R27,_item1+1
00130b 9713      	SBIW R26,3
00130c f40c      	BRGE _0xEB
                 _0xEA:
00130d c005      	RJMP _0xE9
                 _0xEB:
00130e e0e0      	LDI  R30,LOW(0)
00130f 93e0 02b0 	STS  _item1,R30
001311 93e0 02b1 	STS  _item1+1,R30
                 ; 0000 0650     if (set ==1 && (item1 <3 || item1 >5)) item1 =3;
                 _0xE9:
001313 91a0 02ae 	LDS  R26,_set
001315 91b0 02af 	LDS  R27,_set+1
001317 9711      	SBIW R26,1
001318 f469      	BRNE _0xED
001319 91a0 02b0 	LDS  R26,_item1
00131b 91b0 02b1 	LDS  R27,_item1+1
00131d 9713      	SBIW R26,3
00131e f034      	BRLT _0xEE
00131f 91a0 02b0 	LDS  R26,_item1
001321 91b0 02b1 	LDS  R27,_item1+1
001323 9716      	SBIW R26,6
001324 f00c      	BRLT _0xED
                 _0xEE:
001325 c001      	RJMP _0xF0
                 _0xED:
001326 c006      	RJMP _0xEC
                 _0xF0:
001327 e0e3      	LDI  R30,LOW(3)
001328 e0f0      	LDI  R31,HIGH(3)
001329 93e0 02b0 	STS  _item1,R30
00132b 93f0 02b1 	STS  _item1+1,R31
                 ; 0000 0651     if (set ==2 && (item1 <6 || item1 >7)) item1 =6;
                 _0xEC:
00132d 91a0 02ae 	LDS  R26,_set
00132f 91b0 02af 	LDS  R27,_set+1
001331 9712      	SBIW R26,2
001332 f469      	BRNE _0xF2
001333 91a0 02b0 	LDS  R26,_item1
001335 91b0 02b1 	LDS  R27,_item1+1
001337 9716      	SBIW R26,6
001338 f034      	BRLT _0xF3
001339 91a0 02b0 	LDS  R26,_item1
00133b 91b0 02b1 	LDS  R27,_item1+1
00133d 9718      	SBIW R26,8
00133e f00c      	BRLT _0xF2
                 _0xF3:
00133f c001      	RJMP _0xF5
                 _0xF2:
001340 c006      	RJMP _0xF1
                 _0xF5:
001341 e0e6      	LDI  R30,LOW(6)
001342 e0f0      	LDI  R31,HIGH(6)
001343 93e0 02b0 	STS  _item1,R30
001345 93f0 02b1 	STS  _item1+1,R31
                 ; 0000 0652     if (set ==3 && (item1 <8 || item1 >9)) item1 =8;
                 _0xF1:
001347 91a0 02ae 	LDS  R26,_set
001349 91b0 02af 	LDS  R27,_set+1
00134b 9713      	SBIW R26,3
00134c f469      	BRNE _0xF7
00134d 91a0 02b0 	LDS  R26,_item1
00134f 91b0 02b1 	LDS  R27,_item1+1
001351 9718      	SBIW R26,8
001352 f034      	BRLT _0xF8
001353 91a0 02b0 	LDS  R26,_item1
001355 91b0 02b1 	LDS  R27,_item1+1
001357 971a      	SBIW R26,10
001358 f00c      	BRLT _0xF7
                 _0xF8:
001359 c001      	RJMP _0xFA
                 _0xF7:
00135a c006      	RJMP _0xF6
                 _0xFA:
00135b e0e8      	LDI  R30,LOW(8)
00135c e0f0      	LDI  R31,HIGH(8)
00135d 93e0 02b0 	STS  _item1,R30
00135f 93f0 02b1 	STS  _item1+1,R31
                 ; 0000 0653     if (set ==4) item1 =10;
                 _0xF6:
001361 91a0 02ae 	LDS  R26,_set
001363 91b0 02af 	LDS  R27,_set+1
001365 9714      	SBIW R26,4
001366 f431      	BRNE _0xFB
001367 e0ea      	LDI  R30,LOW(10)
001368 e0f0      	LDI  R31,HIGH(10)
001369 93e0 02b0 	STS  _item1,R30
00136b 93f0 02b1 	STS  _item1+1,R31
                 ; 0000 0654     if (set ==5 && (item1 <11 || item1 >12)) item1 = 11;
                 _0xFB:
00136d 91a0 02ae 	LDS  R26,_set
00136f 91b0 02af 	LDS  R27,_set+1
001371 9715      	SBIW R26,5
001372 f469      	BRNE _0xFD
001373 91a0 02b0 	LDS  R26,_item1
001375 91b0 02b1 	LDS  R27,_item1+1
001377 971b      	SBIW R26,11
001378 f034      	BRLT _0xFE
001379 91a0 02b0 	LDS  R26,_item1
00137b 91b0 02b1 	LDS  R27,_item1+1
00137d 971d      	SBIW R26,13
00137e f00c      	BRLT _0xFD
                 _0xFE:
00137f c001      	RJMP _0x100
                 _0xFD:
001380 c006      	RJMP _0xFC
                 _0x100:
001381 e0eb      	LDI  R30,LOW(11)
001382 e0f0      	LDI  R31,HIGH(11)
001383 93e0 02b0 	STS  _item1,R30
001385 93f0 02b1 	STS  _item1+1,R31
                 ; 0000 0655     if (set ==6 && (item1 <13 || item1 >14)) item1 = 13;
                 _0xFC:
001387 91a0 02ae 	LDS  R26,_set
001389 91b0 02af 	LDS  R27,_set+1
00138b 9716      	SBIW R26,6
00138c f469      	BRNE _0x102
00138d 91a0 02b0 	LDS  R26,_item1
00138f 91b0 02b1 	LDS  R27,_item1+1
001391 971d      	SBIW R26,13
001392 f034      	BRLT _0x103
001393 91a0 02b0 	LDS  R26,_item1
001395 91b0 02b1 	LDS  R27,_item1+1
001397 971f      	SBIW R26,15
001398 f00c      	BRLT _0x102
                 _0x103:
001399 c001      	RJMP _0x105
                 _0x102:
00139a c006      	RJMP _0x101
                 _0x105:
00139b e0ed      	LDI  R30,LOW(13)
00139c e0f0      	LDI  R31,HIGH(13)
00139d 93e0 02b0 	STS  _item1,R30
00139f 93f0 02b1 	STS  _item1+1,R31
                 ; 0000 0656     if (set ==7 && (item1 <15 || item1 >16)) item1 = 15;
                 _0x101:
0013a1 91a0 02ae 	LDS  R26,_set
0013a3 91b0 02af 	LDS  R27,_set+1
0013a5 9717      	SBIW R26,7
0013a6 f469      	BRNE _0x107
0013a7 91a0 02b0 	LDS  R26,_item1
0013a9 91b0 02b1 	LDS  R27,_item1+1
0013ab 971f      	SBIW R26,15
0013ac f034      	BRLT _0x108
0013ad 91a0 02b0 	LDS  R26,_item1
0013af 91b0 02b1 	LDS  R27,_item1+1
0013b1 9751      	SBIW R26,17
0013b2 f00c      	BRLT _0x107
                 _0x108:
0013b3 c001      	RJMP _0x10A
                 _0x107:
0013b4 c006      	RJMP _0x106
                 _0x10A:
0013b5 e0ef      	LDI  R30,LOW(15)
0013b6 e0f0      	LDI  R31,HIGH(15)
0013b7 93e0 02b0 	STS  _item1,R30
0013b9 93f0 02b1 	STS  _item1+1,R31
                 ; 0000 0657     if (set ==8 && (item1 <17 || item1 >18)) item1 = 17;
                 _0x106:
0013bb 91a0 02ae 	LDS  R26,_set
0013bd 91b0 02af 	LDS  R27,_set+1
0013bf 9718      	SBIW R26,8
0013c0 f469      	BRNE _0x10C
0013c1 91a0 02b0 	LDS  R26,_item1
0013c3 91b0 02b1 	LDS  R27,_item1+1
0013c5 9751      	SBIW R26,17
0013c6 f034      	BRLT _0x10D
0013c7 91a0 02b0 	LDS  R26,_item1
0013c9 91b0 02b1 	LDS  R27,_item1+1
0013cb 9753      	SBIW R26,19
0013cc f00c      	BRLT _0x10C
                 _0x10D:
0013cd c001      	RJMP _0x10F
                 _0x10C:
0013ce c006      	RJMP _0x10B
                 _0x10F:
0013cf e1e1      	LDI  R30,LOW(17)
0013d0 e0f0      	LDI  R31,HIGH(17)
0013d1 93e0 02b0 	STS  _item1,R30
0013d3 93f0 02b1 	STS  _item1+1,R31
                 ; 0000 0658     if (set ==9 && (item1 <20 || item1 >20)) item1 = 20;
                 _0x10B:
0013d5 91a0 02ae 	LDS  R26,_set
0013d7 91b0 02af 	LDS  R27,_set+1
0013d9 9719      	SBIW R26,9
0013da f469      	BRNE _0x111
0013db 91a0 02b0 	LDS  R26,_item1
0013dd 91b0 02b1 	LDS  R27,_item1+1
0013df 9754      	SBIW R26,20
0013e0 f034      	BRLT _0x112
0013e1 91a0 02b0 	LDS  R26,_item1
0013e3 91b0 02b1 	LDS  R27,_item1+1
0013e5 9755      	SBIW R26,21
0013e6 f00c      	BRLT _0x111
                 _0x112:
0013e7 c001      	RJMP _0x114
                 _0x111:
0013e8 c006      	RJMP _0x110
                 _0x114:
0013e9 e1e4      	LDI  R30,LOW(20)
0013ea e0f0      	LDI  R31,HIGH(20)
0013eb 93e0 02b0 	STS  _item1,R30
0013ed 93f0 02b1 	STS  _item1+1,R31
                 ; 0000 0659 
                 ; 0000 065A    }
                 _0x110:
                 ; 0000 065B 
                 ; 0000 065C }
                 _0xE8:
                 ; 0000 065D }
                 _0xE5:
0013ef 9508      	RET
                 ; .FEND
                 ;
                 ;void check_enter(void)
                 ; 0000 0660 {
                 _check_enter:
                 ; .FSTART _check_enter
                 ; 0000 0661 
                 ; 0000 0662 
                 ; 0000 0663 
                 ; 0000 0664 if (key1_fl && pgm_fl)
0013f0 fe30      	SBRS R3,0
0013f1 c002      	RJMP _0x116
0013f2 fc41      	SBRC R4,1
0013f3 c001      	RJMP _0x117
                 _0x116:
0013f4 c363      	RJMP _0x115
                 _0x117:
                 ; 0000 0665 {
                 ; 0000 0666     bright_cnt =0;
0013f5 e0e0      	LDI  R30,LOW(0)
0013f6 93e0 02b2 	STS  _bright_cnt,R30
0013f8 93e0 02b3 	STS  _bright_cnt+1,R30
                 ; 0000 0667     program_timeout=0;
0013fa 93e0 02a8 	STS  _program_timeout,R30
0013fc 93e0 02a9 	STS  _program_timeout+1,R30
0013fe 93e0 02aa 	STS  _program_timeout+2,R30
001400 93e0 02ab 	STS  _program_timeout+3,R30
                 ; 0000 0668     key1_fl =0;
001402 94e8      	CLT
001403 f830      	BLD  R3,0
                 ; 0000 0669     if (mode ==1)
001404 91a0 02ac 	LDS  R26,_mode
001406 91b0 02ad 	LDS  R27,_mode+1
001408 9711      	SBIW R26,1
001409 f009      	BREQ PC+2
00140a c34d      	RJMP _0x118
                 ; 0000 066A     {
                 ; 0000 066B     switch(set)
00140b 91e0 02ae 	LDS  R30,_set
00140d 91f0 02af 	LDS  R31,_set+1
                 ; 0000 066C     {
                 ; 0000 066D     case 0: rtc_set_time(hour,minute,second);
00140f 9730      	SBIW R30,0
001410 f431      	BRNE _0x11C
001411 927a      	ST   -Y,R7
001412 926a      	ST   -Y,R6
001413 2da9      	MOV  R26,R9
001414 940e 2a77 	CALL _rtc_set_time
                 ; 0000 066E             break;
001416 c064      	RJMP _0x11B
                 ; 0000 066F     case 1: rtc_set_date(week,day,month,year);   // pdi is week day not used.
                 _0x11C:
001417 30e1      	CPI  R30,LOW(0x1)
001418 e0a0      	LDI  R26,HIGH(0x1)
001419 07fa      	CPC  R31,R26
00141a f439      	BRNE _0x11D
00141b 928a      	ST   -Y,R8
00141c 92ba      	ST   -Y,R11
00141d 92aa      	ST   -Y,R10
00141e 2dad      	MOV  R26,R13
00141f 940e 2acc 	CALL _rtc_set_date
                 ; 0000 0670             break;
001421 c059      	RJMP _0x11B
                 ; 0000 0671     case 2: e_set_latit = set_latit;
                 _0x11D:
001422 30e2      	CPI  R30,LOW(0x2)
001423 e0a0      	LDI  R26,HIGH(0x2)
001424 07fa      	CPC  R31,R26
001425 f439      	BRNE _0x11E
001426 91e0 02ca 	LDS  R30,_set_latit
001428 91f0 02cb 	LDS  R31,_set_latit+1
00142a e0a0      	LDI  R26,LOW(_e_set_latit)
00142b e0b0      	LDI  R27,HIGH(_e_set_latit)
00142c c04c      	RJMP _0x283
                 ; 0000 0672             break;
                 ; 0000 0673     case 3: e_set_longitude = set_longitude;
                 _0x11E:
00142d 30e3      	CPI  R30,LOW(0x3)
00142e e0a0      	LDI  R26,HIGH(0x3)
00142f 07fa      	CPC  R31,R26
001430 f439      	BRNE _0x11F
001431 91e0 02cc 	LDS  R30,_set_longitude
001433 91f0 02cd 	LDS  R31,_set_longitude+1
001435 e0a2      	LDI  R26,LOW(_e_set_longitude)
001436 e0b0      	LDI  R27,HIGH(_e_set_longitude)
001437 c041      	RJMP _0x283
                 ; 0000 0674             break;
                 ; 0000 0675     case 4: e_time_interval = time_interval;
                 _0x11F:
001438 30e4      	CPI  R30,LOW(0x4)
001439 e0a0      	LDI  R26,HIGH(0x4)
00143a 07fa      	CPC  R31,R26
00143b f439      	BRNE _0x120
00143c 91e0 02d2 	LDS  R30,_time_interval
00143e 91f0 02d3 	LDS  R31,_time_interval+1
001440 e0a8      	LDI  R26,LOW(_e_time_interval)
001441 e0b0      	LDI  R27,HIGH(_e_time_interval)
001442 c036      	RJMP _0x283
                 ; 0000 0676             break;
                 ; 0000 0677     case 5: e_set_timezone = set_timezone;
                 _0x120:
001443 30e5      	CPI  R30,LOW(0x5)
001444 e0a0      	LDI  R26,HIGH(0x5)
001445 07fa      	CPC  R31,R26
001446 f439      	BRNE _0x121
001447 91e0 02d8 	LDS  R30,_set_timezone
001449 91f0 02d9 	LDS  R31,_set_timezone+1
00144b e0aa      	LDI  R26,LOW(_e_set_timezone)
00144c e0b0      	LDI  R27,HIGH(_e_set_timezone)
00144d c02b      	RJMP _0x283
                 ; 0000 0678             break;
                 ; 0000 0679     case 6: e_set_width = set_width ;
                 _0x121:
00144e 30e6      	CPI  R30,LOW(0x6)
00144f e0a0      	LDI  R26,HIGH(0x6)
001450 07fa      	CPC  R31,R26
001451 f439      	BRNE _0x122
001452 91e0 0305 	LDS  R30,_set_width
001454 91f0 0306 	LDS  R31,_set_width+1
001456 e1ab      	LDI  R26,LOW(_e_set_width)
001457 e0b0      	LDI  R27,HIGH(_e_set_width)
001458 c020      	RJMP _0x283
                 ; 0000 067A             break;
                 ; 0000 067B     case 7: e_set_distance = set_distance;
                 _0x122:
001459 30e7      	CPI  R30,LOW(0x7)
00145a e0a0      	LDI  R26,HIGH(0x7)
00145b 07fa      	CPC  R31,R26
00145c f439      	BRNE _0x123
00145d 91e0 0303 	LDS  R30,_set_distance
00145f 91f0 0304 	LDS  R31,_set_distance+1
001461 e1ad      	LDI  R26,LOW(_e_set_distance)
001462 e0b0      	LDI  R27,HIGH(_e_set_distance)
001463 c015      	RJMP _0x283
                 ; 0000 067C             break;
                 ; 0000 067D     case 8: e_modbus_id =modbus_id;
                 _0x123:
001464 30e8      	CPI  R30,LOW(0x8)
001465 e0a0      	LDI  R26,HIGH(0x8)
001466 07fa      	CPC  R31,R26
001467 f439      	BRNE _0x124
001468 91e0 0307 	LDS  R30,_modbus_id
00146a 91f0 0308 	LDS  R31,_modbus_id+1
00146c e2a2      	LDI  R26,LOW(_e_modbus_id)
00146d e0b0      	LDI  R27,HIGH(_e_modbus_id)
00146e c00a      	RJMP _0x283
                 ; 0000 067E             break;
                 ; 0000 067F     case 9: e_modbus_rate = modbus_rate;
                 _0x124:
00146f 30e9      	CPI  R30,LOW(0x9)
001470 e0a0      	LDI  R26,HIGH(0x9)
001471 07fa      	CPC  R31,R26
001472 f441      	BRNE _0x11B
001473 91e0 0309 	LDS  R30,_modbus_rate
001475 91f0 030a 	LDS  R31,_modbus_rate+1
001477 e2a4      	LDI  R26,LOW(_e_modbus_rate)
001478 e0b0      	LDI  R27,HIGH(_e_modbus_rate)
                 _0x283:
001479 940e 2f71 	CALL __EEPROMWRW
                 ; 0000 0680             break;
                 ; 0000 0681     }
                 _0x11B:
                 ; 0000 0682 
                 ; 0000 0683     set++;
00147b eaae      	LDI  R26,LOW(_set)
00147c e0b2      	LDI  R27,HIGH(_set)
00147d 91ed      	LD   R30,X+
00147e 91fd      	LD   R31,X+
00147f 9631      	ADIW R30,1
001480 93fe      	ST   -X,R31
001481 93ee      	ST   -X,R30
                 ; 0000 0684     if (set>9)  set =0;
001482 91a0 02ae 	LDS  R26,_set
001484 91b0 02af 	LDS  R27,_set+1
001486 971a      	SBIW R26,10
001487 f02c      	BRLT _0x126
001488 e0e0      	LDI  R30,LOW(0)
001489 93e0 02ae 	STS  _set,R30
00148b 93e0 02af 	STS  _set+1,R30
                 ; 0000 0685 
                 ; 0000 0686     switch (set)
                 _0x126:
00148d 91e0 02ae 	LDS  R30,_set
00148f 91f0 02af 	LDS  R31,_set+1
                 ; 0000 0687     {
                 ; 0000 0688     case 0:     lcd_clear();
001491 9730      	SBIW R30,0
001492 f551      	BRNE _0x12A
001493 940e 2b4d 	CALL _lcd_clear
                 ; 0000 0689                 lcd_putsf("Set Time");
                +
001495 eba7     +LDI R26 , LOW ( 2 * _0x0 + ( 57 ) )
001496 e0b2     +LDI R27 , HIGH ( 2 * _0x0 + ( 57 ) )
                 	__POINTW2FN _0x0,57
001497 940e 2b89 	CALL _lcd_putsf
                 ; 0000 068A                 rtc_get_time(&hour,&minute,&second);
001499 e0e7      	LDI  R30,LOW(7)
00149a e0f0      	LDI  R31,HIGH(7)
00149b 93fa      	ST   -Y,R31
00149c 93ea      	ST   -Y,R30
00149d e0e6      	LDI  R30,LOW(6)
00149e e0f0      	LDI  R31,HIGH(6)
00149f 93fa      	ST   -Y,R31
0014a0 93ea      	ST   -Y,R30
0014a1 e0a9      	LDI  R26,LOW(9)
0014a2 e0b0      	LDI  R27,HIGH(9)
0014a3 940e 2a47 	CALL _rtc_get_time
                 ; 0000 068B //                if (hour <0 || hour >24) rtc_err=1;         //added for rtc error
                 ; 0000 068C                 lcd_gotoxy(0,1);
0014a5 e0e0      	LDI  R30,LOW(0)
0014a6 93ea      	ST   -Y,R30
0014a7 e0a1      	LDI  R26,LOW(1)
0014a8 940e 2b39 	CALL _lcd_gotoxy
                 ; 0000 068D                 display_time();
0014aa d824      	RCALL _display_time
                 ; 0000 068E                 blink_data = hour;
0014ab 9270 02c9 	STS  _blink_data,R7
                 ; 0000 068F                 blink_locx =0;
0014ad 24cc      	CLR  R12
                 ; 0000 0690                 blink_locy =1;
0014ae e0e1      	LDI  R30,LOW(1)
0014af 93e0 02c8 	STS  _blink_locy,R30
                 ; 0000 0691                 blink_fl =1;
0014b1 9468      	SET
0014b2 f842      	BLD  R4,2
                 ; 0000 0692                 set =0;
0014b3 e0e0      	LDI  R30,LOW(0)
0014b4 93e0 02ae 	STS  _set,R30
0014b6 93e0 02af 	STS  _set+1,R30
                 ; 0000 0693                 item1 =0;
0014b8 93e0 02b0 	STS  _item1,R30
0014ba 93e0 02b1 	STS  _item1+1,R30
                 ; 0000 0694                 break;
0014bc c29b      	RJMP _0x129
                 ; 0000 0695 
                 ; 0000 0696     case 1:     lcd_clear();
                 _0x12A:
0014bd 30e1      	CPI  R30,LOW(0x1)
0014be e0a0      	LDI  R26,HIGH(0x1)
0014bf 07fa      	CPC  R31,R26
0014c0 f569      	BRNE _0x12B
0014c1 940e 2b4d 	CALL _lcd_clear
                 ; 0000 0697                 lcd_putsf("Set Date");
                +
0014c3 eca0     +LDI R26 , LOW ( 2 * _0x0 + ( 66 ) )
0014c4 e0b2     +LDI R27 , HIGH ( 2 * _0x0 + ( 66 ) )
                 	__POINTW2FN _0x0,66
0014c5 940e 2b89 	CALL _lcd_putsf
                 ; 0000 0698                 rtc_get_date(&week,&day,&month,&year);   // pdi is weekday not used only for cvavr2.05.
0014c7 e0e8      	LDI  R30,LOW(8)
0014c8 e0f0      	LDI  R31,HIGH(8)
0014c9 93fa      	ST   -Y,R31
0014ca 93ea      	ST   -Y,R30
0014cb e0eb      	LDI  R30,LOW(11)
0014cc e0f0      	LDI  R31,HIGH(11)
0014cd 93fa      	ST   -Y,R31
0014ce 93ea      	ST   -Y,R30
0014cf e0ea      	LDI  R30,LOW(10)
0014d0 e0f0      	LDI  R31,HIGH(10)
0014d1 93fa      	ST   -Y,R31
0014d2 93ea      	ST   -Y,R30
0014d3 e0ad      	LDI  R26,LOW(13)
0014d4 e0b0      	LDI  R27,HIGH(13)
0014d5 940e 2a96 	CALL _rtc_get_date
                 ; 0000 0699                 lcd_gotoxy(0,1);
0014d7 e0e0      	LDI  R30,LOW(0)
0014d8 93ea      	ST   -Y,R30
0014d9 e0a1      	LDI  R26,LOW(1)
0014da 940e 2b39 	CALL _lcd_gotoxy
                 ; 0000 069A                 display_date();
0014dc d83c      	RCALL _display_date
                 ; 0000 069B                 blink_data = day;
0014dd 92b0 02c9 	STS  _blink_data,R11
                 ; 0000 069C                 blink_locx =0;
0014df 24cc      	CLR  R12
                 ; 0000 069D                 blink_locy =1;
0014e0 e0e1      	LDI  R30,LOW(1)
0014e1 93e0 02c8 	STS  _blink_locy,R30
                 ; 0000 069E                 blink_fl =1;
0014e3 9468      	SET
0014e4 f842      	BLD  R4,2
                 ; 0000 069F                 set =1;
0014e5 e0e1      	LDI  R30,LOW(1)
0014e6 e0f0      	LDI  R31,HIGH(1)
0014e7 93e0 02ae 	STS  _set,R30
0014e9 93f0 02af 	STS  _set+1,R31
                 ; 0000 06A0                 item1 = 3;
0014eb e0e3      	LDI  R30,LOW(3)
0014ec e0f0      	LDI  R31,HIGH(3)
0014ed c266      	RJMP _0x284
                 ; 0000 06A1                 break;
                 ; 0000 06A2     case 2:     lcd_clear();
                 _0x12B:
0014ee 30e2      	CPI  R30,LOW(0x2)
0014ef e0a0      	LDI  R26,HIGH(0x2)
0014f0 07fa      	CPC  R31,R26
0014f1 f009      	BREQ PC+2
0014f2 c040      	RJMP _0x12C
0014f3 940e 2b4d 	CALL _lcd_clear
                 ; 0000 06A3                 lcd_putsf("Set Latitude");
                +
0014f5 eca9     +LDI R26 , LOW ( 2 * _0x0 + ( 75 ) )
0014f6 e0b2     +LDI R27 , HIGH ( 2 * _0x0 + ( 75 ) )
                 	__POINTW2FN _0x0,75
0014f7 940e 2b89 	CALL _lcd_putsf
                 ; 0000 06A4                 set_latit = e_set_latit;
0014f9 e0a0      	LDI  R26,LOW(_e_set_latit)
0014fa e0b0      	LDI  R27,HIGH(_e_set_latit)
0014fb 940e 2f59 	CALL __EEPROMRDW
0014fd 93e0 02ca 	STS  _set_latit,R30
0014ff 93f0 02cb 	STS  _set_latit+1,R31
                 ; 0000 06A5                 lcd_gotoxy(0,1);
001501 e0e0      	LDI  R30,LOW(0)
001502 93ea      	ST   -Y,R30
001503 e0a1      	LDI  R26,LOW(1)
001504 940e 2b39 	CALL _lcd_gotoxy
                 ; 0000 06A6                 display_latlong(set_latit);
001506 91a0 02ca 	LDS  R26,_set_latit
001508 91b0 02cb 	LDS  R27,_set_latit+1
00150a 940e 0cdb 	CALL _display_latlong
                 ; 0000 06A7                 lcd_putchar(0);
00150c e0a0      	LDI  R26,LOW(0)
00150d 940e 2b62 	CALL _lcd_putchar
                 ; 0000 06A8                 char_latitude = blink_data = (abs(set_latit)/100)%100 ;
00150f 91a0 02ca 	LDS  R26,_set_latit
001511 91b0 02cb 	LDS  R27,_set_latit+1
001513 940e 2a1a 	CALL _abs
001515 01df      	MOVW R26,R30
001516 e6e4      	LDI  R30,LOW(100)
001517 e0f0      	LDI  R31,HIGH(100)
001518 940e 2e8b 	CALL __DIVW21U
00151a 01df      	MOVW R26,R30
00151b e6e4      	LDI  R30,LOW(100)
00151c e0f0      	LDI  R31,HIGH(100)
00151d 940e 2ecd 	CALL __MODW21U
00151f 93e0 02c9 	STS  _blink_data,R30
001521 93e0 02e2 	STS  _char_latitude,R30
                 ; 0000 06A9                 blink_locx =2;
001523 e0e2      	LDI  R30,LOW(2)
001524 2ece      	MOV  R12,R30
                 ; 0000 06AA                 blink_locy =1;
001525 e0e1      	LDI  R30,LOW(1)
001526 93e0 02c8 	STS  _blink_locy,R30
                 ; 0000 06AB                 blink_fl =1;
001528 9468      	SET
001529 f842      	BLD  R4,2
                 ; 0000 06AC                 set =2;
00152a e0e2      	LDI  R30,LOW(2)
00152b e0f0      	LDI  R31,HIGH(2)
00152c 93e0 02ae 	STS  _set,R30
00152e 93f0 02af 	STS  _set+1,R31
                 ; 0000 06AD                 item1 =6;
001530 e0e6      	LDI  R30,LOW(6)
001531 e0f0      	LDI  R31,HIGH(6)
001532 c221      	RJMP _0x284
                 ; 0000 06AE                 break;
                 ; 0000 06AF     case 3:     lcd_clear();
                 _0x12C:
001533 30e3      	CPI  R30,LOW(0x3)
001534 e0a0      	LDI  R26,HIGH(0x3)
001535 07fa      	CPC  R31,R26
001536 f009      	BREQ PC+2
001537 c040      	RJMP _0x12D
001538 940e 2b4d 	CALL _lcd_clear
                 ; 0000 06B0                 lcd_putsf("Set Longitude");
                +
00153a eda6     +LDI R26 , LOW ( 2 * _0x0 + ( 88 ) )
00153b e0b2     +LDI R27 , HIGH ( 2 * _0x0 + ( 88 ) )
                 	__POINTW2FN _0x0,88
00153c 940e 2b89 	CALL _lcd_putsf
                 ; 0000 06B1                 set_longitude = e_set_longitude;
00153e e0a2      	LDI  R26,LOW(_e_set_longitude)
00153f e0b0      	LDI  R27,HIGH(_e_set_longitude)
001540 940e 2f59 	CALL __EEPROMRDW
001542 93e0 02cc 	STS  _set_longitude,R30
001544 93f0 02cd 	STS  _set_longitude+1,R31
                 ; 0000 06B2                 lcd_gotoxy(0,1);
001546 e0e0      	LDI  R30,LOW(0)
001547 93ea      	ST   -Y,R30
001548 e0a1      	LDI  R26,LOW(1)
001549 940e 2b39 	CALL _lcd_gotoxy
                 ; 0000 06B3                 display_latlong(set_longitude);
00154b 91a0 02cc 	LDS  R26,_set_longitude
00154d 91b0 02cd 	LDS  R27,_set_longitude+1
00154f 940e 0cdb 	CALL _display_latlong
                 ; 0000 06B4                 lcd_putchar(0);
001551 e0a0      	LDI  R26,LOW(0)
001552 940e 2b62 	CALL _lcd_putchar
                 ; 0000 06B5                 char_longitude = blink_data = (abs(set_longitude)/100)%100 ;
001554 91a0 02cc 	LDS  R26,_set_longitude
001556 91b0 02cd 	LDS  R27,_set_longitude+1
001558 940e 2a1a 	CALL _abs
00155a 01df      	MOVW R26,R30
00155b e6e4      	LDI  R30,LOW(100)
00155c e0f0      	LDI  R31,HIGH(100)
00155d 940e 2e8b 	CALL __DIVW21U
00155f 01df      	MOVW R26,R30
001560 e6e4      	LDI  R30,LOW(100)
001561 e0f0      	LDI  R31,HIGH(100)
001562 940e 2ecd 	CALL __MODW21U
001564 93e0 02c9 	STS  _blink_data,R30
001566 93e0 02e3 	STS  _char_longitude,R30
                 ; 0000 06B6                 blink_locx =2;
001568 e0e2      	LDI  R30,LOW(2)
001569 2ece      	MOV  R12,R30
                 ; 0000 06B7                 blink_locy =1;
00156a e0e1      	LDI  R30,LOW(1)
00156b 93e0 02c8 	STS  _blink_locy,R30
                 ; 0000 06B8                 blink_fl =1;
00156d 9468      	SET
00156e f842      	BLD  R4,2
                 ; 0000 06B9                 set =3;
00156f e0e3      	LDI  R30,LOW(3)
001570 e0f0      	LDI  R31,HIGH(3)
001571 93e0 02ae 	STS  _set,R30
001573 93f0 02af 	STS  _set+1,R31
                 ; 0000 06BA                 item1 =8;
001575 e0e8      	LDI  R30,LOW(8)
001576 e0f0      	LDI  R31,HIGH(8)
001577 c1dc      	RJMP _0x284
                 ; 0000 06BB                 break;
                 ; 0000 06BC     case 4:     lcd_clear();
                 _0x12D:
001578 30e4      	CPI  R30,LOW(0x4)
001579 e0a0      	LDI  R26,HIGH(0x4)
00157a 07fa      	CPC  R31,R26
00157b f571      	BRNE _0x12E
00157c 940e 2b4d 	CALL _lcd_clear
                 ; 0000 06BD                 lcd_putsf("Time Interval ");
                +
00157e eea4     +LDI R26 , LOW ( 2 * _0x0 + ( 102 ) )
00157f e0b2     +LDI R27 , HIGH ( 2 * _0x0 + ( 102 ) )
                 	__POINTW2FN _0x0,102
001580 940e 2b89 	CALL _lcd_putsf
                 ; 0000 06BE                 e_time_interval = time_interval;
001582 91e0 02d2 	LDS  R30,_time_interval
001584 91f0 02d3 	LDS  R31,_time_interval+1
001586 e0a8      	LDI  R26,LOW(_e_time_interval)
001587 e0b0      	LDI  R27,HIGH(_e_time_interval)
001588 940e 2f71 	CALL __EEPROMWRW
                 ; 0000 06BF                 lcd_gotoxy(0,1);
00158a e0e0      	LDI  R30,LOW(0)
00158b 93ea      	ST   -Y,R30
00158c e0a1      	LDI  R26,LOW(1)
00158d 940e 2b39 	CALL _lcd_gotoxy
                 ; 0000 06C0                 put_message2(time_interval);
00158f 91a0 02d2 	LDS  R26,_time_interval
001591 940e 0c53 	CALL _put_message2
                 ; 0000 06C1                 lcd_putsf(" minutes");
                +
001593 efa3     +LDI R26 , LOW ( 2 * _0x0 + ( 117 ) )
001594 e0b2     +LDI R27 , HIGH ( 2 * _0x0 + ( 117 ) )
                 	__POINTW2FN _0x0,117
001595 940e 2b89 	CALL _lcd_putsf
                 ; 0000 06C2                 blink_data = time_interval;
001597 91e0 02d2 	LDS  R30,_time_interval
001599 93e0 02c9 	STS  _blink_data,R30
                 ; 0000 06C3                 blink_locx =0;
00159b 24cc      	CLR  R12
                 ; 0000 06C4                 blink_locy =1;
00159c e0e1      	LDI  R30,LOW(1)
00159d 93e0 02c8 	STS  _blink_locy,R30
                 ; 0000 06C5                 blink_fl =1;
00159f 9468      	SET
0015a0 f842      	BLD  R4,2
                 ; 0000 06C6                 set =4;
0015a1 e0e4      	LDI  R30,LOW(4)
0015a2 e0f0      	LDI  R31,HIGH(4)
0015a3 93e0 02ae 	STS  _set,R30
0015a5 93f0 02af 	STS  _set+1,R31
                 ; 0000 06C7                 item1 =10;
0015a7 e0ea      	LDI  R30,LOW(10)
0015a8 e0f0      	LDI  R31,HIGH(10)
0015a9 c1aa      	RJMP _0x284
                 ; 0000 06C8                 break;
                 ; 0000 06C9     case 5:     lcd_clear();
                 _0x12E:
0015aa 30e5      	CPI  R30,LOW(0x5)
0015ab e0a0      	LDI  R26,HIGH(0x5)
0015ac 07fa      	CPC  R31,R26
0015ad f009      	BREQ PC+2
0015ae c045      	RJMP _0x12F
0015af 940e 2b4d 	CALL _lcd_clear
                 ; 0000 06CA                 lcd_putsf("Set Timezone");
                +
0015b1 efac     +LDI R26 , LOW ( 2 * _0x0 + ( 126 ) )
0015b2 e0b2     +LDI R27 , HIGH ( 2 * _0x0 + ( 126 ) )
                 	__POINTW2FN _0x0,126
0015b3 940e 2b89 	CALL _lcd_putsf
                 ; 0000 06CB                 set_timezone = e_set_timezone;
0015b5 e0aa      	LDI  R26,LOW(_e_set_timezone)
0015b6 e0b0      	LDI  R27,HIGH(_e_set_timezone)
0015b7 940e 2f59 	CALL __EEPROMRDW
0015b9 93e0 02d8 	STS  _set_timezone,R30
0015bb 93f0 02d9 	STS  _set_timezone+1,R31
                 ; 0000 06CC                 lcd_gotoxy(0,1);
0015bd e0e0      	LDI  R30,LOW(0)
0015be 93ea      	ST   -Y,R30
0015bf e0a1      	LDI  R26,LOW(1)
0015c0 940e 2b39 	CALL _lcd_gotoxy
                 ; 0000 06CD                 lcd_putsf("GMT ");
                +
0015c2 e0a9     +LDI R26 , LOW ( 2 * _0x0 + ( 139 ) )
0015c3 e0b3     +LDI R27 , HIGH ( 2 * _0x0 + ( 139 ) )
                 	__POINTW2FN _0x0,139
0015c4 940e 2b89 	CALL _lcd_putsf
                 ; 0000 06CE                 display_latlong(set_timezone);
0015c6 91a0 02d8 	LDS  R26,_set_timezone
0015c8 91b0 02d9 	LDS  R27,_set_timezone+1
0015ca 940e 0cdb 	CALL _display_latlong
                 ; 0000 06CF                 lcd_putsf("Hrs.");
                +
0015cc e0ae     +LDI R26 , LOW ( 2 * _0x0 + ( 144 ) )
0015cd e0b3     +LDI R27 , HIGH ( 2 * _0x0 + ( 144 ) )
                 	__POINTW2FN _0x0,144
0015ce 940e 2b89 	CALL _lcd_putsf
                 ; 0000 06D0                 char_timezone = blink_data = (abs(set_timezone)/100)%100 ;
0015d0 91a0 02d8 	LDS  R26,_set_timezone
0015d2 91b0 02d9 	LDS  R27,_set_timezone+1
0015d4 940e 2a1a 	CALL _abs
0015d6 01df      	MOVW R26,R30
0015d7 e6e4      	LDI  R30,LOW(100)
0015d8 e0f0      	LDI  R31,HIGH(100)
0015d9 940e 2e8b 	CALL __DIVW21U
0015db 01df      	MOVW R26,R30
0015dc e6e4      	LDI  R30,LOW(100)
0015dd e0f0      	LDI  R31,HIGH(100)
0015de 940e 2ecd 	CALL __MODW21U
0015e0 93e0 02c9 	STS  _blink_data,R30
0015e2 93e0 02e4 	STS  _char_timezone,R30
                 ; 0000 06D1                 blink_locx =6;
0015e4 e0e6      	LDI  R30,LOW(6)
0015e5 2ece      	MOV  R12,R30
                 ; 0000 06D2                 blink_locy =1;
0015e6 e0e1      	LDI  R30,LOW(1)
0015e7 93e0 02c8 	STS  _blink_locy,R30
                 ; 0000 06D3                 blink_fl =1;
0015e9 9468      	SET
0015ea f842      	BLD  R4,2
                 ; 0000 06D4                 set =5;
0015eb e0e5      	LDI  R30,LOW(5)
0015ec e0f0      	LDI  R31,HIGH(5)
0015ed 93e0 02ae 	STS  _set,R30
0015ef 93f0 02af 	STS  _set+1,R31
                 ; 0000 06D5                 item1 =11;
0015f1 e0eb      	LDI  R30,LOW(11)
0015f2 e0f0      	LDI  R31,HIGH(11)
0015f3 c160      	RJMP _0x284
                 ; 0000 06D6                 break;
                 ; 0000 06D7     case 6:     lcd_clear();
                 _0x12F:
0015f4 30e6      	CPI  R30,LOW(0x6)
0015f5 e0a0      	LDI  R26,HIGH(0x6)
0015f6 07fa      	CPC  R31,R26
0015f7 f009      	BREQ PC+2
0015f8 c045      	RJMP _0x130
0015f9 940e 2b4d 	CALL _lcd_clear
                 ; 0000 06D8                 lcd_putsf("Set Panel Height");
                +
0015fb e1a3     +LDI R26 , LOW ( 2 * _0x0 + ( 149 ) )
0015fc e0b3     +LDI R27 , HIGH ( 2 * _0x0 + ( 149 ) )
                 	__POINTW2FN _0x0,149
0015fd 940e 2b89 	CALL _lcd_putsf
                 ; 0000 06D9                 set_width = e_set_width;
0015ff e1ab      	LDI  R26,LOW(_e_set_width)
001600 e0b0      	LDI  R27,HIGH(_e_set_width)
001601 940e 2f59 	CALL __EEPROMRDW
001603 93e0 0305 	STS  _set_width,R30
001605 93f0 0306 	STS  _set_width+1,R31
                 ; 0000 06DA                 lcd_gotoxy(0,1);
001607 e0e0      	LDI  R30,LOW(0)
001608 93ea      	ST   -Y,R30
001609 e0a1      	LDI  R26,LOW(1)
00160a 940e 2b39 	CALL _lcd_gotoxy
                 ; 0000 06DB                 lcd_putsf("    ");
                +
00160c e2a4     +LDI R26 , LOW ( 2 * _0x0 + ( 166 ) )
00160d e0b3     +LDI R27 , HIGH ( 2 * _0x0 + ( 166 ) )
                 	__POINTW2FN _0x0,166
00160e 940e 2b89 	CALL _lcd_putsf
                 ; 0000 06DC                 display_latlong(set_width);
001610 91a0 0305 	LDS  R26,_set_width
001612 91b0 0306 	LDS  R27,_set_width+1
001614 940e 0cdb 	CALL _display_latlong
                 ; 0000 06DD                 lcd_putsf("Mtrs.");
                +
001616 e2a9     +LDI R26 , LOW ( 2 * _0x0 + ( 171 ) )
001617 e0b3     +LDI R27 , HIGH ( 2 * _0x0 + ( 171 ) )
                 	__POINTW2FN _0x0,171
001618 940e 2b89 	CALL _lcd_putsf
                 ; 0000 06DE                 char_width = blink_data = (abs(set_width)/100)%100 ;
00161a 91a0 0305 	LDS  R26,_set_width
00161c 91b0 0306 	LDS  R27,_set_width+1
00161e 940e 2a1a 	CALL _abs
001620 01df      	MOVW R26,R30
001621 e6e4      	LDI  R30,LOW(100)
001622 e0f0      	LDI  R31,HIGH(100)
001623 940e 2e8b 	CALL __DIVW21U
001625 01df      	MOVW R26,R30
001626 e6e4      	LDI  R30,LOW(100)
001627 e0f0      	LDI  R31,HIGH(100)
001628 940e 2ecd 	CALL __MODW21U
00162a 93e0 02c9 	STS  _blink_data,R30
00162c 93e0 02e5 	STS  _char_width,R30
                 ; 0000 06DF                 blink_locx =6;
00162e e0e6      	LDI  R30,LOW(6)
00162f 2ece      	MOV  R12,R30
                 ; 0000 06E0                 blink_locy =1;
001630 e0e1      	LDI  R30,LOW(1)
001631 93e0 02c8 	STS  _blink_locy,R30
                 ; 0000 06E1                 blink_fl =1;
001633 9468      	SET
001634 f842      	BLD  R4,2
                 ; 0000 06E2                 set =6;
001635 e0e6      	LDI  R30,LOW(6)
001636 e0f0      	LDI  R31,HIGH(6)
001637 93e0 02ae 	STS  _set,R30
001639 93f0 02af 	STS  _set+1,R31
                 ; 0000 06E3                 item1 =13;
00163b e0ed      	LDI  R30,LOW(13)
00163c e0f0      	LDI  R31,HIGH(13)
00163d c116      	RJMP _0x284
                 ; 0000 06E4                 break;
                 ; 0000 06E5     case 7:     lcd_clear();
                 _0x130:
00163e 30e7      	CPI  R30,LOW(0x7)
00163f e0a0      	LDI  R26,HIGH(0x7)
001640 07fa      	CPC  R31,R26
001641 f009      	BREQ PC+2
001642 c045      	RJMP _0x131
001643 940e 2b4d 	CALL _lcd_clear
                 ; 0000 06E6                 lcd_putsf("Set Distance");
                +
001645 e2af     +LDI R26 , LOW ( 2 * _0x0 + ( 177 ) )
001646 e0b3     +LDI R27 , HIGH ( 2 * _0x0 + ( 177 ) )
                 	__POINTW2FN _0x0,177
001647 940e 2b89 	CALL _lcd_putsf
                 ; 0000 06E7                 set_distance = e_set_distance;
001649 e1ad      	LDI  R26,LOW(_e_set_distance)
00164a e0b0      	LDI  R27,HIGH(_e_set_distance)
00164b 940e 2f59 	CALL __EEPROMRDW
00164d 93e0 0303 	STS  _set_distance,R30
00164f 93f0 0304 	STS  _set_distance+1,R31
                 ; 0000 06E8                 lcd_gotoxy(0,1);
001651 e0e0      	LDI  R30,LOW(0)
001652 93ea      	ST   -Y,R30
001653 e0a1      	LDI  R26,LOW(1)
001654 940e 2b39 	CALL _lcd_gotoxy
                 ; 0000 06E9                 lcd_putsf("    ");
                +
001656 e2a4     +LDI R26 , LOW ( 2 * _0x0 + ( 166 ) )
001657 e0b3     +LDI R27 , HIGH ( 2 * _0x0 + ( 166 ) )
                 	__POINTW2FN _0x0,166
001658 940e 2b89 	CALL _lcd_putsf
                 ; 0000 06EA                 display_latlong(set_distance);
00165a 91a0 0303 	LDS  R26,_set_distance
00165c 91b0 0304 	LDS  R27,_set_distance+1
00165e 940e 0cdb 	CALL _display_latlong
                 ; 0000 06EB                 lcd_putsf("Mtrs.");
                +
001660 e2a9     +LDI R26 , LOW ( 2 * _0x0 + ( 171 ) )
001661 e0b3     +LDI R27 , HIGH ( 2 * _0x0 + ( 171 ) )
                 	__POINTW2FN _0x0,171
001662 940e 2b89 	CALL _lcd_putsf
                 ; 0000 06EC                 char_distance = blink_data = (abs(set_distance)/100)%100 ;
001664 91a0 0303 	LDS  R26,_set_distance
001666 91b0 0304 	LDS  R27,_set_distance+1
001668 940e 2a1a 	CALL _abs
00166a 01df      	MOVW R26,R30
00166b e6e4      	LDI  R30,LOW(100)
00166c e0f0      	LDI  R31,HIGH(100)
00166d 940e 2e8b 	CALL __DIVW21U
00166f 01df      	MOVW R26,R30
001670 e6e4      	LDI  R30,LOW(100)
001671 e0f0      	LDI  R31,HIGH(100)
001672 940e 2ecd 	CALL __MODW21U
001674 93e0 02c9 	STS  _blink_data,R30
001676 93e0 02e6 	STS  _char_distance,R30
                 ; 0000 06ED                 blink_locx =6;
001678 e0e6      	LDI  R30,LOW(6)
001679 2ece      	MOV  R12,R30
                 ; 0000 06EE                 blink_locy =1;
00167a e0e1      	LDI  R30,LOW(1)
00167b 93e0 02c8 	STS  _blink_locy,R30
                 ; 0000 06EF                 blink_fl =1;
00167d 9468      	SET
00167e f842      	BLD  R4,2
                 ; 0000 06F0                 set =7;
00167f e0e7      	LDI  R30,LOW(7)
001680 e0f0      	LDI  R31,HIGH(7)
001681 93e0 02ae 	STS  _set,R30
001683 93f0 02af 	STS  _set+1,R31
                 ; 0000 06F1                 item1 =15;
001685 e0ef      	LDI  R30,LOW(15)
001686 e0f0      	LDI  R31,HIGH(15)
001687 c0cc      	RJMP _0x284
                 ; 0000 06F2                 break;
                 ; 0000 06F3    case 8:     lcd_clear();
                 _0x131:
001688 30e8      	CPI  R30,LOW(0x8)
001689 e0a0      	LDI  R26,HIGH(0x8)
00168a 07fa      	CPC  R31,R26
00168b f009      	BREQ PC+2
00168c c045      	RJMP _0x132
00168d 940e 2b4d 	CALL _lcd_clear
                 ; 0000 06F4                 lcd_putsf("ModBus ID");
                +
00168f e3ac     +LDI R26 , LOW ( 2 * _0x0 + ( 190 ) )
001690 e0b3     +LDI R27 , HIGH ( 2 * _0x0 + ( 190 ) )
                 	__POINTW2FN _0x0,190
001691 940e 2b89 	CALL _lcd_putsf
                 ; 0000 06F5                 modbus_id = e_modbus_id;
001693 e2a2      	LDI  R26,LOW(_e_modbus_id)
001694 e0b0      	LDI  R27,HIGH(_e_modbus_id)
001695 940e 2f59 	CALL __EEPROMRDW
001697 93e0 0307 	STS  _modbus_id,R30
001699 93f0 0308 	STS  _modbus_id+1,R31
                 ; 0000 06F6                 lcd_gotoxy(0,1);
00169b e0e0      	LDI  R30,LOW(0)
00169c 93ea      	ST   -Y,R30
00169d e0a1      	LDI  R26,LOW(1)
00169e 940e 2b39 	CALL _lcd_gotoxy
                 ; 0000 06F7                 lcd_putsf("    ");
                +
0016a0 e2a4     +LDI R26 , LOW ( 2 * _0x0 + ( 166 ) )
0016a1 e0b3     +LDI R27 , HIGH ( 2 * _0x0 + ( 166 ) )
                 	__POINTW2FN _0x0,166
0016a2 940e 2b89 	CALL _lcd_putsf
                 ; 0000 06F8                 display_modbus(modbus_id);
0016a4 91a0 0307 	LDS  R26,_modbus_id
0016a6 91b0 0308 	LDS  R27,_modbus_id+1
0016a8 940e 0cfe 	CALL _display_modbus
                 ; 0000 06F9                 lcd_putsf(" ");
                +
0016aa e9a6     +LDI R26 , LOW ( 2 * _0x0 + ( 24 ) )
0016ab e0b2     +LDI R27 , HIGH ( 2 * _0x0 + ( 24 ) )
                 	__POINTW2FN _0x0,24
0016ac 940e 2b89 	CALL _lcd_putsf
                 ; 0000 06FA                 char_id = blink_data = (abs(modbus_id)/100)%100 ;
0016ae 91a0 0307 	LDS  R26,_modbus_id
0016b0 91b0 0308 	LDS  R27,_modbus_id+1
0016b2 940e 2a1a 	CALL _abs
0016b4 01df      	MOVW R26,R30
0016b5 e6e4      	LDI  R30,LOW(100)
0016b6 e0f0      	LDI  R31,HIGH(100)
0016b7 940e 2e8b 	CALL __DIVW21U
0016b9 01df      	MOVW R26,R30
0016ba e6e4      	LDI  R30,LOW(100)
0016bb e0f0      	LDI  R31,HIGH(100)
0016bc 940e 2ecd 	CALL __MODW21U
0016be 93e0 02c9 	STS  _blink_data,R30
0016c0 93e0 02e7 	STS  _char_id,R30
                 ; 0000 06FB                 blink_locx =5;
0016c2 e0e5      	LDI  R30,LOW(5)
0016c3 2ece      	MOV  R12,R30
                 ; 0000 06FC                 blink_locy =1;
0016c4 e0e1      	LDI  R30,LOW(1)
0016c5 93e0 02c8 	STS  _blink_locy,R30
                 ; 0000 06FD                 blink_fl =1;
0016c7 9468      	SET
0016c8 f842      	BLD  R4,2
                 ; 0000 06FE                 set =8;
0016c9 e0e8      	LDI  R30,LOW(8)
0016ca e0f0      	LDI  R31,HIGH(8)
0016cb 93e0 02ae 	STS  _set,R30
0016cd 93f0 02af 	STS  _set+1,R31
                 ; 0000 06FF                 item1 =17;
0016cf e1e1      	LDI  R30,LOW(17)
0016d0 e0f0      	LDI  R31,HIGH(17)
0016d1 c082      	RJMP _0x284
                 ; 0000 0700                 break;
                 ; 0000 0701    case 9:     lcd_clear();
                 _0x132:
0016d2 30e9      	CPI  R30,LOW(0x9)
0016d3 e0a0      	LDI  R26,HIGH(0x9)
0016d4 07fa      	CPC  R31,R26
0016d5 f009      	BREQ PC+2
0016d6 c081      	RJMP _0x129
0016d7 940e 2b4d 	CALL _lcd_clear
                 ; 0000 0702                 lcd_putsf("Modbus Rate ");
                +
0016d9 e4a6     +LDI R26 , LOW ( 2 * _0x0 + ( 200 ) )
0016da e0b3     +LDI R27 , HIGH ( 2 * _0x0 + ( 200 ) )
                 	__POINTW2FN _0x0,200
0016db 940e 2b89 	CALL _lcd_putsf
                 ; 0000 0703                 modbus_rate = e_modbus_rate;
0016dd e2a4      	LDI  R26,LOW(_e_modbus_rate)
0016de e0b0      	LDI  R27,HIGH(_e_modbus_rate)
0016df 940e 2f59 	CALL __EEPROMRDW
0016e1 93e0 0309 	STS  _modbus_rate,R30
0016e3 93f0 030a 	STS  _modbus_rate+1,R31
                 ; 0000 0704                 lcd_gotoxy(0,1);
0016e5 e0e0      	LDI  R30,LOW(0)
0016e6 93ea      	ST   -Y,R30
0016e7 e0a1      	LDI  R26,LOW(1)
0016e8 940e 2b39 	CALL _lcd_gotoxy
                 ; 0000 0705                 lcd_putsf("   ");
                +
0016ea e2a5     +LDI R26 , LOW ( 2 * _0x0 + ( 167 ) )
0016eb e0b3     +LDI R27 , HIGH ( 2 * _0x0 + ( 167 ) )
                 	__POINTW2FN _0x0,167
0016ec 940e 2b89 	CALL _lcd_putsf
                 ; 0000 0706 
                 ; 0000 0707                 switch(modbus_rate)
0016ee 91e0 0309 	LDS  R30,_modbus_rate
0016f0 91f0 030a 	LDS  R31,_modbus_rate+1
                 ; 0000 0708                     {
                 ; 0000 0709                     case 1: lcd_putsf("  9600");
0016f2 30e1      	CPI  R30,LOW(0x1)
0016f3 e0a0      	LDI  R26,HIGH(0x1)
0016f4 07fa      	CPC  R31,R26
0016f5 f429      	BRNE _0x137
                +
0016f6 e5a3     +LDI R26 , LOW ( 2 * _0x0 + ( 213 ) )
0016f7 e0b3     +LDI R27 , HIGH ( 2 * _0x0 + ( 213 ) )
                 	__POINTW2FN _0x0,213
0016f8 940e 2b89 	CALL _lcd_putsf
                 ; 0000 070A                             break;
0016fa c032      	RJMP _0x136
                 ; 0000 070B                     case 2: lcd_putsf(" 19200");
                 _0x137:
0016fb 30e2      	CPI  R30,LOW(0x2)
0016fc e0a0      	LDI  R26,HIGH(0x2)
0016fd 07fa      	CPC  R31,R26
0016fe f429      	BRNE _0x138
                +
0016ff e5aa     +LDI R26 , LOW ( 2 * _0x0 + ( 220 ) )
001700 e0b3     +LDI R27 , HIGH ( 2 * _0x0 + ( 220 ) )
                 	__POINTW2FN _0x0,220
001701 940e 2b89 	CALL _lcd_putsf
                 ; 0000 070C                             break;
001703 c029      	RJMP _0x136
                 ; 0000 070D                     case 3: lcd_putsf(" 38400");
                 _0x138:
001704 30e3      	CPI  R30,LOW(0x3)
001705 e0a0      	LDI  R26,HIGH(0x3)
001706 07fa      	CPC  R31,R26
001707 f429      	BRNE _0x139
                +
001708 e6a1     +LDI R26 , LOW ( 2 * _0x0 + ( 227 ) )
001709 e0b3     +LDI R27 , HIGH ( 2 * _0x0 + ( 227 ) )
                 	__POINTW2FN _0x0,227
00170a 940e 2b89 	CALL _lcd_putsf
                 ; 0000 070E                             break;
00170c c020      	RJMP _0x136
                 ; 0000 070F                     case 4: lcd_putsf(" 57600");
                 _0x139:
00170d 30e4      	CPI  R30,LOW(0x4)
00170e e0a0      	LDI  R26,HIGH(0x4)
00170f 07fa      	CPC  R31,R26
001710 f429      	BRNE _0x13A
                +
001711 e6a8     +LDI R26 , LOW ( 2 * _0x0 + ( 234 ) )
001712 e0b3     +LDI R27 , HIGH ( 2 * _0x0 + ( 234 ) )
                 	__POINTW2FN _0x0,234
001713 940e 2b89 	CALL _lcd_putsf
                 ; 0000 0710                             break;
001715 c017      	RJMP _0x136
                 ; 0000 0711                     case 5: lcd_putsf("115200");
                 _0x13A:
001716 30e5      	CPI  R30,LOW(0x5)
001717 e0a0      	LDI  R26,HIGH(0x5)
001718 07fa      	CPC  R31,R26
001719 f429      	BRNE _0x13C
                +
00171a e6af     +LDI R26 , LOW ( 2 * _0x0 + ( 241 ) )
00171b e0b3     +LDI R27 , HIGH ( 2 * _0x0 + ( 241 ) )
                 	__POINTW2FN _0x0,241
00171c 940e 2b89 	CALL _lcd_putsf
                 ; 0000 0712                             break;
00171e c00e      	RJMP _0x136
                 ; 0000 0713                     default:lcd_putsf("  9600");
                 _0x13C:
                +
00171f e5a3     +LDI R26 , LOW ( 2 * _0x0 + ( 213 ) )
001720 e0b3     +LDI R27 , HIGH ( 2 * _0x0 + ( 213 ) )
                 	__POINTW2FN _0x0,213
001721 940e 2b89 	CALL _lcd_putsf
                 ; 0000 0714                             e_modbus_rate = modbus_rate =0;
001723 e0e0      	LDI  R30,LOW(0)
001724 e0f0      	LDI  R31,HIGH(0)
001725 93e0 0309 	STS  _modbus_rate,R30
001727 93f0 030a 	STS  _modbus_rate+1,R31
001729 e2a4      	LDI  R26,LOW(_e_modbus_rate)
00172a e0b0      	LDI  R27,HIGH(_e_modbus_rate)
00172b 940e 2f71 	CALL __EEPROMWRW
                 ; 0000 0715                             break;
                 ; 0000 0716                     }
                 _0x136:
                 ; 0000 0717 //                display_modbus(modbus_rate);
                 ; 0000 0718                 lcd_putsf(" Baud");
                +
00172d e7a6     +LDI R26 , LOW ( 2 * _0x0 + ( 248 ) )
00172e e0b3     +LDI R27 , HIGH ( 2 * _0x0 + ( 248 ) )
                 	__POINTW2FN _0x0,248
00172f 940e 2b89 	CALL _lcd_putsf
                 ; 0000 0719                 char_rate = blink_data = (abs(modbus_rate)/100)%100 ;
001731 91a0 0309 	LDS  R26,_modbus_rate
001733 91b0 030a 	LDS  R27,_modbus_rate+1
001735 940e 2a1a 	CALL _abs
001737 01df      	MOVW R26,R30
001738 e6e4      	LDI  R30,LOW(100)
001739 e0f0      	LDI  R31,HIGH(100)
00173a 940e 2e8b 	CALL __DIVW21U
00173c 01df      	MOVW R26,R30
00173d e6e4      	LDI  R30,LOW(100)
00173e e0f0      	LDI  R31,HIGH(100)
00173f 940e 2ecd 	CALL __MODW21U
001741 93e0 02c9 	STS  _blink_data,R30
001743 93e0 02e8 	STS  _char_rate,R30
                 ; 0000 071A                 blink_locx =7;
001745 e0e7      	LDI  R30,LOW(7)
001746 2ece      	MOV  R12,R30
                 ; 0000 071B                 blink_locy =1;
001747 e0e1      	LDI  R30,LOW(1)
001748 93e0 02c8 	STS  _blink_locy,R30
                 ; 0000 071C                 blink_fl =0;
00174a 94e8      	CLT
00174b f842      	BLD  R4,2
                 ; 0000 071D                 set =9;
00174c e0e9      	LDI  R30,LOW(9)
00174d e0f0      	LDI  R31,HIGH(9)
00174e 93e0 02ae 	STS  _set,R30
001750 93f0 02af 	STS  _set+1,R31
                 ; 0000 071E                 item1 =19;
001752 e1e3      	LDI  R30,LOW(19)
001753 e0f0      	LDI  R31,HIGH(19)
                 _0x284:
001754 93e0 02b0 	STS  _item1,R30
001756 93f0 02b1 	STS  _item1+1,R31
                 ; 0000 071F                 break;
                 ; 0000 0720 
                 ; 0000 0721         }
                 _0x129:
                 ; 0000 0722 
                 ; 0000 0723     }
                 ; 0000 0724 
                 ; 0000 0725 }
                 _0x118:
                 ; 0000 0726 }
                 _0x115:
001758 9508      	RET
                 ; .FEND
                 ;
                 ;void get_key(void)
                 ; 0000 0729 {
                 _get_key:
                 ; .FSTART _get_key
                 ; 0000 072A if (!key1 && key1_old) key1_fl =1;
001759 99c8      	SBIC 0x19,0
00175a c002      	RJMP _0x13E
00175b fc20      	SBRC R2,0
00175c c001      	RJMP _0x13F
                 _0x13E:
00175d c002      	RJMP _0x13D
                 _0x13F:
00175e 9468      	SET
00175f f830      	BLD  R3,0
                 ; 0000 072B if (!key2 && key2_old) key2_fl =1;
                 _0x13D:
001760 99c9      	SBIC 0x19,1
001761 c002      	RJMP _0x141
001762 fc21      	SBRC R2,1
001763 c001      	RJMP _0x142
                 _0x141:
001764 c002      	RJMP _0x140
                 _0x142:
001765 9468      	SET
001766 f831      	BLD  R3,1
                 ; 0000 072C if (!key3 && key3_old) key3_fl =1;
                 _0x140:
001767 99ca      	SBIC 0x19,2
001768 c002      	RJMP _0x144
001769 fc22      	SBRC R2,2
00176a c001      	RJMP _0x145
                 _0x144:
00176b c002      	RJMP _0x143
                 _0x145:
00176c 9468      	SET
00176d f832      	BLD  R3,2
                 ; 0000 072D if (!key4 && key4_old) key4_fl =1;
                 _0x143:
00176e 99cb      	SBIC 0x19,3
00176f c002      	RJMP _0x147
001770 fc23      	SBRC R2,3
001771 c001      	RJMP _0x148
                 _0x147:
001772 c002      	RJMP _0x146
                 _0x148:
001773 9468      	SET
001774 f833      	BLD  R3,3
                 ; 0000 072E if (!printkey && printkey_old) printkey_fl =1;
                 _0x146:
001775 99ce      	SBIC 0x19,6
001776 c002      	RJMP _0x14A
001777 fc24      	SBRC R2,4
001778 c001      	RJMP _0x14B
                 _0x14A:
001779 c002      	RJMP _0x149
                 _0x14B:
00177a 9468      	SET
00177b f834      	BLD  R3,4
                 ; 0000 072F printkey_old = printkey;
                 _0x149:
00177c 94e8      	CLT
00177d 99ce      	SBIC 0x19,6
00177e 9468      	SET
00177f f824      	BLD  R2,4
                 ; 0000 0730 key1_old = key1;
001780 94e8      	CLT
001781 99c8      	SBIC 0x19,0
001782 9468      	SET
001783 f820      	BLD  R2,0
                 ; 0000 0731 key2_old = key2;
001784 94e8      	CLT
001785 99c9      	SBIC 0x19,1
001786 9468      	SET
001787 f821      	BLD  R2,1
                 ; 0000 0732 key3_old = key3;
001788 94e8      	CLT
001789 99ca      	SBIC 0x19,2
00178a 9468      	SET
00178b f822      	BLD  R2,2
                 ; 0000 0733 key4_old = key4;
00178c 94e8      	CLT
00178d 99cb      	SBIC 0x19,3
00178e 9468      	SET
00178f f823      	BLD  R2,3
                 ; 0000 0734 if (!key3 && mode==0 && !manual_fl)
001790 99ca      	SBIC 0x19,2
001791 c008      	RJMP _0x14D
001792 91a0 02ac 	LDS  R26,_mode
001794 91b0 02ad 	LDS  R27,_mode+1
001796 9710      	SBIW R26,0
001797 f411      	BRNE _0x14D
001798 fe52      	SBRS R5,2
001799 c001      	RJMP _0x14E
                 _0x14D:
00179a c026      	RJMP _0x14C
                 _0x14E:
                 ; 0000 0735 {
                 ; 0000 0736 printkeycnt++;
00179b eaa0      	LDI  R26,LOW(_printkeycnt)
00179c e0b2      	LDI  R27,HIGH(_printkeycnt)
00179d 940e 2f17 	CALL __GETD1P_INC
                +
00179f 5fef     +SUBI R30 , LOW ( - 1 )
0017a0 4fff     +SBCI R31 , HIGH ( - 1 )
0017a1 4f6f     +SBCI R22 , BYTE3 ( - 1 )
0017a2 4f7f     +SBCI R23 , BYTE4 ( - 1 )
                 	__SUBD1N -1
0017a3 940e 2f21 	CALL __PUTDP1_DEC
                 ; 0000 0737 if (printkeycnt >=4000)
0017a5 91a0 02a0 	LDS  R26,_printkeycnt
0017a7 91b0 02a1 	LDS  R27,_printkeycnt+1
0017a9 9180 02a2 	LDS  R24,_printkeycnt+2
0017ab 9190 02a3 	LDS  R25,_printkeycnt+3
                +
0017ad 3aa0     +CPI R26 , LOW ( 0xFA0 )
0017ae e0ef     +LDI R30 , HIGH ( 0xFA0 )
0017af 07be     +CPC R27 , R30
0017b0 e0e0     +LDI R30 , BYTE3 ( 0xFA0 )
0017b1 078e     +CPC R24 , R30
0017b2 e0e0     +LDI R30 , BYTE4 ( 0xFA0 )
0017b3 079e     +CPC R25 , R30
                 	__CPD2N 0xFA0
0017b4 f05c      	BRLT _0x14F
                 ; 0000 0738             {
                 ; 0000 0739             printkeycnt=0;
0017b5 e0e0      	LDI  R30,LOW(0)
0017b6 93e0 02a0 	STS  _printkeycnt,R30
0017b8 93e0 02a1 	STS  _printkeycnt+1,R30
0017ba 93e0 02a2 	STS  _printkeycnt+2,R30
0017bc 93e0 02a3 	STS  _printkeycnt+3,R30
                 ; 0000 073A             printkey_fl =1;
0017be 9468      	SET
0017bf f834      	BLD  R3,4
                 ; 0000 073B             }
                 ; 0000 073C }
                 _0x14F:
                 ; 0000 073D else
0017c0 c009      	RJMP _0x150
                 _0x14C:
                 ; 0000 073E printkeycnt=0;
0017c1 e0e0      	LDI  R30,LOW(0)
0017c2 93e0 02a0 	STS  _printkeycnt,R30
0017c4 93e0 02a1 	STS  _printkeycnt+1,R30
0017c6 93e0 02a2 	STS  _printkeycnt+2,R30
0017c8 93e0 02a3 	STS  _printkeycnt+3,R30
                 ; 0000 073F 
                 ; 0000 0740 if (!key2 && !manual_fl)              //calibuser calibration mode enter
                 _0x150:
0017ca 99c9      	SBIC 0x19,1
0017cb c002      	RJMP _0x152
0017cc fe52      	SBRS R5,2
0017cd c001      	RJMP _0x153
                 _0x152:
0017ce c039      	RJMP _0x151
                 _0x153:
                 ; 0000 0741             {
                 ; 0000 0742             calibusercnt++;
0017cf eaa4      	LDI  R26,LOW(_calibusercnt)
0017d0 e0b2      	LDI  R27,HIGH(_calibusercnt)
0017d1 940e 2f17 	CALL __GETD1P_INC
                +
0017d3 5fef     +SUBI R30 , LOW ( - 1 )
0017d4 4fff     +SBCI R31 , HIGH ( - 1 )
0017d5 4f6f     +SBCI R22 , BYTE3 ( - 1 )
0017d6 4f7f     +SBCI R23 , BYTE4 ( - 1 )
                 	__SUBD1N -1
0017d7 940e 2f21 	CALL __PUTDP1_DEC
                 ; 0000 0743             if(calibusercnt >=2000)
0017d9 91a0 02a4 	LDS  R26,_calibusercnt
0017db 91b0 02a5 	LDS  R27,_calibusercnt+1
0017dd 9180 02a6 	LDS  R24,_calibusercnt+2
0017df 9190 02a7 	LDS  R25,_calibusercnt+3
                +
0017e1 3da0     +CPI R26 , LOW ( 0x7D0 )
0017e2 e0e7     +LDI R30 , HIGH ( 0x7D0 )
0017e3 07be     +CPC R27 , R30
0017e4 e0e0     +LDI R30 , BYTE3 ( 0x7D0 )
0017e5 078e     +CPC R24 , R30
0017e6 e0e0     +LDI R30 , BYTE4 ( 0x7D0 )
0017e7 079e     +CPC R25 , R30
                 	__CPD2N 0x7D0
0017e8 f0f4      	BRLT _0x154
                 ; 0000 0744                         {
                 ; 0000 0745                         calibusercnt=0;
0017e9 e0e0      	LDI  R30,LOW(0)
0017ea 93e0 02a4 	STS  _calibusercnt,R30
0017ec 93e0 02a5 	STS  _calibusercnt+1,R30
0017ee 93e0 02a6 	STS  _calibusercnt+2,R30
0017f0 93e0 02a7 	STS  _calibusercnt+3,R30
                 ; 0000 0746                         calibuser=1;            //enter calibration mode for user
0017f2 9468      	SET
0017f3 f850      	BLD  R5,0
                 ; 0000 0747                         lcd_clear();
0017f4 940e 2b4d 	CALL _lcd_clear
                 ; 0000 0748                         lcd_putsf("Calibration Mode");
                +
0017f6 e7ac     +LDI R26 , LOW ( 2 * _0x0 + ( 254 ) )
0017f7 e0b3     +LDI R27 , HIGH ( 2 * _0x0 + ( 254 ) )
                 	__POINTW2FN _0x0,254
0017f8 940e 2b89 	CALL _lcd_putsf
                 ; 0000 0749                         lcd_gotoxy(0,1);
0017fa e0e0      	LDI  R30,LOW(0)
0017fb 93ea      	ST   -Y,R30
0017fc e0a1      	LDI  R26,LOW(1)
0017fd 940e 2b39 	CALL _lcd_gotoxy
                 ; 0000 074A                         lcd_putsf("entering");
                +
0017ff e8ad     +LDI R26 , LOW ( 2 * _0x0 + ( 271 ) )
001800 e0b3     +LDI R27 , HIGH ( 2 * _0x0 + ( 271 ) )
                 	__POINTW2FN _0x0,271
001801 940e 2b89 	CALL _lcd_putsf
                 ; 0000 074B                         delay_ms(2000);
001803 eda0      	LDI  R26,LOW(2000)
001804 e0b7      	LDI  R27,HIGH(2000)
001805 940e 2c4f 	CALL _delay_ms
                 ; 0000 074C                         }
                 ; 0000 074D             }
                 _0x154:
                 ; 0000 074E else
001807 c009      	RJMP _0x155
                 _0x151:
                 ; 0000 074F calibusercnt=0;
001808 e0e0      	LDI  R30,LOW(0)
001809 93e0 02a4 	STS  _calibusercnt,R30
00180b 93e0 02a5 	STS  _calibusercnt+1,R30
00180d 93e0 02a6 	STS  _calibusercnt+2,R30
00180f 93e0 02a7 	STS  _calibusercnt+3,R30
                 ; 0000 0750 }
                 _0x155:
001811 9508      	RET
                 ; .FEND
                 ;
                 ;
                 ; void mpu6050_init(void)
                 ; 0000 0754 {
                 _mpu6050_init:
                 ; .FSTART _mpu6050_init
                 ; 0000 0755     delay_ms(150);                                        /* Power up time >100ms */
001812 e9a6      	LDI  R26,LOW(150)
001813 e0b0      	LDI  R27,0
001814 940e 2c4f 	CALL _delay_ms
                 ; 0000 0756     i2c_start();
001816 940e 2c03 	CALL _i2c_start
                 ; 0000 0757     i2c_write(0xD2);                                /* Start with device write address */
001818 eda2      	LDI  R26,LOW(210)
001819 940e 2c37 	CALL _i2c_write
                 ; 0000 0758     i2c_write(SMPLRT_DIV);                                /* Write to sample rate register */
00181b e1a9      	LDI  R26,LOW(25)
00181c 940e 2c37 	CALL _i2c_write
                 ; 0000 0759     i2c_write(0x07);                                    /* 1KHz sample rate */
00181e e0a7      	LDI  R26,LOW(7)
00181f 940e 2c37 	CALL _i2c_write
                 ; 0000 075A     i2c_stop();
001821 940e 2c12 	CALL _i2c_stop
                 ; 0000 075B 
                 ; 0000 075C     i2c_start();
001823 940e 2c03 	CALL _i2c_start
                 ; 0000 075D     i2c_write(0xD2);
001825 eda2      	LDI  R26,LOW(210)
001826 940e 2c37 	CALL _i2c_write
                 ; 0000 075E     i2c_write(PWR_MGMT_1);                                /* Write to power management register */
001828 e6ab      	LDI  R26,LOW(107)
001829 940e 2c37 	CALL _i2c_write
                 ; 0000 075F     i2c_write(0x01);                                    /* X axis gyroscope reference frequency */
00182b e0a1      	LDI  R26,LOW(1)
00182c 940e 2c37 	CALL _i2c_write
                 ; 0000 0760     i2c_stop();
00182e 940e 2c12 	CALL _i2c_stop
                 ; 0000 0761 
                 ; 0000 0762     i2c_start();
001830 940e 2c03 	CALL _i2c_start
                 ; 0000 0763     i2c_write(0xD2);
001832 eda2      	LDI  R26,LOW(210)
001833 940e 2c37 	CALL _i2c_write
                 ; 0000 0764     i2c_write(CONFIG);                                    /* Write to Configuration register */
001835 e1aa      	LDI  R26,LOW(26)
001836 940e 2c37 	CALL _i2c_write
                 ; 0000 0765     i2c_write(0x06);                                    /* Fs = 8KHz */
001838 e0a6      	LDI  R26,LOW(6)
001839 940e 2c37 	CALL _i2c_write
                 ; 0000 0766     i2c_stop();
00183b 940e 2c12 	CALL _i2c_stop
                 ; 0000 0767 
                 ; 0000 0768     i2c_start();
00183d 940e 2c03 	CALL _i2c_start
                 ; 0000 0769     i2c_write(0xD2);
00183f eda2      	LDI  R26,LOW(210)
001840 940e 2c37 	CALL _i2c_write
                 ; 0000 076A     i2c_write(GYRO_CONFIG);                                /* Write to Gyro configuration register */
001842 e1ab      	LDI  R26,LOW(27)
001843 940e 2c37 	CALL _i2c_write
                 ; 0000 076B     i2c_write(0x18);                                    /* Full scale range +/- 2000 degree/C */
001845 e1a8      	LDI  R26,LOW(24)
001846 940e 2c37 	CALL _i2c_write
                 ; 0000 076C     i2c_stop();
001848 940e 2c12 	CALL _i2c_stop
                 ; 0000 076D 
                 ; 0000 076E     i2c_start();
00184a 940e 2c03 	CALL _i2c_start
                 ; 0000 076F     i2c_write(0xD2);
00184c eda2      	LDI  R26,LOW(210)
00184d 940e 2c37 	CALL _i2c_write
                 ; 0000 0770     i2c_write(INT_ENABLE);                                /* Write to interrupt enable register */
00184f e3a8      	LDI  R26,LOW(56)
001850 940e 2c37 	CALL _i2c_write
                 ; 0000 0771     i2c_write(0x01);
001852 e0a1      	LDI  R26,LOW(1)
001853 940e 2c37 	CALL _i2c_write
                 ; 0000 0772     i2c_stop();
001855 940e 2c12 	CALL _i2c_stop
                 ; 0000 0773 }
001857 9508      	RET
                 ; .FEND
                 ;
                 ;/*
                 ;long int adc3421_read18(void)
                 ;{
                 ; unsigned int buffer1;
                 ; unsigned int buffer2,buffer3;
                 ; long int buffer4;
                 ; i2c_start();
                 ; buffer1 = i2c_write(0xd3);
                 ; buffer1 = i2c_read(1);
                 ; buffer2 = i2c_read(1);
                 ; buffer3 = i2c_read(0);
                 ; i2c_stop();
                 ; buffer1 = buffer1 & 0x01;
                 ; buffer4 = (long) (buffer1) * 65536 ;
                 ; buffer4 = buffer4 + ((long)(buffer2) * 256);
                 ; buffer4 = buffer4 + (long)(buffer3);
                 ; return(buffer4);
                 ;}
                 ;*/
                 ;
                 ;int mpu6050_read(void)
                 ; 0000 078A {
                 _mpu6050_read:
                 ; .FSTART _mpu6050_read
                 ; 0000 078B int pitchacc;
                 ; 0000 078C  // unsigned int buffer2,buffer3;
                 ; 0000 078D     i2c_start();
001858 931a      	ST   -Y,R17
001859 930a      	ST   -Y,R16
                 ;	pitchacc -> R16,R17
00185a 940e 2c03 	CALL _i2c_start
                 ; 0000 078E     i2c_write(0xD2);                                /* I2C start with device write address */
00185c eda2      	LDI  R26,LOW(210)
00185d 940e 2c37 	CALL _i2c_write
                 ; 0000 078F     i2c_write(ACCEL_XOUT_H);                            /* Write start location address from where to read */
00185f e3ab      	LDI  R26,LOW(59)
001860 940e 2c37 	CALL _i2c_write
                 ; 0000 0790     i2c_start();
001862 940e 2c03 	CALL _i2c_start
                 ; 0000 0791     i2c_write(0xD3);                            /* I2C start with device read address */
001864 eda3      	LDI  R26,LOW(211)
001865 940e 2c37 	CALL _i2c_write
                 ; 0000 0792     x_angle= (((int)i2c_read(1)<<8) | (int)i2c_read(1));
001867 e0a1      	LDI  R26,LOW(1)
001868 940e 2c1c 	CALL _i2c_read
00186a 2ffe      	MOV  R31,R30
00186b e0e0      	LDI  R30,0
00186c 93ff      	PUSH R31
00186d 93ef      	PUSH R30
00186e e0a1      	LDI  R26,LOW(1)
00186f 940e 2c1c 	CALL _i2c_read
001871 e0f0      	LDI  R31,0
001872 91af      	POP  R26
001873 91bf      	POP  R27
001874 2bea      	OR   R30,R26
001875 2bfb      	OR   R31,R27
001876 93e0 02e9 	STS  _x_angle,R30
001878 93f0 02ea 	STS  _x_angle+1,R31
                 ; 0000 0793     y_angle= (((int)i2c_read(1)<<8) | (int)i2c_read(1));
00187a e0a1      	LDI  R26,LOW(1)
00187b 940e 2c1c 	CALL _i2c_read
00187d 2ffe      	MOV  R31,R30
00187e e0e0      	LDI  R30,0
00187f 93ff      	PUSH R31
001880 93ef      	PUSH R30
001881 e0a1      	LDI  R26,LOW(1)
001882 940e 2c1c 	CALL _i2c_read
001884 e0f0      	LDI  R31,0
001885 91af      	POP  R26
001886 91bf      	POP  R27
001887 2bea      	OR   R30,R26
001888 2bfb      	OR   R31,R27
001889 93e0 02eb 	STS  _y_angle,R30
00188b 93f0 02ec 	STS  _y_angle+1,R31
                 ; 0000 0794     z_angle= (((int)i2c_read(1)<<8) | (int)i2c_read(0));
00188d e0a1      	LDI  R26,LOW(1)
00188e 940e 2c1c 	CALL _i2c_read
001890 2ffe      	MOV  R31,R30
001891 e0e0      	LDI  R30,0
001892 93ff      	PUSH R31
001893 93ef      	PUSH R30
001894 e0a0      	LDI  R26,LOW(0)
001895 940e 2c1c 	CALL _i2c_read
001897 e0f0      	LDI  R31,0
001898 91af      	POP  R26
001899 91bf      	POP  R27
00189a 2bea      	OR   R30,R26
00189b 2bfb      	OR   R31,R27
00189c 93e0 02ed 	STS  _z_angle,R30
00189e 93f0 02ee 	STS  _z_angle+1,R31
                 ; 0000 0795     i2c_stop();
0018a0 940e 2c12 	CALL _i2c_stop
                 ; 0000 0796     delay_ms(100);
0018a2 e6a4      	LDI  R26,LOW(100)
0018a3 e0b0      	LDI  R27,0
0018a4 940e 2c4f 	CALL _delay_ms
                 ; 0000 0797     i2c_start();
0018a6 940e 2c03 	CALL _i2c_start
                 ; 0000 0798     i2c_write(0xD2);                                /* I2C start with device write address */
0018a8 eda2      	LDI  R26,LOW(210)
0018a9 940e 2c37 	CALL _i2c_write
                 ; 0000 0799     i2c_write(GYRO_XOUT_H);                            /* Write start location address from where to read */
0018ab e4a3      	LDI  R26,LOW(67)
0018ac 940e 2c37 	CALL _i2c_write
                 ; 0000 079A     i2c_start();
0018ae 940e 2c03 	CALL _i2c_start
                 ; 0000 079B     i2c_write(0xD3);                            /* I2C start with device read address */
0018b0 eda3      	LDI  R26,LOW(211)
0018b1 940e 2c37 	CALL _i2c_write
                 ; 0000 079C     Gyrox= (((int)i2c_read(1)<<8) | (int)i2c_read(1))/131;       //131 is the gyro scaling factor in datasheet
0018b3 e0a1      	LDI  R26,LOW(1)
0018b4 940e 2c1c 	CALL _i2c_read
0018b6 2ffe      	MOV  R31,R30
0018b7 e0e0      	LDI  R30,0
0018b8 93ff      	PUSH R31
0018b9 93ef      	PUSH R30
0018ba e0a1      	LDI  R26,LOW(1)
0018bb 940e 2c1c 	CALL _i2c_read
0018bd e0f0      	LDI  R31,0
0018be 91af      	POP  R26
0018bf 91bf      	POP  R27
0018c0 2bea      	OR   R30,R26
0018c1 2bfb      	OR   R31,R27
0018c2 01df      	MOVW R26,R30
0018c3 e8e3      	LDI  R30,LOW(131)
0018c4 e0f0      	LDI  R31,HIGH(131)
0018c5 940e 2e9e 	CALL __DIVW21
0018c7 93e0 02f5 	STS  _Gyrox,R30
0018c9 93f0 02f6 	STS  _Gyrox+1,R31
                 ; 0000 079D     Gyroy= (((int)i2c_read(1)<<8) | (int)i2c_read(1)/131);
0018cb e0a1      	LDI  R26,LOW(1)
0018cc 940e 2c1c 	CALL _i2c_read
0018ce 2ffe      	MOV  R31,R30
0018cf e0e0      	LDI  R30,0
0018d0 93ff      	PUSH R31
0018d1 93ef      	PUSH R30
0018d2 e0a1      	LDI  R26,LOW(1)
0018d3 940e 2c1c 	CALL _i2c_read
0018d5 e0f0      	LDI  R31,0
0018d6 01df      	MOVW R26,R30
0018d7 e8e3      	LDI  R30,LOW(131)
0018d8 e0f0      	LDI  R31,HIGH(131)
0018d9 940e 2e9e 	CALL __DIVW21
0018db 91af      	POP  R26
0018dc 91bf      	POP  R27
0018dd 2bea      	OR   R30,R26
0018de 2bfb      	OR   R31,R27
0018df 93e0 02f7 	STS  _Gyroy,R30
0018e1 93f0 02f8 	STS  _Gyroy+1,R31
                 ; 0000 079E     Gyroz= (((int)i2c_read(1)<<8) | (int)i2c_read(0)/131);
0018e3 e0a1      	LDI  R26,LOW(1)
0018e4 940e 2c1c 	CALL _i2c_read
0018e6 2ffe      	MOV  R31,R30
0018e7 e0e0      	LDI  R30,0
0018e8 93ff      	PUSH R31
0018e9 93ef      	PUSH R30
0018ea e0a0      	LDI  R26,LOW(0)
0018eb 940e 2c1c 	CALL _i2c_read
0018ed e0f0      	LDI  R31,0
0018ee 01df      	MOVW R26,R30
0018ef e8e3      	LDI  R30,LOW(131)
0018f0 e0f0      	LDI  R31,HIGH(131)
0018f1 940e 2e9e 	CALL __DIVW21
0018f3 91af      	POP  R26
0018f4 91bf      	POP  R27
0018f5 2bea      	OR   R30,R26
0018f6 2bfb      	OR   R31,R27
0018f7 93e0 02f9 	STS  _Gyroz,R30
0018f9 93f0 02fa 	STS  _Gyroz+1,R31
                 ; 0000 079F     i2c_stop();
0018fb 940e 2c12 	CALL _i2c_stop
                 ; 0000 07A0 
                 ; 0000 07A1 
                 ; 0000 07A2  //pitch = (atan2(-y_angle,z_angle)*1800.0)/3.1415;
                 ; 0000 07A3  //roll = (atan2(x_angle,sqrt((long)y_angle*(long)y_angle+(long)z_angle*(long)z_angle))*1800.0)/3.1415;
                 ; 0000 07A4 
                 ; 0000 07A5 
                 ; 0000 07A6 roll = -1800.0 * atan ((long)x_angle/sqrt((long)y_angle*(long)y_angle + (long)z_angle*(long)z_angle))/3.141592;
0018fd 91e0 02e9 	LDS  R30,_x_angle
0018ff 91f0 02ea 	LDS  R31,_x_angle+1
001901 940e 2e4f 	CALL __CWD1
001903 937f      	PUSH R23
001904 936f      	PUSH R22
001905 93ff      	PUSH R31
001906 93ef      	PUSH R30
001907 91a0 02eb 	LDS  R26,_y_angle
001909 91b0 02ec 	LDS  R27,_y_angle+1
00190b 940e 2e54 	CALL __CWD2
00190d 91e0 02eb 	LDS  R30,_y_angle
00190f 91f0 02ec 	LDS  R31,_y_angle+1
001911 940e 2e4f 	CALL __CWD1
001913 940e 2e86 	CALL __MULD12
001915 937f      	PUSH R23
001916 936f      	PUSH R22
001917 93ff      	PUSH R31
001918 93ef      	PUSH R30
001919 91a0 02ed 	LDS  R26,_z_angle
00191b 91b0 02ee 	LDS  R27,_z_angle+1
00191d 940e 2e54 	CALL __CWD2
00191f 91e0 02ed 	LDS  R30,_z_angle
001921 91f0 02ee 	LDS  R31,_z_angle+1
001923 940e 2e4f 	CALL __CWD1
001925 940e 2e86 	CALL __MULD12
001927 91af      	POP  R26
001928 91bf      	POP  R27
001929 918f      	POP  R24
00192a 919f      	POP  R25
00192b 940e 2e39 	CALL __ADDD12
00192d 940e 2cc5 	CALL __CDF1
00192f 01df      	MOVW R26,R30
001930 01cb      	MOVW R24,R22
001931 940e 2e02 	CALL _sqrt
001933 91af      	POP  R26
001934 91bf      	POP  R27
001935 918f      	POP  R24
001936 919f      	POP  R25
001937 940e 2f45 	CALL __CDF2
001939 940e 2d9d 	CALL __DIVF21
00193b 01df      	MOVW R26,R30
00193c 01cb      	MOVW R24,R22
00193d 940e 299c 	CALL _atan
                +
00193f e0a0     +LDI R26 , LOW ( 0xC4E10000 )
001940 e0b0     +LDI R27 , HIGH ( 0xC4E10000 )
001941 ee81     +LDI R24 , BYTE3 ( 0xC4E10000 )
001942 ec94     +LDI R25 , BYTE4 ( 0xC4E10000 )
                 	__GETD2N 0xC4E10000
001943 940e 2d4f 	CALL __MULF12
001945 01df      	MOVW R26,R30
001946 01cb      	MOVW R24,R22
                +
001947 ede8     +LDI R30 , LOW ( 0x40490FD8 )
001948 e0ff     +LDI R31 , HIGH ( 0x40490FD8 )
001949 e469     +LDI R22 , BYTE3 ( 0x40490FD8 )
00194a e470     +LDI R23 , BYTE4 ( 0x40490FD8 )
                 	__GETD1N 0x40490FD8
00194b 940e 2d9d 	CALL __DIVF21
00194d efa1      	LDI  R26,LOW(_roll)
00194e e0b2      	LDI  R27,HIGH(_roll)
00194f 940e 2c8e 	CALL __CFD1
001951 93ed      	ST   X+,R30
001952 93fc      	ST   X,R31
                 ; 0000 07A7 pitchacc =1800.0 * atan ((long)y_angle/sqrt((long)x_angle*(long)x_angle + (long)z_angle*(long)z_angle))/3.141592;
001953 91e0 02eb 	LDS  R30,_y_angle
001955 91f0 02ec 	LDS  R31,_y_angle+1
001957 940e 2e4f 	CALL __CWD1
001959 937f      	PUSH R23
00195a 936f      	PUSH R22
00195b 93ff      	PUSH R31
00195c 93ef      	PUSH R30
00195d 91a0 02e9 	LDS  R26,_x_angle
00195f 91b0 02ea 	LDS  R27,_x_angle+1
001961 940e 2e54 	CALL __CWD2
001963 91e0 02e9 	LDS  R30,_x_angle
001965 91f0 02ea 	LDS  R31,_x_angle+1
001967 940e 2e4f 	CALL __CWD1
001969 940e 2e86 	CALL __MULD12
00196b 937f      	PUSH R23
00196c 936f      	PUSH R22
00196d 93ff      	PUSH R31
00196e 93ef      	PUSH R30
00196f 91a0 02ed 	LDS  R26,_z_angle
001971 91b0 02ee 	LDS  R27,_z_angle+1
001973 940e 2e54 	CALL __CWD2
001975 91e0 02ed 	LDS  R30,_z_angle
001977 91f0 02ee 	LDS  R31,_z_angle+1
001979 940e 2e4f 	CALL __CWD1
00197b 940e 2e86 	CALL __MULD12
00197d 91af      	POP  R26
00197e 91bf      	POP  R27
00197f 918f      	POP  R24
001980 919f      	POP  R25
001981 940e 2e39 	CALL __ADDD12
001983 940e 2cc5 	CALL __CDF1
001985 01df      	MOVW R26,R30
001986 01cb      	MOVW R24,R22
001987 940e 2e02 	CALL _sqrt
001989 91af      	POP  R26
00198a 91bf      	POP  R27
00198b 918f      	POP  R24
00198c 919f      	POP  R25
00198d 940e 2f45 	CALL __CDF2
00198f 940e 2d9d 	CALL __DIVF21
001991 01df      	MOVW R26,R30
001992 01cb      	MOVW R24,R22
001993 940e 299c 	CALL _atan
                +
001995 e0a0     +LDI R26 , LOW ( 0x44E10000 )
001996 e0b0     +LDI R27 , HIGH ( 0x44E10000 )
001997 ee81     +LDI R24 , BYTE3 ( 0x44E10000 )
001998 e494     +LDI R25 , BYTE4 ( 0x44E10000 )
                 	__GETD2N 0x44E10000
001999 940e 2d4f 	CALL __MULF12
00199b 01df      	MOVW R26,R30
00199c 01cb      	MOVW R24,R22
                +
00199d ede8     +LDI R30 , LOW ( 0x40490FD8 )
00199e e0ff     +LDI R31 , HIGH ( 0x40490FD8 )
00199f e469     +LDI R22 , BYTE3 ( 0x40490FD8 )
0019a0 e470     +LDI R23 , BYTE4 ( 0x40490FD8 )
                 	__GETD1N 0x40490FD8
0019a1 940e 2d9d 	CALL __DIVF21
0019a3 940e 2c8e 	CALL __CFD1
0019a5 018f      	MOVW R16,R30
                 ; 0000 07A8 //pitch = (0.1*((long)pitch+(long)Gyrox)) + (0.9 * (long)pitchacc);
                 ; 0000 07A9 pitch = (long)pitchacc;
                +
0019a6 9300 02ef+STS _pitch + ( 0 ) , R16
0019a8 9310 02f0+STS _pitch + ( 0 ) + 1 , R17
                 	__PUTWMRN _pitch,0,16,17
                 ; 0000 07AA 
                 ; 0000 07AB     return (pitch);
0019aa 91e0 02ef 	LDS  R30,_pitch
0019ac 91f0 02f0 	LDS  R31,_pitch+1
0019ae c01b      	RJMP _0x2120008
                 ; 0000 07AC }
                 ; .FEND
                 ;
                 ;
                 ;
                 ;
                 ;
                 ;void read_adc(void)
                 ; 0000 07B3 {
                 _read_adc:
                 ; .FSTART _read_adc
                 ; 0000 07B4 int offset;
                 ; 0000 07B5 if(adc_fl)
0019af 931a      	ST   -Y,R17
0019b0 930a      	ST   -Y,R16
                 ;	offset -> R16,R17
0019b1 fe43      	SBRS R4,3
0019b2 c017      	RJMP _0x156
                 ; 0000 07B6         {
                 ; 0000 07B7 //        adc_angle = mpu6050_read();
                 ; 0000 07B8         adc_fl =0;
0019b3 94e8      	CLT
0019b4 f843      	BLD  R4,3
                 ; 0000 07B9 /*
                 ; 0000 07BA         fil_cnt++;
                 ; 0000 07BB 
                 ; 0000 07BC         if (fil_cnt >=3)
                 ; 0000 07BD             {
                 ; 0000 07BE             fil_cnt =0;
                 ; 0000 07BF             adc_angle = ((long)angle_filt[0]+(long)angle_filt[1]+(long)angle_filt[2])/3;
                 ; 0000 07C0               read_adcfl =1;
                 ; 0000 07C1               angle = adc_angle;
                 ; 0000 07C2             }
                 ; 0000 07C3        angle_filt[fil_cnt] = mpu6050_read();
                 ; 0000 07C4 */
                 ; 0000 07C5 
                 ; 0000 07C6         angle_filt[0] = mpu6050_read();
0019b5 dea2      	RCALL _mpu6050_read
0019b6 93e0 02fb 	STS  _angle_filt,R30
0019b8 93f0 02fc 	STS  _angle_filt+1,R31
                 ; 0000 07C7         angle = (angle_filt[0]); //+angle_filt[1]+angle_filt[2]+angle_filt[3])/4;
0019ba 93e0 02f3 	STS  _angle,R30
0019bc 93f0 02f4 	STS  _angle+1,R31
                 ; 0000 07C8         read_adcfl =1;
0019be 9468      	SET
0019bf f844      	BLD  R4,4
                 ; 0000 07C9        offset = zero_adc;
                +
0019c0 9100 02da+LDS R16 , 0 + ( _zero_adc )
0019c2 9110 02db+LDS R17 , 0 + ( _zero_adc ) + 1
                 	__GETWRMN 16,17,0,_zero_adc
                 ; 0000 07CA 
                 ; 0000 07CB         angle = (angle - offset);
0019c4 1be0      	SUB  R30,R16
0019c5 0bf1      	SBC  R31,R17
0019c6 93e0 02f3 	STS  _angle,R30
0019c8 93f0 02f4 	STS  _angle+1,R31
                 ; 0000 07CC         }
                 ; 0000 07CD // adjust offset and span
                 ; 0000 07CE 
                 ; 0000 07CF 
                 ; 0000 07D0 
                 ; 0000 07D1 }
                 _0x156:
                 _0x2120008:
0019ca 9109      	LD   R16,Y+
0019cb 9119      	LD   R17,Y+
0019cc 9508      	RET
                 ; .FEND
                 ;
                 ;
                 ;/*
                 ;void get_irkey(void)
                 ;{
                 ;// ir sensing
                 ;if (rcflag)
                 ;{
                 ;rcflag =0;
                 ;ircommand = irsense & 0x0f;
                 ;switch(ircommand)
                 ;    {
                 ;    case 0:     mode =1;
                 ;                pgm_fl =1;
                 ;//                lcd_gotoxy(0,0);
                 ;                lcd_clear();
                 ;                lcd_putsf("set the time");
                 ;                lcd_gotoxy(0,1);
                 ;                display_time();
                 ;                blink_data = hou;
                 ;                blink_locx =0;
                 ;                blink_locy =1;
                 ;                blink_fl =1;
                 ;                set =0;
                 ;                item1 =0;
                 ;                break;
                 ;    case 1:     calibfact = calibuser =0;
                 ;                mode =0;
                 ;                pgm_fl =0;
                 ;                blink_fl =0;
                 ;                set =0;
                 ;                item1 =0;
                 ;                lcd_clear();
                 ;                delay_ms(10);
                 ;                break;
                 ;    case 2:     key1_fl =1;
                 ;                key2_fl = key3_fl = key4_fl =0;
                 ;                break;
                 ;    case 3:     key4_fl=1;
                 ;                key1_fl = key2_fl = key3_fl =0;
                 ;                break;
                 ;    case 4:    key2_fl=1;
                 ;               key1_fl = key4_fl = key3_fl =0;
                 ;
                 ;                break;
                 ;    case 5:    key3_fl=1;
                 ;                    key1_fl = key2_fl = key4_fl =0;
                 ;
                 ;                break;
                 ;    case 6:     calibuser =1;
                 ;                calibfact =0;
                 ;                lcd_putsf("the panel ");
                 ;                lcd_gotoxy(0,1);
                 ;                lcd_putsf("calibration mode");
                 ;                delay_ms(3000);
                 ;                lcd_gotoxy(0,0);
                 ;                lcd_putsf("inc > inch up");
                 ;                lcd_gotoxy(0,1);
                 ;                lcd_putsf("dec > inch down");
                 ;                delay_ms(3000);
                 ;                lcd_gotoxy(0,0);
                 ;                lcd_putsf("set > enter low");
                 ;                lcd_gotoxy(0,1);
                 ;                lcd_putsf("shf-> enter high");
                 ;                delay_ms(3000);
                 ;                break;
                 ;    }
                 ;
                 ;
                 ;
                 ;
                 ;}
                 ;
                 ;
                 ;}
                 ;*/
                 ;
                 ;void display_update(void)
                 ; 0000 0820 {
                 _display_update:
                 ; .FSTART _display_update
                 ; 0000 0821 
                 ; 0000 0822 if (mode ==0 && !manual_fl)
0019cd 91a0 02ac 	LDS  R26,_mode
0019cf 91b0 02ad 	LDS  R27,_mode+1
0019d1 9710      	SBIW R26,0
0019d2 f411      	BRNE _0x158
0019d3 fe52      	SBRS R5,2
0019d4 c001      	RJMP _0x159
                 _0x158:
0019d5 c0fb      	RJMP _0x157
                 _0x159:
                 ; 0000 0823         {
                 ; 0000 0824         lcd_clear();
0019d6 940e 2b4d 	CALL _lcd_clear
                 ; 0000 0825         mode0_seqcnt++;
0019d8 eba4      	LDI  R26,LOW(_mode0_seqcnt)
0019d9 e0b2      	LDI  R27,HIGH(_mode0_seqcnt)
0019da 91ed      	LD   R30,X+
0019db 91fd      	LD   R31,X+
0019dc 9631      	ADIW R30,1
0019dd 93fe      	ST   -X,R31
0019de 93ee      	ST   -X,R30
                 ; 0000 0826         if (mode0_seqcnt > 65) mode0_seqcnt=0;
0019df 91a0 02b4 	LDS  R26,_mode0_seqcnt
0019e1 91b0 02b5 	LDS  R27,_mode0_seqcnt+1
0019e3 34a2      	CPI  R26,LOW(0x42)
0019e4 e0e0      	LDI  R30,HIGH(0x42)
0019e5 07be      	CPC  R27,R30
0019e6 f02c      	BRLT _0x15A
0019e7 e0e0      	LDI  R30,LOW(0)
0019e8 93e0 02b4 	STS  _mode0_seqcnt,R30
0019ea 93e0 02b5 	STS  _mode0_seqcnt+1,R30
                 ; 0000 0827         if (mode0_seqcnt>=0 && mode0_seqcnt<=25)                //display date and time
                 _0x15A:
0019ec 91a0 02b5 	LDS  R26,_mode0_seqcnt+1
0019ee 23aa      	TST  R26
0019ef f032      	BRMI _0x15C
0019f0 91a0 02b4 	LDS  R26,_mode0_seqcnt
0019f2 91b0 02b5 	LDS  R27,_mode0_seqcnt+1
0019f4 975a      	SBIW R26,26
0019f5 f00c      	BRLT _0x15D
                 _0x15C:
0019f6 c01a      	RJMP _0x15B
                 _0x15D:
                 ; 0000 0828                 {
                 ; 0000 0829                 lcd_gotoxy(0,0);
0019f7 e0e0      	LDI  R30,LOW(0)
0019f8 93ea      	ST   -Y,R30
0019f9 e0a0      	LDI  R26,LOW(0)
0019fa 940e 2b39 	CALL _lcd_gotoxy
                 ; 0000 082A //                put_message(Gyrox);
                 ; 0000 082B //                lcd_putsf("|");
                 ; 0000 082C //                put_message(Gyroy);
                 ; 0000 082D 
                 ; 0000 082E                 lcd_putsf("time: ");
                +
0019fc e9a6     +LDI R26 , LOW ( 2 * _0x0 + ( 280 ) )
0019fd e0b3     +LDI R27 , HIGH ( 2 * _0x0 + ( 280 ) )
                 	__POINTW2FN _0x0,280
0019fe 940e 2b89 	CALL _lcd_putsf
                 ; 0000 082F                 display_time();
001a00 940e 0ccf 	CALL _display_time
                 ; 0000 0830                 lcd_gotoxy(0,1);
001a02 e0e0      	LDI  R30,LOW(0)
001a03 93ea      	ST   -Y,R30
001a04 e0a1      	LDI  R26,LOW(1)
001a05 940e 2b39 	CALL _lcd_gotoxy
                 ; 0000 0831                     lcd_putsf("angle: ");
                +
001a07 e9ad     +LDI R26 , LOW ( 2 * _0x0 + ( 287 ) )
001a08 e0b3     +LDI R27 , HIGH ( 2 * _0x0 + ( 287 ) )
                 	__POINTW2FN _0x0,287
001a09 940e 2b89 	CALL _lcd_putsf
                 ; 0000 0832                     display_angle(angle);        //x
001a0b 91a0 02f3 	LDS  R26,_angle
001a0d 91b0 02f4 	LDS  R27,_angle+1
001a0f 940e 0d5d 	CALL _display_angle
                 ; 0000 0833 //                    lcd_putsf("|");
                 ; 0000 0834 //                    display_angle(roll);
                 ; 0000 0835 //                    lcd_putsf(" deg.");
                 ; 0000 0836 
                 ; 0000 0837                 }
                 ; 0000 0838 
                 ; 0000 0839 
                 ; 0000 083A 
                 ; 0000 083B         if (mode0_seqcnt>=26 && mode0_seqcnt<=40)            //display sunrise and sunset time
                 _0x15B:
001a11 91a0 02b4 	LDS  R26,_mode0_seqcnt
001a13 91b0 02b5 	LDS  R27,_mode0_seqcnt+1
001a15 975a      	SBIW R26,26
001a16 f034      	BRLT _0x15F
001a17 91a0 02b4 	LDS  R26,_mode0_seqcnt
001a19 91b0 02b5 	LDS  R27,_mode0_seqcnt+1
001a1b 9799      	SBIW R26,41
001a1c f00c      	BRLT _0x160
                 _0x15F:
001a1d c02c      	RJMP _0x15E
                 _0x160:
                 ; 0000 083C                 {
                 ; 0000 083D                 lcd_gotoxy(0,0);
001a1e e0e0      	LDI  R30,LOW(0)
001a1f 93ea      	ST   -Y,R30
001a20 e0a0      	LDI  R26,LOW(0)
001a21 940e 2b39 	CALL _lcd_gotoxy
                 ; 0000 083E                 lcd_putsf("sunrise: ");
                +
001a23 eaa5     +LDI R26 , LOW ( 2 * _0x0 + ( 295 ) )
001a24 e0b3     +LDI R27 , HIGH ( 2 * _0x0 + ( 295 ) )
                 	__POINTW2FN _0x0,295
001a25 940e 2b89 	CALL _lcd_putsf
                 ; 0000 083F                 display_day2(sunrise_min);
001a27 91e0 0288 	LDS  R30,_sunrise_min
001a29 91f0 0289 	LDS  R31,_sunrise_min+1
001a2b 9160 028a 	LDS  R22,_sunrise_min+2
001a2d 9170 028b 	LDS  R23,_sunrise_min+3
001a2f 940e 2c8e 	CALL __CFD1
001a31 01df      	MOVW R26,R30
001a32 940e 0d2a 	CALL _display_day2
                 ; 0000 0840                 lcd_gotoxy(0,1);
001a34 e0e0      	LDI  R30,LOW(0)
001a35 93ea      	ST   -Y,R30
001a36 e0a1      	LDI  R26,LOW(1)
001a37 940e 2b39 	CALL _lcd_gotoxy
                 ; 0000 0841                 lcd_putsf("sunset: ");
                +
001a39 eaaf     +LDI R26 , LOW ( 2 * _0x0 + ( 305 ) )
001a3a e0b3     +LDI R27 , HIGH ( 2 * _0x0 + ( 305 ) )
                 	__POINTW2FN _0x0,305
001a3b 940e 2b89 	CALL _lcd_putsf
                 ; 0000 0842                 display_day2(sunset_min);
001a3d 91e0 028c 	LDS  R30,_sunset_min
001a3f 91f0 028d 	LDS  R31,_sunset_min+1
001a41 9160 028e 	LDS  R22,_sunset_min+2
001a43 9170 028f 	LDS  R23,_sunset_min+3
001a45 940e 2c8e 	CALL __CFD1
001a47 01df      	MOVW R26,R30
001a48 940e 0d2a 	CALL _display_day2
                 ; 0000 0843                 }
                 ; 0000 0844         if (mode0_seqcnt>=41 && mode0_seqcnt<=55)
                 _0x15E:
001a4a 91a0 02b4 	LDS  R26,_mode0_seqcnt
001a4c 91b0 02b5 	LDS  R27,_mode0_seqcnt+1
001a4e 9799      	SBIW R26,41
001a4f f034      	BRLT _0x162
001a50 91a0 02b4 	LDS  R26,_mode0_seqcnt
001a52 91b0 02b5 	LDS  R27,_mode0_seqcnt+1
001a54 97d8      	SBIW R26,56
001a55 f00c      	BRLT _0x163
                 _0x162:
001a56 c01d      	RJMP _0x161
                 _0x163:
                 ; 0000 0845                 {                                            //next target angle and time
                 ; 0000 0846                 lcd_gotoxy(0,0);
001a57 e0e0      	LDI  R30,LOW(0)
001a58 93ea      	ST   -Y,R30
001a59 e0a0      	LDI  R26,LOW(0)
001a5a 940e 2b39 	CALL _lcd_gotoxy
                 ; 0000 0847                 lcd_putsf("next time/angle:");
                +
001a5c eba8     +LDI R26 , LOW ( 2 * _0x0 + ( 314 ) )
001a5d e0b3     +LDI R27 , HIGH ( 2 * _0x0 + ( 314 ) )
                 	__POINTW2FN _0x0,314
001a5e 940e 2b89 	CALL _lcd_putsf
                 ; 0000 0848                 lcd_gotoxy(0,1);
001a60 e0e0      	LDI  R30,LOW(0)
001a61 93ea      	ST   -Y,R30
001a62 e0a1      	LDI  R26,LOW(1)
001a63 940e 2b39 	CALL _lcd_gotoxy
                 ; 0000 0849                 display_day2(target_time);
001a65 91a0 02d4 	LDS  R26,_target_time
001a67 91b0 02d5 	LDS  R27,_target_time+1
001a69 940e 0d2a 	CALL _display_day2
                 ; 0000 084A                 lcd_putchar('/');
001a6b e2af      	LDI  R26,LOW(47)
001a6c 940e 2b62 	CALL _lcd_putchar
                 ; 0000 084B                 display_angle(target_angle);
001a6e 91a0 0298 	LDS  R26,_target_angle
001a70 91b0 0299 	LDS  R27,_target_angle+1
001a72 940e 0d5d 	CALL _display_angle
                 ; 0000 084C                 }
                 ; 0000 084D         if (mode0_seqcnt>=56 && mode0_seqcnt<=65)             //pv volt and current
                 _0x161:
001a74 91a0 02b4 	LDS  R26,_mode0_seqcnt
001a76 91b0 02b5 	LDS  R27,_mode0_seqcnt+1
001a78 97d8      	SBIW R26,56
001a79 f044      	BRLT _0x165
001a7a 91a0 02b4 	LDS  R26,_mode0_seqcnt
001a7c 91b0 02b5 	LDS  R27,_mode0_seqcnt+1
001a7e 34a2      	CPI  R26,LOW(0x42)
001a7f e0e0      	LDI  R30,HIGH(0x42)
001a80 07be      	CPC  R27,R30
001a81 f00c      	BRLT _0x166
                 _0x165:
001a82 c020      	RJMP _0x164
                 _0x166:
                 ; 0000 084E                 {
                 ; 0000 084F //                lcd_gotoxy(0,0);
                 ; 0000 0850 //                lcd_putsf("charge: ");
                 ; 0000 0851 //                if(boost_fl)
                 ; 0000 0852 //                lcd_putsf("boost    ");
                 ; 0000 0853 //                else if (float_fl)
                 ; 0000 0854 //                lcd_putsf("equal..  ");
                 ; 0000 0855 //                else
                 ; 0000 0856 //                lcd_putsf("trickle  ");
                 ; 0000 0857  //               put_message(high_angle);
                 ; 0000 0858 //               display_analog(adc_loadcurrent);
                 ; 0000 0859  //               lcd_putsf(" Amp.");
                 ; 0000 085A                 lcd_gotoxy(0,0);
001a83 e0e0      	LDI  R30,LOW(0)
001a84 93ea      	ST   -Y,R30
001a85 e0a0      	LDI  R26,LOW(0)
001a86 940e 2b39 	CALL _lcd_gotoxy
                 ; 0000 085B                  lcd_putsf("date: ");
                +
001a88 eca9     +LDI R26 , LOW ( 2 * _0x0 + ( 331 ) )
001a89 e0b3     +LDI R27 , HIGH ( 2 * _0x0 + ( 331 ) )
                 	__POINTW2FN _0x0,331
001a8a 940e 2b89 	CALL _lcd_putsf
                 ; 0000 085C                 display_date();
001a8c 940e 0d19 	CALL _display_date
                 ; 0000 085D          //display_analog(current);
                 ; 0000 085E                 lcd_gotoxy(0,1);
001a8e e0e0      	LDI  R30,LOW(0)
001a8f 93ea      	ST   -Y,R30
001a90 e0a1      	LDI  R26,LOW(1)
001a91 940e 2b39 	CALL _lcd_gotoxy
                 ; 0000 085F                 display_angle1(low_angle);
001a93 91a0 02ce 	LDS  R26,_low_angle
001a95 91b0 02cf 	LDS  R27,_low_angle+1
001a97 940e 0d70 	CALL _display_angle1
                 ; 0000 0860                 lcd_putsf(" / ");
                +
001a99 eda0     +LDI R26 , LOW ( 2 * _0x0 + ( 338 ) )
001a9a e0b3     +LDI R27 , HIGH ( 2 * _0x0 + ( 338 ) )
                 	__POINTW2FN _0x0,338
001a9b 940e 2b89 	CALL _lcd_putsf
                 ; 0000 0861                 display_angle1(high_angle);
001a9d 91a0 02d0 	LDS  R26,_high_angle
001a9f 91b0 02d1 	LDS  R27,_high_angle+1
001aa1 940e 0d70 	CALL _display_angle1
                 ; 0000 0862 //                lcd_putsf("Degs.");
                 ; 0000 0863                 }
                 ; 0000 0864          lcd_gotoxy(0,2);
                 _0x164:
001aa3 e0e0      	LDI  R30,LOW(0)
001aa4 93ea      	ST   -Y,R30
001aa5 e0a2      	LDI  R26,LOW(2)
001aa6 940e 2b39 	CALL _lcd_gotoxy
                 ; 0000 0865 //                lcd_putsf("sunrise: ");
                 ; 0000 0866 //                display_time2(riset*100);
                 ; 0000 0867 //                lcd_gotoxy(0,3);
                 ; 0000 0868 //                lcd_putsf("sunset: ");
                 ; 0000 0869 //                display_time2(settm*100);
                 ; 0000 086A 
                 ; 0000 086B                 lcd_gotoxy(0,2);
001aa8 e0e0      	LDI  R30,LOW(0)
001aa9 93ea      	ST   -Y,R30
001aaa e0a2      	LDI  R26,LOW(2)
001aab 940e 2b39 	CALL _lcd_gotoxy
                 ; 0000 086C 
                 ; 0000 086D          display_angle(sun_angle);
001aad 91a0 029c 	LDS  R26,_sun_angle
001aaf 91b0 029d 	LDS  R27,_sun_angle+1
001ab1 940e 0d5d 	CALL _display_angle
                 ; 0000 086E          lcd_putsf(" G:");
                +
001ab3 eda4     +LDI R26 , LOW ( 2 * _0x0 + ( 342 ) )
001ab4 e0b3     +LDI R27 , HIGH ( 2 * _0x0 + ( 342 ) )
                 	__POINTW2FN _0x0,342
001ab5 940e 2b89 	CALL _lcd_putsf
                 ; 0000 086F          display_angle(gangle);
001ab7 91a0 030f 	LDS  R26,_gangle
001ab9 91b0 0310 	LDS  R27,_gangle+1
001abb 940e 0d5d 	CALL _display_angle
                 ; 0000 0870          lcd_gotoxy(0,3);
001abd e0e0      	LDI  R30,LOW(0)
001abe 93ea      	ST   -Y,R30
001abf e0a3      	LDI  R26,LOW(3)
001ac0 940e 2b39 	CALL _lcd_gotoxy
                 ; 0000 0871          display_angle(target_angle);
001ac2 91a0 0298 	LDS  R26,_target_angle
001ac4 91b0 0299 	LDS  R27,_target_angle+1
001ac6 940e 0d5d 	CALL _display_angle
                 ; 0000 0872          lcd_putsf("b:");
                +
001ac8 eda8     +LDI R26 , LOW ( 2 * _0x0 + ( 346 ) )
001ac9 e0b3     +LDI R27 , HIGH ( 2 * _0x0 + ( 346 ) )
                 	__POINTW2FN _0x0,346
001aca 940e 2b89 	CALL _lcd_putsf
                 ; 0000 0873 //         display_angle(b_factor);
                 ; 0000 0874 //         display_analog(adc_battery);
                 ; 0000 0875 //         if (boost_fl) lcd_putsf("boost");
                 ; 0000 0876 //         if(float_fl) lcd_putsf("equal.");
                 ; 0000 0877 //         if(trickle_fl) lcd_putsf("trickle");
                 ; 0000 0878 //         lcd_gotoxy(0,3);
                 ; 0000 0879 //         if (shutdown) lcd_putsf(" ON ");
                 ; 0000 087A //         else lcd_putsf("OFF ");
                 ; 0000 087B //         display_analog(adc_chargecurrent);
                 ; 0000 087C //         lcd_putsf(" ");
                 ; 0000 087D          display_analog(OCR1A);
001acc b5ea      	IN   R30,0x2A
001acd b5fb      	IN   R31,0x2A+1
001ace 01df      	MOVW R26,R30
001acf 940e 0d46 	CALL _display_analog
                 ; 0000 087E         }
                 ; 0000 087F if (mode == 1 && !manual_fl)
                 _0x157:
001ad1 91a0 02ac 	LDS  R26,_mode
001ad3 91b0 02ad 	LDS  R27,_mode+1
001ad5 9711      	SBIW R26,1
001ad6 f411      	BRNE _0x168
001ad7 fe52      	SBRS R5,2
001ad8 c001      	RJMP _0x169
                 _0x168:
001ad9 c249      	RJMP _0x167
                 _0x169:
                 ; 0000 0880         {
                 ; 0000 0881         lcd_gotoxy(0,1);
001ada e0e0      	LDI  R30,LOW(0)
001adb 93ea      	ST   -Y,R30
001adc e0a1      	LDI  R26,LOW(1)
001add 940e 2b39 	CALL _lcd_gotoxy
                 ; 0000 0882         switch(set)
001adf 91e0 02ae 	LDS  R30,_set
001ae1 91f0 02af 	LDS  R31,_set+1
                 ; 0000 0883         {
                 ; 0000 0884         case 0: display_time();
001ae3 9730      	SBIW R30,0
001ae4 f419      	BRNE _0x16D
001ae5 940e 0ccf 	CALL _display_time
                 ; 0000 0885                 break;
001ae7 c0b4      	RJMP _0x16C
                 ; 0000 0886         case 1: display_date();
                 _0x16D:
001ae8 30e1      	CPI  R30,LOW(0x1)
001ae9 e0a0      	LDI  R26,HIGH(0x1)
001aea 07fa      	CPC  R31,R26
001aeb f419      	BRNE _0x16E
001aec 940e 0d19 	CALL _display_date
                 ; 0000 0887                 break;
001aee c0ad      	RJMP _0x16C
                 ; 0000 0888         case 2: display_latlong(set_latit);
                 _0x16E:
001aef 30e2      	CPI  R30,LOW(0x2)
001af0 e0a0      	LDI  R26,HIGH(0x2)
001af1 07fa      	CPC  R31,R26
001af2 f451      	BRNE _0x16F
001af3 91a0 02ca 	LDS  R26,_set_latit
001af5 91b0 02cb 	LDS  R27,_set_latit+1
001af7 940e 0cdb 	CALL _display_latlong
                 ; 0000 0889                 lcd_putchar(0);
001af9 e0a0      	LDI  R26,LOW(0)
001afa 940e 2b62 	CALL _lcd_putchar
                 ; 0000 088A                 break;
001afc c09f      	RJMP _0x16C
                 ; 0000 088B         case 3: display_latlong(set_longitude);
                 _0x16F:
001afd 30e3      	CPI  R30,LOW(0x3)
001afe e0a0      	LDI  R26,HIGH(0x3)
001aff 07fa      	CPC  R31,R26
001b00 f451      	BRNE _0x170
001b01 91a0 02cc 	LDS  R26,_set_longitude
001b03 91b0 02cd 	LDS  R27,_set_longitude+1
001b05 940e 0cdb 	CALL _display_latlong
                 ; 0000 088C                 lcd_putchar(0);
001b07 e0a0      	LDI  R26,LOW(0)
001b08 940e 2b62 	CALL _lcd_putchar
                 ; 0000 088D                 break;
001b0a c091      	RJMP _0x16C
                 ; 0000 088E         case 4: put_message2(time_interval);
                 _0x170:
001b0b 30e4      	CPI  R30,LOW(0x4)
001b0c e0a0      	LDI  R26,HIGH(0x4)
001b0d 07fa      	CPC  R31,R26
001b0e f449      	BRNE _0x171
001b0f 91a0 02d2 	LDS  R26,_time_interval
001b11 940e 0c53 	CALL _put_message2
                 ; 0000 088F                 lcd_putsf(" minutes  ");
                +
001b13 edab     +LDI R26 , LOW ( 2 * _0x0 + ( 349 ) )
001b14 e0b3     +LDI R27 , HIGH ( 2 * _0x0 + ( 349 ) )
                 	__POINTW2FN _0x0,349
001b15 940e 2b89 	CALL _lcd_putsf
                 ; 0000 0890                 break;
001b17 c084      	RJMP _0x16C
                 ; 0000 0891         case 5: lcd_putsf("GMT ");
                 _0x171:
001b18 30e5      	CPI  R30,LOW(0x5)
001b19 e0a0      	LDI  R26,HIGH(0x5)
001b1a 07fa      	CPC  R31,R26
001b1b f459      	BRNE _0x172
                +
001b1c e0a9     +LDI R26 , LOW ( 2 * _0x0 + ( 139 ) )
001b1d e0b3     +LDI R27 , HIGH ( 2 * _0x0 + ( 139 ) )
                 	__POINTW2FN _0x0,139
001b1e 940e 2b89 	CALL _lcd_putsf
                 ; 0000 0892                 display_latlong(set_timezone);
001b20 91a0 02d8 	LDS  R26,_set_timezone
001b22 91b0 02d9 	LDS  R27,_set_timezone+1
001b24 940e 0cdb 	CALL _display_latlong
                 ; 0000 0893                 break;
001b26 c075      	RJMP _0x16C
                 ; 0000 0894         case 6: lcd_putsf("    ");
                 _0x172:
001b27 30e6      	CPI  R30,LOW(0x6)
001b28 e0a0      	LDI  R26,HIGH(0x6)
001b29 07fa      	CPC  R31,R26
001b2a f459      	BRNE _0x173
                +
001b2b e2a4     +LDI R26 , LOW ( 2 * _0x0 + ( 166 ) )
001b2c e0b3     +LDI R27 , HIGH ( 2 * _0x0 + ( 166 ) )
                 	__POINTW2FN _0x0,166
001b2d 940e 2b89 	CALL _lcd_putsf
                 ; 0000 0895                 display_latlong(set_width);
001b2f 91a0 0305 	LDS  R26,_set_width
001b31 91b0 0306 	LDS  R27,_set_width+1
001b33 940e 0cdb 	CALL _display_latlong
                 ; 0000 0896                 break;
001b35 c066      	RJMP _0x16C
                 ; 0000 0897         case 7: lcd_putsf("    ");
                 _0x173:
001b36 30e7      	CPI  R30,LOW(0x7)
001b37 e0a0      	LDI  R26,HIGH(0x7)
001b38 07fa      	CPC  R31,R26
001b39 f459      	BRNE _0x174
                +
001b3a e2a4     +LDI R26 , LOW ( 2 * _0x0 + ( 166 ) )
001b3b e0b3     +LDI R27 , HIGH ( 2 * _0x0 + ( 166 ) )
                 	__POINTW2FN _0x0,166
001b3c 940e 2b89 	CALL _lcd_putsf
                 ; 0000 0898                 display_latlong(set_distance);
001b3e 91a0 0303 	LDS  R26,_set_distance
001b40 91b0 0304 	LDS  R27,_set_distance+1
001b42 940e 0cdb 	CALL _display_latlong
                 ; 0000 0899                 break;
001b44 c057      	RJMP _0x16C
                 ; 0000 089A         case 8: lcd_putsf("    ");
                 _0x174:
001b45 30e8      	CPI  R30,LOW(0x8)
001b46 e0a0      	LDI  R26,HIGH(0x8)
001b47 07fa      	CPC  R31,R26
001b48 f459      	BRNE _0x175
                +
001b49 e2a4     +LDI R26 , LOW ( 2 * _0x0 + ( 166 ) )
001b4a e0b3     +LDI R27 , HIGH ( 2 * _0x0 + ( 166 ) )
                 	__POINTW2FN _0x0,166
001b4b 940e 2b89 	CALL _lcd_putsf
                 ; 0000 089B                 display_modbus(modbus_id);
001b4d 91a0 0307 	LDS  R26,_modbus_id
001b4f 91b0 0308 	LDS  R27,_modbus_id+1
001b51 940e 0cfe 	CALL _display_modbus
                 ; 0000 089C                 break;
001b53 c048      	RJMP _0x16C
                 ; 0000 089D         case 9: lcd_putsf("   ");
                 _0x175:
001b54 30e9      	CPI  R30,LOW(0x9)
001b55 e0a0      	LDI  R26,HIGH(0x9)
001b56 07fa      	CPC  R31,R26
001b57 f009      	BREQ PC+2
001b58 c043      	RJMP _0x16C
                +
001b59 e2a5     +LDI R26 , LOW ( 2 * _0x0 + ( 167 ) )
001b5a e0b3     +LDI R27 , HIGH ( 2 * _0x0 + ( 167 ) )
                 	__POINTW2FN _0x0,167
001b5b 940e 2b89 	CALL _lcd_putsf
                 ; 0000 089E                switch(modbus_rate)
001b5d 91e0 0309 	LDS  R30,_modbus_rate
001b5f 91f0 030a 	LDS  R31,_modbus_rate+1
                 ; 0000 089F                     {
                 ; 0000 08A0                     case 1: lcd_putsf("  9600");
001b61 30e1      	CPI  R30,LOW(0x1)
001b62 e0a0      	LDI  R26,HIGH(0x1)
001b63 07fa      	CPC  R31,R26
001b64 f429      	BRNE _0x17A
                +
001b65 e5a3     +LDI R26 , LOW ( 2 * _0x0 + ( 213 ) )
001b66 e0b3     +LDI R27 , HIGH ( 2 * _0x0 + ( 213 ) )
                 	__POINTW2FN _0x0,213
001b67 940e 2b89 	CALL _lcd_putsf
                 ; 0000 08A1                             break;
001b69 c032      	RJMP _0x179
                 ; 0000 08A2                     case 2: lcd_putsf(" 19200");
                 _0x17A:
001b6a 30e2      	CPI  R30,LOW(0x2)
001b6b e0a0      	LDI  R26,HIGH(0x2)
001b6c 07fa      	CPC  R31,R26
001b6d f429      	BRNE _0x17B
                +
001b6e e5aa     +LDI R26 , LOW ( 2 * _0x0 + ( 220 ) )
001b6f e0b3     +LDI R27 , HIGH ( 2 * _0x0 + ( 220 ) )
                 	__POINTW2FN _0x0,220
001b70 940e 2b89 	CALL _lcd_putsf
                 ; 0000 08A3                             break;
001b72 c029      	RJMP _0x179
                 ; 0000 08A4                     case 3: lcd_putsf(" 38400");
                 _0x17B:
001b73 30e3      	CPI  R30,LOW(0x3)
001b74 e0a0      	LDI  R26,HIGH(0x3)
001b75 07fa      	CPC  R31,R26
001b76 f429      	BRNE _0x17C
                +
001b77 e6a1     +LDI R26 , LOW ( 2 * _0x0 + ( 227 ) )
001b78 e0b3     +LDI R27 , HIGH ( 2 * _0x0 + ( 227 ) )
                 	__POINTW2FN _0x0,227
001b79 940e 2b89 	CALL _lcd_putsf
                 ; 0000 08A5                             break;
001b7b c020      	RJMP _0x179
                 ; 0000 08A6                     case 4: lcd_putsf(" 57600");
                 _0x17C:
001b7c 30e4      	CPI  R30,LOW(0x4)
001b7d e0a0      	LDI  R26,HIGH(0x4)
001b7e 07fa      	CPC  R31,R26
001b7f f429      	BRNE _0x17D
                +
001b80 e6a8     +LDI R26 , LOW ( 2 * _0x0 + ( 234 ) )
001b81 e0b3     +LDI R27 , HIGH ( 2 * _0x0 + ( 234 ) )
                 	__POINTW2FN _0x0,234
001b82 940e 2b89 	CALL _lcd_putsf
                 ; 0000 08A7                             break;
001b84 c017      	RJMP _0x179
                 ; 0000 08A8                     case 5: lcd_putsf("115200");
                 _0x17D:
001b85 30e5      	CPI  R30,LOW(0x5)
001b86 e0a0      	LDI  R26,HIGH(0x5)
001b87 07fa      	CPC  R31,R26
001b88 f429      	BRNE _0x17F
                +
001b89 e6af     +LDI R26 , LOW ( 2 * _0x0 + ( 241 ) )
001b8a e0b3     +LDI R27 , HIGH ( 2 * _0x0 + ( 241 ) )
                 	__POINTW2FN _0x0,241
001b8b 940e 2b89 	CALL _lcd_putsf
                 ; 0000 08A9                             break;
001b8d c00e      	RJMP _0x179
                 ; 0000 08AA                     default:lcd_putsf("  9600");
                 _0x17F:
                +
001b8e e5a3     +LDI R26 , LOW ( 2 * _0x0 + ( 213 ) )
001b8f e0b3     +LDI R27 , HIGH ( 2 * _0x0 + ( 213 ) )
                 	__POINTW2FN _0x0,213
001b90 940e 2b89 	CALL _lcd_putsf
                 ; 0000 08AB                             e_modbus_rate = modbus_rate =0;
001b92 e0e0      	LDI  R30,LOW(0)
001b93 e0f0      	LDI  R31,HIGH(0)
001b94 93e0 0309 	STS  _modbus_rate,R30
001b96 93f0 030a 	STS  _modbus_rate+1,R31
001b98 e2a4      	LDI  R26,LOW(_e_modbus_rate)
001b99 e0b0      	LDI  R27,HIGH(_e_modbus_rate)
001b9a 940e 2f71 	CALL __EEPROMWRW
                 ; 0000 08AC                             break;
                 ; 0000 08AD                     }
                 _0x179:
                 ; 0000 08AE //                display_modbus(modbus_rate);
                 ; 0000 08AF                 break;
                 ; 0000 08B0         }
                 _0x16C:
                 ; 0000 08B1 
                 ; 0000 08B2 
                 ; 0000 08B3            switch (item1)
001b9c 91e0 02b0 	LDS  R30,_item1
001b9e 91f0 02b1 	LDS  R31,_item1+1
                 ; 0000 08B4                 {
                 ; 0000 08B5                 case 0: blink_data = hour;
001ba0 9730      	SBIW R30,0
001ba1 f421      	BRNE _0x183
001ba2 9270 02c9 	STS  _blink_data,R7
                 ; 0000 08B6                         blink_locx =0;
001ba4 24cc      	CLR  R12
                 ; 0000 08B7                         blink_locy =1;
001ba5 c17a      	RJMP _0x285
                 ; 0000 08B8                         break;
                 ; 0000 08B9                 case 1: blink_data = minute;
                 _0x183:
001ba6 30e1      	CPI  R30,LOW(0x1)
001ba7 e0a0      	LDI  R26,HIGH(0x1)
001ba8 07fa      	CPC  R31,R26
001ba9 f421      	BRNE _0x184
001baa 9260 02c9 	STS  _blink_data,R6
                 ; 0000 08BA                         blink_locx =3;
001bac e0e3      	LDI  R30,LOW(3)
001bad c171      	RJMP _0x286
                 ; 0000 08BB                         blink_locy =1;
                 ; 0000 08BC                         break;
                 ; 0000 08BD                 case 2: blink_data = second;
                 _0x184:
001bae 30e2      	CPI  R30,LOW(0x2)
001baf e0a0      	LDI  R26,HIGH(0x2)
001bb0 07fa      	CPC  R31,R26
001bb1 f421      	BRNE _0x185
001bb2 9290 02c9 	STS  _blink_data,R9
                 ; 0000 08BE                         blink_locx =6;
001bb4 e0e6      	LDI  R30,LOW(6)
001bb5 c169      	RJMP _0x286
                 ; 0000 08BF                         blink_locy =1;
                 ; 0000 08C0                         break;
                 ; 0000 08C1                 case 3: blink_data = day;
                 _0x185:
001bb6 30e3      	CPI  R30,LOW(0x3)
001bb7 e0a0      	LDI  R26,HIGH(0x3)
001bb8 07fa      	CPC  R31,R26
001bb9 f421      	BRNE _0x186
001bba 92b0 02c9 	STS  _blink_data,R11
                 ; 0000 08C2                         blink_locx =0;
001bbc 24cc      	CLR  R12
                 ; 0000 08C3                         blink_locy =1;
001bbd c162      	RJMP _0x285
                 ; 0000 08C4                         break;
                 ; 0000 08C5                 case 4: blink_data = month;
                 _0x186:
001bbe 30e4      	CPI  R30,LOW(0x4)
001bbf e0a0      	LDI  R26,HIGH(0x4)
001bc0 07fa      	CPC  R31,R26
001bc1 f421      	BRNE _0x187
001bc2 92a0 02c9 	STS  _blink_data,R10
                 ; 0000 08C6                         blink_locx =3;
001bc4 e0e3      	LDI  R30,LOW(3)
001bc5 c159      	RJMP _0x286
                 ; 0000 08C7                         blink_locy =1;
                 ; 0000 08C8                         break;
                 ; 0000 08C9                 case 5: blink_data = year;
                 _0x187:
001bc6 30e5      	CPI  R30,LOW(0x5)
001bc7 e0a0      	LDI  R26,HIGH(0x5)
001bc8 07fa      	CPC  R31,R26
001bc9 f421      	BRNE _0x188
001bca 92d0 02c9 	STS  _blink_data,R13
                 ; 0000 08CA                         blink_locx =8;
001bcc e0e8      	LDI  R30,LOW(8)
001bcd c151      	RJMP _0x286
                 ; 0000 08CB                         blink_locy =1;
                 ; 0000 08CC                         break;
                 ; 0000 08CD                 case 6: char_latitude = blink_data = (abs(set_latit)/100)%100 ;
                 _0x188:
001bce 30e6      	CPI  R30,LOW(0x6)
001bcf e0a0      	LDI  R26,HIGH(0x6)
001bd0 07fa      	CPC  R31,R26
001bd1 f4b1      	BRNE _0x189
001bd2 91a0 02ca 	LDS  R26,_set_latit
001bd4 91b0 02cb 	LDS  R27,_set_latit+1
001bd6 940e 2a1a 	CALL _abs
001bd8 01df      	MOVW R26,R30
001bd9 e6e4      	LDI  R30,LOW(100)
001bda e0f0      	LDI  R31,HIGH(100)
001bdb 940e 2e8b 	CALL __DIVW21U
001bdd 01df      	MOVW R26,R30
001bde e6e4      	LDI  R30,LOW(100)
001bdf e0f0      	LDI  R31,HIGH(100)
001be0 940e 2ecd 	CALL __MODW21U
001be2 93e0 02c9 	STS  _blink_data,R30
001be4 93e0 02e2 	STS  _char_latitude,R30
                 ; 0000 08CE                         blink_locx =2;
001be6 e0e2      	LDI  R30,LOW(2)
001be7 c137      	RJMP _0x286
                 ; 0000 08CF                         blink_locy =1;
                 ; 0000 08D0                         break;
                 ; 0000 08D1                 case 7: char_latitude = blink_data = abs(set_latit)%100 ;
                 _0x189:
001be8 30e7      	CPI  R30,LOW(0x7)
001be9 e0a0      	LDI  R26,HIGH(0x7)
001bea 07fa      	CPC  R31,R26
001beb f489      	BRNE _0x18A
001bec 91a0 02ca 	LDS  R26,_set_latit
001bee 91b0 02cb 	LDS  R27,_set_latit+1
001bf0 940e 2a1a 	CALL _abs
001bf2 01df      	MOVW R26,R30
001bf3 e6e4      	LDI  R30,LOW(100)
001bf4 e0f0      	LDI  R31,HIGH(100)
001bf5 940e 2ecd 	CALL __MODW21U
001bf7 93e0 02c9 	STS  _blink_data,R30
001bf9 93e0 02e2 	STS  _char_latitude,R30
                 ; 0000 08D2                         blink_locx =5;
001bfb e0e5      	LDI  R30,LOW(5)
001bfc c122      	RJMP _0x286
                 ; 0000 08D3                         blink_locy =1;
                 ; 0000 08D4                         break;
                 ; 0000 08D5                 case 8: char_longitude = blink_data = (abs(set_longitude)/100)%100 ;
                 _0x18A:
001bfd 30e8      	CPI  R30,LOW(0x8)
001bfe e0a0      	LDI  R26,HIGH(0x8)
001bff 07fa      	CPC  R31,R26
001c00 f4b1      	BRNE _0x18B
001c01 91a0 02cc 	LDS  R26,_set_longitude
001c03 91b0 02cd 	LDS  R27,_set_longitude+1
001c05 940e 2a1a 	CALL _abs
001c07 01df      	MOVW R26,R30
001c08 e6e4      	LDI  R30,LOW(100)
001c09 e0f0      	LDI  R31,HIGH(100)
001c0a 940e 2e8b 	CALL __DIVW21U
001c0c 01df      	MOVW R26,R30
001c0d e6e4      	LDI  R30,LOW(100)
001c0e e0f0      	LDI  R31,HIGH(100)
001c0f 940e 2ecd 	CALL __MODW21U
001c11 93e0 02c9 	STS  _blink_data,R30
001c13 93e0 02e3 	STS  _char_longitude,R30
                 ; 0000 08D6                         blink_locx =2;
001c15 e0e2      	LDI  R30,LOW(2)
001c16 c108      	RJMP _0x286
                 ; 0000 08D7                         blink_locy =1;
                 ; 0000 08D8                         break;
                 ; 0000 08D9                 case 9: char_longitude = blink_data = abs(set_longitude)%100 ;
                 _0x18B:
001c17 30e9      	CPI  R30,LOW(0x9)
001c18 e0a0      	LDI  R26,HIGH(0x9)
001c19 07fa      	CPC  R31,R26
001c1a f489      	BRNE _0x18C
001c1b 91a0 02cc 	LDS  R26,_set_longitude
001c1d 91b0 02cd 	LDS  R27,_set_longitude+1
001c1f 940e 2a1a 	CALL _abs
001c21 01df      	MOVW R26,R30
001c22 e6e4      	LDI  R30,LOW(100)
001c23 e0f0      	LDI  R31,HIGH(100)
001c24 940e 2ecd 	CALL __MODW21U
001c26 93e0 02c9 	STS  _blink_data,R30
001c28 93e0 02e3 	STS  _char_longitude,R30
                 ; 0000 08DA                         blink_locx =5;
001c2a e0e5      	LDI  R30,LOW(5)
001c2b c0f3      	RJMP _0x286
                 ; 0000 08DB                         blink_locy =1;
                 ; 0000 08DC                         break;
                 ; 0000 08DD                 case 10:blink_data = time_interval;
                 _0x18C:
001c2c 30ea      	CPI  R30,LOW(0xA)
001c2d e0a0      	LDI  R26,HIGH(0xA)
001c2e 07fa      	CPC  R31,R26
001c2f f431      	BRNE _0x18D
001c30 91e0 02d2 	LDS  R30,_time_interval
001c32 93e0 02c9 	STS  _blink_data,R30
                 ; 0000 08DE                         blink_locx =0;
001c34 24cc      	CLR  R12
                 ; 0000 08DF                         blink_locy =1;
001c35 c0ea      	RJMP _0x285
                 ; 0000 08E0                         break;
                 ; 0000 08E1                 case 11:char_timezone = blink_data = (abs(set_timezone)/100)%100 ;
                 _0x18D:
001c36 30eb      	CPI  R30,LOW(0xB)
001c37 e0a0      	LDI  R26,HIGH(0xB)
001c38 07fa      	CPC  R31,R26
001c39 f4b1      	BRNE _0x18E
001c3a 91a0 02d8 	LDS  R26,_set_timezone
001c3c 91b0 02d9 	LDS  R27,_set_timezone+1
001c3e 940e 2a1a 	CALL _abs
001c40 01df      	MOVW R26,R30
001c41 e6e4      	LDI  R30,LOW(100)
001c42 e0f0      	LDI  R31,HIGH(100)
001c43 940e 2e8b 	CALL __DIVW21U
001c45 01df      	MOVW R26,R30
001c46 e6e4      	LDI  R30,LOW(100)
001c47 e0f0      	LDI  R31,HIGH(100)
001c48 940e 2ecd 	CALL __MODW21U
001c4a 93e0 02c9 	STS  _blink_data,R30
001c4c 93e0 02e4 	STS  _char_timezone,R30
                 ; 0000 08E2                         blink_locx =6;
001c4e e0e6      	LDI  R30,LOW(6)
001c4f c0cf      	RJMP _0x286
                 ; 0000 08E3                         blink_locy =1;
                 ; 0000 08E4                         break;
                 ; 0000 08E5                 case 12:char_timezone =  blink_data = abs(set_timezone)%100;
                 _0x18E:
001c50 30ec      	CPI  R30,LOW(0xC)
001c51 e0a0      	LDI  R26,HIGH(0xC)
001c52 07fa      	CPC  R31,R26
001c53 f489      	BRNE _0x18F
001c54 91a0 02d8 	LDS  R26,_set_timezone
001c56 91b0 02d9 	LDS  R27,_set_timezone+1
001c58 940e 2a1a 	CALL _abs
001c5a 01df      	MOVW R26,R30
001c5b e6e4      	LDI  R30,LOW(100)
001c5c e0f0      	LDI  R31,HIGH(100)
001c5d 940e 2ecd 	CALL __MODW21U
001c5f 93e0 02c9 	STS  _blink_data,R30
001c61 93e0 02e4 	STS  _char_timezone,R30
                 ; 0000 08E6                         blink_locx = 9;
001c63 e0e9      	LDI  R30,LOW(9)
001c64 c0ba      	RJMP _0x286
                 ; 0000 08E7                         blink_locy =1;
                 ; 0000 08E8                         break;
                 ; 0000 08E9                 case 13:char_width = blink_data = (abs(set_width)/100)%100 ;
                 _0x18F:
001c65 30ed      	CPI  R30,LOW(0xD)
001c66 e0a0      	LDI  R26,HIGH(0xD)
001c67 07fa      	CPC  R31,R26
001c68 f4b1      	BRNE _0x190
001c69 91a0 0305 	LDS  R26,_set_width
001c6b 91b0 0306 	LDS  R27,_set_width+1
001c6d 940e 2a1a 	CALL _abs
001c6f 01df      	MOVW R26,R30
001c70 e6e4      	LDI  R30,LOW(100)
001c71 e0f0      	LDI  R31,HIGH(100)
001c72 940e 2e8b 	CALL __DIVW21U
001c74 01df      	MOVW R26,R30
001c75 e6e4      	LDI  R30,LOW(100)
001c76 e0f0      	LDI  R31,HIGH(100)
001c77 940e 2ecd 	CALL __MODW21U
001c79 93e0 02c9 	STS  _blink_data,R30
001c7b 93e0 02e5 	STS  _char_width,R30
                 ; 0000 08EA                         blink_locx =6;
001c7d e0e6      	LDI  R30,LOW(6)
001c7e c0a0      	RJMP _0x286
                 ; 0000 08EB                         blink_locy =1;
                 ; 0000 08EC                         break;
                 ; 0000 08ED                 case 14:char_width =  blink_data = abs(set_width)%100;
                 _0x190:
001c7f 30ee      	CPI  R30,LOW(0xE)
001c80 e0a0      	LDI  R26,HIGH(0xE)
001c81 07fa      	CPC  R31,R26
001c82 f489      	BRNE _0x191
001c83 91a0 0305 	LDS  R26,_set_width
001c85 91b0 0306 	LDS  R27,_set_width+1
001c87 940e 2a1a 	CALL _abs
001c89 01df      	MOVW R26,R30
001c8a e6e4      	LDI  R30,LOW(100)
001c8b e0f0      	LDI  R31,HIGH(100)
001c8c 940e 2ecd 	CALL __MODW21U
001c8e 93e0 02c9 	STS  _blink_data,R30
001c90 93e0 02e5 	STS  _char_width,R30
                 ; 0000 08EE                         blink_locx = 9;
001c92 e0e9      	LDI  R30,LOW(9)
001c93 c08b      	RJMP _0x286
                 ; 0000 08EF                         blink_locy =1;
                 ; 0000 08F0                         break;
                 ; 0000 08F1                 case 15:char_distance = blink_data = (abs(set_distance)/100)%100 ;
                 _0x191:
001c94 30ef      	CPI  R30,LOW(0xF)
001c95 e0a0      	LDI  R26,HIGH(0xF)
001c96 07fa      	CPC  R31,R26
001c97 f4b1      	BRNE _0x192
001c98 91a0 0303 	LDS  R26,_set_distance
001c9a 91b0 0304 	LDS  R27,_set_distance+1
001c9c 940e 2a1a 	CALL _abs
001c9e 01df      	MOVW R26,R30
001c9f e6e4      	LDI  R30,LOW(100)
001ca0 e0f0      	LDI  R31,HIGH(100)
001ca1 940e 2e8b 	CALL __DIVW21U
001ca3 01df      	MOVW R26,R30
001ca4 e6e4      	LDI  R30,LOW(100)
001ca5 e0f0      	LDI  R31,HIGH(100)
001ca6 940e 2ecd 	CALL __MODW21U
001ca8 93e0 02c9 	STS  _blink_data,R30
001caa 93e0 02e6 	STS  _char_distance,R30
                 ; 0000 08F2                         blink_locx =6;
001cac e0e6      	LDI  R30,LOW(6)
001cad c071      	RJMP _0x286
                 ; 0000 08F3                         blink_locy =1;
                 ; 0000 08F4                         break;
                 ; 0000 08F5                 case 16:char_distance =  blink_data = abs(set_distance)%100;
                 _0x192:
001cae 31e0      	CPI  R30,LOW(0x10)
001caf e0a0      	LDI  R26,HIGH(0x10)
001cb0 07fa      	CPC  R31,R26
001cb1 f489      	BRNE _0x193
001cb2 91a0 0303 	LDS  R26,_set_distance
001cb4 91b0 0304 	LDS  R27,_set_distance+1
001cb6 940e 2a1a 	CALL _abs
001cb8 01df      	MOVW R26,R30
001cb9 e6e4      	LDI  R30,LOW(100)
001cba e0f0      	LDI  R31,HIGH(100)
001cbb 940e 2ecd 	CALL __MODW21U
001cbd 93e0 02c9 	STS  _blink_data,R30
001cbf 93e0 02e6 	STS  _char_distance,R30
                 ; 0000 08F6                         blink_locx = 9;
001cc1 e0e9      	LDI  R30,LOW(9)
001cc2 c05c      	RJMP _0x286
                 ; 0000 08F7                         blink_locy =1;
                 ; 0000 08F8                         break;
                 ; 0000 08F9                         break;
                 ; 0000 08FA                 case 17:char_id = blink_data = (abs(modbus_id)/100)%100 ;
                 _0x193:
001cc3 31e1      	CPI  R30,LOW(0x11)
001cc4 e0a0      	LDI  R26,HIGH(0x11)
001cc5 07fa      	CPC  R31,R26
001cc6 f4b1      	BRNE _0x194
001cc7 91a0 0307 	LDS  R26,_modbus_id
001cc9 91b0 0308 	LDS  R27,_modbus_id+1
001ccb 940e 2a1a 	CALL _abs
001ccd 01df      	MOVW R26,R30
001cce e6e4      	LDI  R30,LOW(100)
001ccf e0f0      	LDI  R31,HIGH(100)
001cd0 940e 2e8b 	CALL __DIVW21U
001cd2 01df      	MOVW R26,R30
001cd3 e6e4      	LDI  R30,LOW(100)
001cd4 e0f0      	LDI  R31,HIGH(100)
001cd5 940e 2ecd 	CALL __MODW21U
001cd7 93e0 02c9 	STS  _blink_data,R30
001cd9 93e0 02e7 	STS  _char_id,R30
                 ; 0000 08FB                         blink_locx =5;
001cdb e0e5      	LDI  R30,LOW(5)
001cdc c042      	RJMP _0x286
                 ; 0000 08FC                         blink_locy =1;
                 ; 0000 08FD                         break;
                 ; 0000 08FE                 case 18:char_id =  blink_data = abs(modbus_id)%100;
                 _0x194:
001cdd 31e2      	CPI  R30,LOW(0x12)
001cde e0a0      	LDI  R26,HIGH(0x12)
001cdf 07fa      	CPC  R31,R26
001ce0 f481      	BRNE _0x195
001ce1 91a0 0307 	LDS  R26,_modbus_id
001ce3 91b0 0308 	LDS  R27,_modbus_id+1
001ce5 940e 2a1a 	CALL _abs
001ce7 01df      	MOVW R26,R30
001ce8 e6e4      	LDI  R30,LOW(100)
001ce9 e0f0      	LDI  R31,HIGH(100)
001cea 940e 2ecd 	CALL __MODW21U
001cec 93e0 02c9 	STS  _blink_data,R30
001cee 93e0 02e7 	STS  _char_id,R30
                 ; 0000 08FF                         blink_locx = 7;
001cf0 c02d      	RJMP _0x287
                 ; 0000 0900                         blink_locy =1;
                 ; 0000 0901                         break;
                 ; 0000 0902                         break;
                 ; 0000 0903                 case 19:char_rate = blink_data = (abs(modbus_rate)/100)%100 ;
                 _0x195:
001cf1 31e3      	CPI  R30,LOW(0x13)
001cf2 e0a0      	LDI  R26,HIGH(0x13)
001cf3 07fa      	CPC  R31,R26
001cf4 f4b1      	BRNE _0x196
001cf5 91a0 0309 	LDS  R26,_modbus_rate
001cf7 91b0 030a 	LDS  R27,_modbus_rate+1
001cf9 940e 2a1a 	CALL _abs
001cfb 01df      	MOVW R26,R30
001cfc e6e4      	LDI  R30,LOW(100)
001cfd e0f0      	LDI  R31,HIGH(100)
001cfe 940e 2e8b 	CALL __DIVW21U
001d00 01df      	MOVW R26,R30
001d01 e6e4      	LDI  R30,LOW(100)
001d02 e0f0      	LDI  R31,HIGH(100)
001d03 940e 2ecd 	CALL __MODW21U
001d05 93e0 02c9 	STS  _blink_data,R30
001d07 93e0 02e8 	STS  _char_rate,R30
                 ; 0000 0904                         blink_locx =5;
001d09 e0e5      	LDI  R30,LOW(5)
001d0a c014      	RJMP _0x286
                 ; 0000 0905                         blink_locy =1;
                 ; 0000 0906                         break;
                 ; 0000 0907                 case 20:char_rate =  blink_data = abs(modbus_rate)%100;
                 _0x196:
001d0b 31e4      	CPI  R30,LOW(0x14)
001d0c e0a0      	LDI  R26,HIGH(0x14)
001d0d 07fa      	CPC  R31,R26
001d0e f4a1      	BRNE _0x182
001d0f 91a0 0309 	LDS  R26,_modbus_rate
001d11 91b0 030a 	LDS  R27,_modbus_rate+1
001d13 940e 2a1a 	CALL _abs
001d15 01df      	MOVW R26,R30
001d16 e6e4      	LDI  R30,LOW(100)
001d17 e0f0      	LDI  R31,HIGH(100)
001d18 940e 2ecd 	CALL __MODW21U
001d1a 93e0 02c9 	STS  _blink_data,R30
001d1c 93e0 02e8 	STS  _char_rate,R30
                 ; 0000 0908                         blink_locx = 7;
                 _0x287:
001d1e e0e7      	LDI  R30,LOW(7)
                 _0x286:
001d1f 2ece      	MOV  R12,R30
                 ; 0000 0909                         blink_locy =1;
                 _0x285:
001d20 e0e1      	LDI  R30,LOW(1)
001d21 93e0 02c8 	STS  _blink_locy,R30
                 ; 0000 090A                         break;                 }
                 _0x182:
                 ; 0000 090B         }
                 ; 0000 090C if (manual_fl)
                 _0x167:
001d23 fe52      	SBRS R5,2
001d24 c01b      	RJMP _0x198
                 ; 0000 090D     {
                 ; 0000 090E     lcd_gotoxy(0,0);
001d25 e0e0      	LDI  R30,LOW(0)
001d26 93ea      	ST   -Y,R30
001d27 e0a0      	LDI  R26,LOW(0)
001d28 940e 2b39 	CALL _lcd_gotoxy
                 ; 0000 090F                 lcd_putsf("* Manual Mode * ");
                +
001d2a eea6     +LDI R26 , LOW ( 2 * _0x0 + ( 360 ) )
001d2b e0b3     +LDI R27 , HIGH ( 2 * _0x0 + ( 360 ) )
                 	__POINTW2FN _0x0,360
001d2c 940e 2b89 	CALL _lcd_putsf
                 ; 0000 0910 
                 ; 0000 0911 //    lcd_putsf("manual mode");
                 ; 0000 0912     lcd_gotoxy(0,1);
001d2e e0e0      	LDI  R30,LOW(0)
001d2f 93ea      	ST   -Y,R30
001d30 e0a1      	LDI  R26,LOW(1)
001d31 940e 2b39 	CALL _lcd_gotoxy
                 ; 0000 0913     lcd_putsf("angle: ");
                +
001d33 e9ad     +LDI R26 , LOW ( 2 * _0x0 + ( 287 ) )
001d34 e0b3     +LDI R27 , HIGH ( 2 * _0x0 + ( 287 ) )
                 	__POINTW2FN _0x0,287
001d35 940e 2b89 	CALL _lcd_putsf
                 ; 0000 0914     display_angle(angle);
001d37 91a0 02f3 	LDS  R26,_angle
001d39 91b0 02f4 	LDS  R27,_angle+1
001d3b 940e 0d5d 	CALL _display_angle
                 ; 0000 0915     lcd_putchar(0);
001d3d e0a0      	LDI  R26,LOW(0)
001d3e 940e 2b62 	CALL _lcd_putchar
                 ; 0000 0916 
                 ; 0000 0917     }
                 ; 0000 0918 
                 ; 0000 0919 
                 ; 0000 091A }
                 _0x198:
001d40 9508      	RET
                 ; .FEND
                 ;
                 ;
                 ;
                 ;
                 ;/*
                 ;void mpu6050_init(void)
                 ;{
                 ;i2c_start();
                 ;i2c_write(0xd2);
                 ;delay_ms(1);
                 ;i2c_write(0x9c);   //18 bit mode 1v/v
                 ; i2c_stop();
                 ;}
                 ;
                 ;long int adc3421_read(void)
                 ;{
                 ; unsigned int buffer1;
                 ; unsigned int buffer2,buffer3;
                 ; long int buffer4;
                 ; i2c_start();
                 ; buffer1 = i2c_write(0xd3);
                 ; buffer1 = i2c_read(1);
                 ; buffer2 = i2c_read(1);
                 ; buffer3 = i2c_read(0);
                 ; i2c_stop();
                 ; buffer1 = buffer1 & 0x01;
                 ; buffer4 = (long) (buffer1) * 65536 ;
                 ; buffer4 = buffer4 + ((long)(buffer2) * 256);
                 ; buffer4 = buffer4 + (long)(buffer3);
                 ; return(buffer4);
                 ;//return ((long)rand()+32000);
                 ;}
                 ;
                 ;void write_2464(unsigned int address,char data1,char data2,char data3,char data4,char data5,char data6,char data7,char d ...
                 ;{
                 ;unsigned int adhi,adlo;
                 ;adhi = address/256;
                 ;adlo = address%256;
                 ;i2c_start();
                 ;i2c_write(0xa0);               // write command
                 ;i2c_write(adhi);
                 ;i2c_write(adlo);
                 ;i2c_write(data1);
                 ;i2c_write(data2);
                 ;i2c_write(data3);
                 ;i2c_write(data4);
                 ;i2c_write(data5);
                 ;i2c_write(data6);
                 ;i2c_write(data7);
                 ;i2c_write(data8);
                 ;i2c_write(data9);
                 ;i2c_write(data10);
                 ;i2c_write(data11);
                 ;i2c_write(data12);
                 ;i2c_write(data13);
                 ;i2c_write(data14);
                 ;delay_ms(1000);
                 ;
                 ;i2c_stop();
                 ;delay_ms(1);
                 ;}
                 ;*/
                 ;
                 ;/*
                 ;
                 ;void read_2464(int addr)
                 ;{
                 ;i2c_start();
                 ;i2c_write(0xa0);               // write command
                 ;i2c_write(addr/256);
                 ;i2c_write(addr%256);
                 ;//i2c_stop();
                 ;i2c_start();
                 ;i2c_write(0xa1);             //read address
                 ;record_buffer[0] = i2c_read(1);
                 ;record_buffer[1] = i2c_read(1);
                 ;record_buffer[2] = i2c_read(1);
                 ;record_buffer[3] = i2c_read(1);
                 ;record_buffer[4] = i2c_read(1);
                 ;record_buffer[5] = i2c_read(1);
                 ;record_buffer[6] = i2c_read(1);
                 ;record_buffer[7] = i2c_read(1);
                 ;record_buffer[8] = i2c_read(1);
                 ;record_buffer[9] = i2c_read(1);
                 ;record_buffer[10] = i2c_read(1);
                 ;record_buffer[11] = i2c_read(1);
                 ;record_buffer[12] = i2c_read(1);
                 ;record_buffer[13] = i2c_read(0);
                 ;i2c_stop();
                 ;}
                 ;
                 ;*/
                 ;
                 ;
                 ;void cal_angle(void)
                 ; 0000 097A {
                 _cal_angle:
                 ; .FSTART _cal_angle
                 ; 0000 097B //float sensitivity,angle_rad;
                 ; 0000 097C 
                 ; 0000 097D //sensitivity = span_adc - zero_adc;
                 ; 0000 097E //angle_rad = asin(((float)adc_angle - (float)zero_adc) /sensitivity);
                 ; 0000 097F //angle_sum = angle_sum + ((angle_rad * 572.957795) + 900) ;
                 ; 0000 0980 //angle=((angle_rad * 572.957795) + 900) ;
                 ; 0000 0981 if (read_adcfl)
001d41 fe44      	SBRS R4,4
001d42 c002      	RJMP _0x199
                 ; 0000 0982 {
                 ; 0000 0983 read_adcfl =0;
001d43 94e8      	CLT
001d44 f844      	BLD  R4,4
                 ; 0000 0984 //angle = adc_angle;
                 ; 0000 0985 }
                 ; 0000 0986 
                 ; 0000 0987 //angle_cnt++;
                 ; 0000 0988 /*
                 ; 0000 0989 if (angle_cnt >=4)
                 ; 0000 098A {
                 ; 0000 098B angle_cnt =0;
                 ; 0000 098C angle = angle_sum/4;
                 ; 0000 098D angle_sum =0;
                 ; 0000 098E }
                 ; 0000 098F *///angle = (float)adc_buffer - (float)zero_adc /sensitivity ;
                 ; 0000 0990 }
                 _0x199:
001d45 9508      	RET
                 ; .FEND
                 ;
                 ;void target_cal(void)
                 ; 0000 0993 {
                 _target_cal:
                 ; .FSTART _target_cal
                 ; 0000 0994 long  a;
                 ; 0000 0995 int y=1;
                 ; 0000 0996 time_elap = to_minute(hour,minute);      // convert real time to minutes
001d46 9724      	SBIW R28,4
001d47 931a      	ST   -Y,R17
001d48 930a      	ST   -Y,R16
                 ;	a -> Y+2
                 ;	y -> R16,R17
                +
001d49 e001     +LDI R16 , LOW ( 1 )
001d4a e010     +LDI R17 , HIGH ( 1 )
                 	__GETWRN 16,17,1
001d4b 927a      	ST   -Y,R7
001d4c 2da6      	MOV  R26,R6
001d4d 940e 0bb5 	CALL _to_minute
001d4f 93e0 02d6 	STS  _time_elap,R30
001d51 93f0 02d7 	STS  _time_elap+1,R31
                 ; 0000 0997 if (time_elap > sunrise_min)
001d53 91e0 0288 	LDS  R30,_sunrise_min
001d55 91f0 0289 	LDS  R31,_sunrise_min+1
001d57 9160 028a 	LDS  R22,_sunrise_min+2
001d59 9170 028b 	LDS  R23,_sunrise_min+3
001d5b 91a0 02d6 	LDS  R26,_time_elap
001d5d 91b0 02d7 	LDS  R27,_time_elap+1
001d5f 940e 2e54 	CALL __CWD2
001d61 940e 2f45 	CALL __CDF2
001d63 940e 2de2 	CALL __CMPF12
001d65 f009      	BREQ PC+2
001d66 f408      	BRCC PC+2
001d67 c1a9      	RJMP _0x19A
                 ; 0000 0998         {
                 ; 0000 0999         for (y=1;y<=150;y++)
                +
001d68 e001     +LDI R16 , LOW ( 1 )
001d69 e010     +LDI R17 , HIGH ( 1 )
                 	__GETWRN 16,17,1
                 _0x19C:
                +
001d6a 3907     +CPI R16 , LOW ( 151 )
001d6b e0e0     +LDI R30 , HIGH ( 151 )
001d6c 071e     +CPC R17 , R30
                 	__CPWRN 16,17,151
001d6d f00c      	BRLT PC+2
001d6e c043      	RJMP _0x19D
                 ; 0000 099A         {
                 ; 0000 099B         if (time_elap <= (sunrise_min +(time_interval*y)))
001d6f 01f8      	MOVW R30,R16
001d70 91a0 02d2 	LDS  R26,_time_interval
001d72 91b0 02d3 	LDS  R27,_time_interval+1
001d74 940e 2e81 	CALL __MULW12
001d76 91a0 0288 	LDS  R26,_sunrise_min
001d78 91b0 0289 	LDS  R27,_sunrise_min+1
001d7a 9180 028a 	LDS  R24,_sunrise_min+2
001d7c 9190 028b 	LDS  R25,_sunrise_min+3
001d7e 940e 2e4f 	CALL __CWD1
001d80 940e 2cc5 	CALL __CDF1
001d82 940e 2cff 	CALL __ADDF12
001d84 91a0 02d6 	LDS  R26,_time_elap
001d86 91b0 02d7 	LDS  R27,_time_elap+1
001d88 940e 2e54 	CALL __CWD2
001d8a 940e 2f45 	CALL __CDF2
001d8c 940e 2de2 	CALL __CMPF12
001d8e f011      	BREQ PC+3
001d8f f008      	BRCS PC+2
001d90 c01e      	RJMP _0x19E
                 ; 0000 099C                 {
                 ; 0000 099D                 target_time = sunrise_min +((long)(time_interval)*y);
001d91 91a0 02d2 	LDS  R26,_time_interval
001d93 91b0 02d3 	LDS  R27,_time_interval+1
001d95 940e 2e54 	CALL __CWD2
001d97 01f8      	MOVW R30,R16
001d98 940e 2e4f 	CALL __CWD1
001d9a 940e 2e86 	CALL __MULD12
001d9c 91a0 0288 	LDS  R26,_sunrise_min
001d9e 91b0 0289 	LDS  R27,_sunrise_min+1
001da0 9180 028a 	LDS  R24,_sunrise_min+2
001da2 9190 028b 	LDS  R25,_sunrise_min+3
001da4 940e 2cc5 	CALL __CDF1
001da6 940e 2cff 	CALL __ADDF12
001da8 eda4      	LDI  R26,LOW(_target_time)
001da9 e0b2      	LDI  R27,HIGH(_target_time)
001daa 940e 2c8e 	CALL __CFD1
001dac 93ed      	ST   X+,R30
001dad 93fc      	ST   X,R31
                 ; 0000 099E                 break;
001dae c003      	RJMP _0x19D
                 ; 0000 099F                 }
                 ; 0000 09A0         }
                 _0x19E:
                +
001daf 5f0f     +SUBI R16 , LOW ( - 1 )
001db0 4f1f     +SBCI R17 , HIGH ( - 1 )
                 	__ADDWRN 16,17,1
001db1 cfb8      	RJMP _0x19C
                 _0x19D:
                 ; 0000 09A1 
                 ; 0000 09A2         if (target_time > sunset_min) target_time = sunset_min;
001db2 91e0 028c 	LDS  R30,_sunset_min
001db4 91f0 028d 	LDS  R31,_sunset_min+1
001db6 9160 028e 	LDS  R22,_sunset_min+2
001db8 9170 028f 	LDS  R23,_sunset_min+3
001dba 91a0 02d4 	LDS  R26,_target_time
001dbc 91b0 02d5 	LDS  R27,_target_time+1
001dbe 940e 2e54 	CALL __CWD2
001dc0 940e 2f45 	CALL __CDF2
001dc2 940e 2de2 	CALL __CMPF12
001dc4 f009      	BREQ PC+2
001dc5 f408      	BRCC PC+2
001dc6 c00e      	RJMP _0x19F
001dc7 91e0 028c 	LDS  R30,_sunset_min
001dc9 91f0 028d 	LDS  R31,_sunset_min+1
001dcb 9160 028e 	LDS  R22,_sunset_min+2
001dcd 9170 028f 	LDS  R23,_sunset_min+3
001dcf eda4      	LDI  R26,LOW(_target_time)
001dd0 e0b2      	LDI  R27,HIGH(_target_time)
001dd1 940e 2c8e 	CALL __CFD1
001dd3 93ed      	ST   X+,R30
001dd4 93fc      	ST   X,R31
                 ; 0000 09A3         if (target_time < sunrise_min) target_time = sunrise_min;
                 _0x19F:
001dd5 91e0 0288 	LDS  R30,_sunrise_min
001dd7 91f0 0289 	LDS  R31,_sunrise_min+1
001dd9 9160 028a 	LDS  R22,_sunrise_min+2
001ddb 9170 028b 	LDS  R23,_sunrise_min+3
001ddd 91a0 02d4 	LDS  R26,_target_time
001ddf 91b0 02d5 	LDS  R27,_target_time+1
001de1 940e 2e54 	CALL __CWD2
001de3 940e 2f45 	CALL __CDF2
001de5 940e 2de2 	CALL __CMPF12
001de7 f470      	BRSH _0x1A0
001de8 91e0 0288 	LDS  R30,_sunrise_min
001dea 91f0 0289 	LDS  R31,_sunrise_min+1
001dec 9160 028a 	LDS  R22,_sunrise_min+2
001dee 9170 028b 	LDS  R23,_sunrise_min+3
001df0 eda4      	LDI  R26,LOW(_target_time)
001df1 e0b2      	LDI  R27,HIGH(_target_time)
001df2 940e 2c8e 	CALL __CFD1
001df4 93ed      	ST   X+,R30
001df5 93fc      	ST   X,R31
                 ; 0000 09A4 
                 ; 0000 09A5         a = target_time - sunrise_min;
                 _0x1A0:
001df6 91e0 0288 	LDS  R30,_sunrise_min
001df8 91f0 0289 	LDS  R31,_sunrise_min+1
001dfa 9160 028a 	LDS  R22,_sunrise_min+2
001dfc 9170 028b 	LDS  R23,_sunrise_min+3
001dfe 91a0 02d4 	LDS  R26,_target_time
001e00 91b0 02d5 	LDS  R27,_target_time+1
001e02 940e 2e54 	CALL __CWD2
001e04 940e 2f45 	CALL __CDF2
001e06 940e 2f48 	CALL __SWAPD12
001e08 940e 2cf8 	CALL __SUBF12
001e0a 01de      	MOVW R26,R28
001e0b 9612      	ADIW R26,2
001e0c 940e 2c8e 	CALL __CFD1
001e0e 940e 2f1c 	CALL __PUTDP1
                 ; 0000 09A6         sun_angle = ((1800 * a)/ (long)daytime)-900;
                +
001e10 81ea     +LDD R30 , Y + 2
001e11 81fb     +LDD R31 , Y + 2 + 1
001e12 816c     +LDD R22 , Y + 2 + 2
001e13 817d     +LDD R23 , Y + 2 + 3
                 	__GETD1S 2
                +
001e14 e0a8     +LDI R26 , LOW ( 0x708 )
001e15 e0b7     +LDI R27 , HIGH ( 0x708 )
001e16 e080     +LDI R24 , BYTE3 ( 0x708 )
001e17 e090     +LDI R25 , BYTE4 ( 0x708 )
                 	__GETD2N 0x708
001e18 940e 2e86 	CALL __MULD12
001e1a 01df      	MOVW R26,R30
001e1b 01cb      	MOVW R24,R22
001e1c 91e0 0284 	LDS  R30,_daytime
001e1e 91f0 0285 	LDS  R31,_daytime+1
001e20 9160 0286 	LDS  R22,_daytime+2
001e22 9170 0287 	LDS  R23,_daytime+3
001e24 940e 2c8e 	CALL __CFD1
001e26 940e 2ec8 	CALL __DIVD21
                +
001e28 58e4     +SUBI R30 , LOW ( 900 )
001e29 40f3     +SBCI R31 , HIGH ( 900 )
001e2a 4060     +SBCI R22 , BYTE3 ( 900 )
001e2b 4070     +SBCI R23 , BYTE4 ( 900 )
                 	__SUBD1N 900
001e2c 93e0 029c 	STS  _sun_angle,R30
001e2e 93f0 029d 	STS  _sun_angle+1,R31
001e30 9360 029e 	STS  _sun_angle+2,R22
001e32 9370 029f 	STS  _sun_angle+3,R23
                 ; 0000 09A7         backtrack();                     // routine for backtracking
001e34 d0e0      	RCALL _backtrack
                 ; 0000 09A8         target_angle = new_target;
001e35 91e0 030b 	LDS  R30,_new_target
001e37 91f0 030c 	LDS  R31,_new_target+1
001e39 940e 2e4f 	CALL __CWD1
001e3b 93e0 0298 	STS  _target_angle,R30
001e3d 93f0 0299 	STS  _target_angle+1,R31
001e3f 9360 029a 	STS  _target_angle+2,R22
001e41 9370 029b 	STS  _target_angle+3,R23
                 ; 0000 09A9         if (target_angle > high_angle) target_angle = high_angle;
001e43 91e0 02d0 	LDS  R30,_high_angle
001e45 91f0 02d1 	LDS  R31,_high_angle+1
001e47 91a0 0298 	LDS  R26,_target_angle
001e49 91b0 0299 	LDS  R27,_target_angle+1
001e4b 9180 029a 	LDS  R24,_target_angle+2
001e4d 9190 029b 	LDS  R25,_target_angle+3
001e4f 940e 2e4f 	CALL __CWD1
001e51 940e 2f94 	CALL __CPD12
001e53 f474      	BRGE _0x1A1
001e54 91e0 02d0 	LDS  R30,_high_angle
001e56 91f0 02d1 	LDS  R31,_high_angle+1
001e58 940e 2e4f 	CALL __CWD1
001e5a 93e0 0298 	STS  _target_angle,R30
001e5c 93f0 0299 	STS  _target_angle+1,R31
001e5e 9360 029a 	STS  _target_angle+2,R22
001e60 9370 029b 	STS  _target_angle+3,R23
                 ; 0000 09AA         if (target_angle < low_angle) target_angle = low_angle;
                 _0x1A1:
001e62 91e0 02ce 	LDS  R30,_low_angle
001e64 91f0 02cf 	LDS  R31,_low_angle+1
001e66 91a0 0298 	LDS  R26,_target_angle
001e68 91b0 0299 	LDS  R27,_target_angle+1
001e6a 9180 029a 	LDS  R24,_target_angle+2
001e6c 9190 029b 	LDS  R25,_target_angle+3
001e6e 940e 2e4f 	CALL __CWD1
001e70 940e 2f99 	CALL __CPD21
001e72 f474      	BRGE _0x1A2
001e73 91e0 02ce 	LDS  R30,_low_angle
001e75 91f0 02cf 	LDS  R31,_low_angle+1
001e77 940e 2e4f 	CALL __CWD1
001e79 93e0 0298 	STS  _target_angle,R30
001e7b 93f0 0299 	STS  _target_angle+1,R31
001e7d 9360 029a 	STS  _target_angle+2,R22
001e7f 9370 029b 	STS  _target_angle+3,R23
                 ; 0000 09AB // bring the panel to 90 degrees (horizontal position ) 10 minutes after sunset.
                 ; 0000 09AC // added to hardcode limit from 50 to 125 degrees for ravindra energy
                 ; 0000 09AD        if (target_angle > 600) target_angle = 600;
                 _0x1A2:
001e81 91a0 0298 	LDS  R26,_target_angle
001e83 91b0 0299 	LDS  R27,_target_angle+1
001e85 9180 029a 	LDS  R24,_target_angle+2
001e87 9190 029b 	LDS  R25,_target_angle+3
                +
001e89 35a9     +CPI R26 , LOW ( 0x259 )
001e8a e0e2     +LDI R30 , HIGH ( 0x259 )
001e8b 07be     +CPC R27 , R30
001e8c e0e0     +LDI R30 , BYTE3 ( 0x259 )
001e8d 078e     +CPC R24 , R30
001e8e e0e0     +LDI R30 , BYTE4 ( 0x259 )
001e8f 079e     +CPC R25 , R30
                 	__CPD2N 0x259
001e90 f064      	BRLT _0x1A3
                +
001e91 e5e8     +LDI R30 , LOW ( 0x258 )
001e92 e0f2     +LDI R31 , HIGH ( 0x258 )
001e93 e060     +LDI R22 , BYTE3 ( 0x258 )
001e94 e070     +LDI R23 , BYTE4 ( 0x258 )
                 	__GETD1N 0x258
001e95 93e0 0298 	STS  _target_angle,R30
001e97 93f0 0299 	STS  _target_angle+1,R31
001e99 9360 029a 	STS  _target_angle+2,R22
001e9b 9370 029b 	STS  _target_angle+3,R23
                 ; 0000 09AE        if (target_angle < -600) target_angle = -600;
                 _0x1A3:
001e9d 91a0 0298 	LDS  R26,_target_angle
001e9f 91b0 0299 	LDS  R27,_target_angle+1
001ea1 9180 029a 	LDS  R24,_target_angle+2
001ea3 9190 029b 	LDS  R25,_target_angle+3
                +
001ea5 3aa8     +CPI R26 , LOW ( 0xFFFFFDA8 )
001ea6 efed     +LDI R30 , HIGH ( 0xFFFFFDA8 )
001ea7 07be     +CPC R27 , R30
001ea8 efef     +LDI R30 , BYTE3 ( 0xFFFFFDA8 )
001ea9 078e     +CPC R24 , R30
001eaa efef     +LDI R30 , BYTE4 ( 0xFFFFFDA8 )
001eab 079e     +CPC R25 , R30
                 	__CPD2N 0xFFFFFDA8
001eac f464      	BRGE _0x1A4
                +
001ead eae8     +LDI R30 , LOW ( 0xFFFFFDA8 )
001eae effd     +LDI R31 , HIGH ( 0xFFFFFDA8 )
001eaf ef6f     +LDI R22 , BYTE3 ( 0xFFFFFDA8 )
001eb0 ef7f     +LDI R23 , BYTE4 ( 0xFFFFFDA8 )
                 	__GETD1N 0xFFFFFDA8
001eb1 93e0 0298 	STS  _target_angle,R30
001eb3 93f0 0299 	STS  _target_angle+1,R31
001eb5 9360 029a 	STS  _target_angle+2,R22
001eb7 9370 029b 	STS  _target_angle+3,R23
                 ; 0000 09AF /////////////////////remove this for other limits
                 ; 0000 09B0 
                 ; 0000 09B1         if ((time_elap < sunrise_min) || (time_elap>sunset_min))
                 _0x1A4:
001eb9 91e0 0288 	LDS  R30,_sunrise_min
001ebb 91f0 0289 	LDS  R31,_sunrise_min+1
001ebd 9160 028a 	LDS  R22,_sunrise_min+2
001ebf 9170 028b 	LDS  R23,_sunrise_min+3
001ec1 91a0 02d6 	LDS  R26,_time_elap
001ec3 91b0 02d7 	LDS  R27,_time_elap+1
001ec5 940e 2e54 	CALL __CWD2
001ec7 940e 2f45 	CALL __CDF2
001ec9 940e 2de2 	CALL __CMPF12
001ecb f0b0      	BRLO _0x1A6
001ecc 91e0 028c 	LDS  R30,_sunset_min
001ece 91f0 028d 	LDS  R31,_sunset_min+1
001ed0 9160 028e 	LDS  R22,_sunset_min+2
001ed2 9170 028f 	LDS  R23,_sunset_min+3
001ed4 91a0 02d6 	LDS  R26,_time_elap
001ed6 91b0 02d7 	LDS  R27,_time_elap+1
001ed8 940e 2e54 	CALL __CWD2
001eda 940e 2f45 	CALL __CDF2
001edc 940e 2de2 	CALL __CMPF12
001ede f011      	BREQ PC+3
001edf f008      	BRCS PC+2
001ee0 c001      	RJMP _0x1A6
001ee1 c01d      	RJMP _0x1A5
                 _0x1A6:
                 ; 0000 09B2             {
                 ; 0000 09B3             target_time = sunset_min+10;
001ee2 91e0 028c 	LDS  R30,_sunset_min
001ee4 91f0 028d 	LDS  R31,_sunset_min+1
001ee6 9160 028e 	LDS  R22,_sunset_min+2
001ee8 9170 028f 	LDS  R23,_sunset_min+3
                +
001eea e0a0     +LDI R26 , LOW ( 0x41200000 )
001eeb e0b0     +LDI R27 , HIGH ( 0x41200000 )
001eec e280     +LDI R24 , BYTE3 ( 0x41200000 )
001eed e491     +LDI R25 , BYTE4 ( 0x41200000 )
                 	__GETD2N 0x41200000
001eee 940e 2cff 	CALL __ADDF12
001ef0 eda4      	LDI  R26,LOW(_target_time)
001ef1 e0b2      	LDI  R27,HIGH(_target_time)
001ef2 940e 2c8e 	CALL __CFD1
001ef4 93ed      	ST   X+,R30
001ef5 93fc      	ST   X,R31
                 ; 0000 09B4             target_angle = 0;     // target angle is 0 degrees
001ef6 e0e0      	LDI  R30,LOW(0)
001ef7 93e0 0298 	STS  _target_angle,R30
001ef9 93e0 0299 	STS  _target_angle+1,R30
001efb 93e0 029a 	STS  _target_angle+2,R30
001efd 93e0 029b 	STS  _target_angle+3,R30
                 ; 0000 09B5             }
                 ; 0000 09B6 
                 ; 0000 09B7         if ((time_elap == target_time) && !start_fl && !end_fl)
                 _0x1A5:
001eff 91e0 02d4 	LDS  R30,_target_time
001f01 91f0 02d5 	LDS  R31,_target_time+1
001f03 91a0 02d6 	LDS  R26,_time_elap
001f05 91b0 02d7 	LDS  R27,_time_elap+1
001f07 17ea      	CP   R30,R26
001f08 07fb      	CPC  R31,R27
001f09 f421      	BRNE _0x1A9
001f0a fc25      	SBRC R2,5
001f0b c002      	RJMP _0x1A9
001f0c fe26      	SBRS R2,6
001f0d c001      	RJMP _0x1AA
                 _0x1A9:
001f0e c002      	RJMP _0x1A8
                 _0x1AA:
                 ; 0000 09B8         {
                 ; 0000 09B9         start_fl =1;
001f0f 9468      	SET
001f10 f825      	BLD  R2,5
                 ; 0000 09BA         }
                 ; 0000 09BB 
                 ; 0000 09BC         }
                 _0x1A8:
                 ; 0000 09BD }
                 _0x19A:
001f11 8119      	LDD  R17,Y+1
001f12 8108      	LDD  R16,Y+0
001f13 9626      	ADIW R28,6
001f14 9508      	RET
                 ; .FEND
                 ;
                 ;
                 ;/*
                 ;void current_control(int cur,int volt_limit,int PV_limit)
                 ;{
                 ;if (read_adcfl)                 // check if all adc readings over
                 ;{
                 ;read_adcfl =0;
                 ;if (adc_battery < volt_limit && adc_pvolt >= PV_limit)
                 ;{
                 ;
                 ;if (adc_chargecurrent < cur-1)
                 ;{
                 ;        if((adc_battery < volt_limit-50) &&(OCR1A < 500)) ocr_inc =10;
                 ;        else
                 ;        ocr_inc =1;
                 ;OCR1A+=ocr_inc;   //hysterisis of +/- 0.02A
                 ;}
                 ;if (adc_chargecurrent > cur+1 && OCR1A != 0x000)
                 ;{
                 ;        if((adc_battery > volt_limit+50)&&(OCR1A > 20)) ocr_inc =10;
                 ;        else
                 ;        ocr_inc =1;
                 ;OCR1A-=ocr_inc;
                 ;}
                 ;if (OCR1A > 500) OCR1A = 500;
                 ;}
                 ;else if(adc_pvolt<= adc_battery+200)
                 ;{
                 ;OCR1A -=10;
                 ;if (OCR1A < 200) OCR1A =200;
                 ;}
                 ;else
                 ;{
                 ;if ((OCR1A < 0x05) ||((adc_pvolt <=(adc_battery+200)) && trickle_fl && float_fl)) OCR1A -=ocr_inc;
                 ;}
                 ;}
                 ;}
                 ;
                 ;
                 ;void voltage_control(int vol,int cur_limit,int PV_limit)
                 ;{
                 ;if (read_adcfl)                 // check if all adc readings over
                 ;{
                 ;read_adcfl =0;
                 ;
                 ;
                 ;if(adc_chargecurrent < cur_limit && adc_pvolt >= PV_limit)
                 ;{
                 ;if (adc_battery <= vol-1)
                 ;{
                 ;        if((adc_battery < vol-50)&&(OCR1A < 500)) ocr_inc =10;
                 ;        else
                 ;        ocr_inc =1;
                 ;
                 ;OCR1A+=ocr_inc;   //hysterisis of +/- 0.02A
                 ;}
                 ;if (adc_battery > vol+1 && (OCR1A !=0x000))
                 ;{
                 ;        if ((adc_battery > vol+50)&&(OCR1A > 20)) ocr_inc =10;
                 ;        else
                 ;        ocr_inc =1;
                 ;
                 ;
                 ;OCR1A-=ocr_inc;
                 ;}
                 ;if (OCR1A > 500) OCR1A = 500;
                 ;}
                 ;else if(adc_pvolt<= adc_battery + 200)
                 ;{
                 ;OCR1A-=10;
                 ;if (OCR1A < 200) OCR1A =200;
                 ;}
                 ;else
                 ;{
                 ;if ((OCR1A <= 0x05) || ((adc_pvolt <= (adc_battery+200))) && trickle_fl && float_fl) OCR1A-=1;
                 ;}
                 ;}
                 ;}
                 ;
                 ;
                 ;
                 ;void battery_control(void)
                 ;{
                 ;//int a;
                 ;if (boost_fl)
                 ;{
                 ;//a = to_min(set_boost_timeout);
                 ;control_buck_on();
                 ;current_control(boost_current,boost_voltage,adc_battery + 100);
                 ;if ((adc_battery >= boost_voltage) || (boost_time >= boost_timeout))
                 ;{
                 ;boost_fl=0;
                 ;float_fl =1;
                 ;trickle_fl =0;
                 ;}
                 ;}
                 ;
                 ;if (float_fl)
                 ;{
                 ;//a= set_float_timeout;
                 ;control_buck_on();
                 ;voltage_control(boost_voltage,boost_current,adc_battery+100);
                 ;if (((adc_chargecurrent < set_capacity/50) && (adc_battery >=equal_voltage))||(float_time > float_timeout))              ...
                 ;{
                 ;boost_fl =0;
                 ;float_fl =0;
                 ;trickle_fl =1;
                 ;}
                 ;}
                 ;if (trickle_fl)
                 ;{
                 ;control_buck_on();
                 ;voltage_control(equal_voltage,trickle_current,adc_battery+100);
                 ;if (adc_battery < cutoff_voltage)
                 ;{
                 ;boost_fl =1;
                 ;trickle_fl =0;
                 ;float_fl=0;
                 ;}
                 ;}
                 ;}
                 ;*/
                 ;/*
                 ;void check_lowbat(void)
                 ;{
                 ;if (adc_battery < cutoff_voltage)
                 ;bat_cur =1;         // turn off load output
                 ;if (adc_battery > cutoff_voltage+100)
                 ;bat_cur =0;
                 ;}
                 ;*/
                 ;
                 ;void backtrack(void)
                 ; 0000 0A44 {
                 _backtrack:
                 ; .FSTART _backtrack
                 ; 0000 0A45 float b,gamma,rad;
                 ; 0000 0A46 rad = (sun_angle+900) * pi/1800;
001f15 972c      	SBIW R28,12
                 ;	b -> Y+8
                 ;	gamma -> Y+4
                 ;	rad -> Y+0
001f16 91e0 029c 	LDS  R30,_sun_angle
001f18 91f0 029d 	LDS  R31,_sun_angle+1
001f1a 9160 029e 	LDS  R22,_sun_angle+2
001f1c 9170 029f 	LDS  R23,_sun_angle+3
                +
001f1e 57ec     +SUBI R30 , LOW ( - 900 )
001f1f 4ffc     +SBCI R31 , HIGH ( - 900 )
001f20 4f6f     +SBCI R22 , BYTE3 ( - 900 )
001f21 4f7f     +SBCI R23 , BYTE4 ( - 900 )
                 	__ADDD1N 900
001f22 01df      	MOVW R26,R30
001f23 01cb      	MOVW R24,R22
001f24 91e0 0260 	LDS  R30,_pi
001f26 91f0 0261 	LDS  R31,_pi+1
001f28 9160 0262 	LDS  R22,_pi+2
001f2a 9170 0263 	LDS  R23,_pi+3
001f2c 940e 2f45 	CALL __CDF2
001f2e 940e 2d4f 	CALL __MULF12
001f30 01df      	MOVW R26,R30
001f31 01cb      	MOVW R24,R22
                +
001f32 e0e0     +LDI R30 , LOW ( 0x44E10000 )
001f33 e0f0     +LDI R31 , HIGH ( 0x44E10000 )
001f34 ee61     +LDI R22 , BYTE3 ( 0x44E10000 )
001f35 e474     +LDI R23 , BYTE4 ( 0x44E10000 )
                 	__GETD1N 0x44E10000
001f36 940e 2d9d 	CALL __DIVF21
001f38 940e 2f34 	CALL __PUTD1S0
                 ; 0000 0A47 
                 ; 0000 0A48 
                 ; 0000 0A49 b= set_distance * sin(rad)/ set_width;
001f3a 940e 2f2f 	CALL __GETD2S0
001f3c 940e 2793 	CALL _sin
001f3e 91a0 0303 	LDS  R26,_set_distance
001f40 91b0 0304 	LDS  R27,_set_distance+1
001f42 940e 2e54 	CALL __CWD2
001f44 940e 2f45 	CALL __CDF2
001f46 940e 2d4f 	CALL __MULF12
001f48 01df      	MOVW R26,R30
001f49 01cb      	MOVW R24,R22
001f4a 91e0 0305 	LDS  R30,_set_width
001f4c 91f0 0306 	LDS  R31,_set_width+1
001f4e 940e 2e4f 	CALL __CWD1
001f50 940e 2cc5 	CALL __CDF1
001f52 940e 2d9d 	CALL __DIVF21
                +
001f54 87e8     +STD Y + 8 , R30
001f55 87f9     +STD Y + 8 + 1 , R31
001f56 876a     +STD Y + 8 + 2 , R22
001f57 877b     +STD Y + 8 + 3 , R23
                 	__PUTD1S 8
                 ; 0000 0A4A b_factor =b*100;
                +
001f58 85a8     +LDD R26 , Y + 8
001f59 85b9     +LDD R27 , Y + 8 + 1
001f5a 858a     +LDD R24 , Y + 8 + 2
001f5b 859b     +LDD R25 , Y + 8 + 3
                 	__GETD2S 8
                +
001f5c e0e0     +LDI R30 , LOW ( 0x42C80000 )
001f5d e0f0     +LDI R31 , HIGH ( 0x42C80000 )
001f5e ec68     +LDI R22 , BYTE3 ( 0x42C80000 )
001f5f e472     +LDI R23 , BYTE4 ( 0x42C80000 )
                 	__GETD1N 0x42C80000
001f60 940e 2d4f 	CALL __MULF12
001f62 e0ad      	LDI  R26,LOW(_b_factor)
001f63 e0b3      	LDI  R27,HIGH(_b_factor)
001f64 940e 2c8e 	CALL __CFD1
001f66 93ed      	ST   X+,R30
001f67 93fc      	ST   X,R31
                 ; 0000 0A4B if (b<1)
                +
001f68 85a8     +LDD R26 , Y + 8
001f69 85b9     +LDD R27 , Y + 8 + 1
001f6a 858a     +LDD R24 , Y + 8 + 2
001f6b 859b     +LDD R25 , Y + 8 + 3
                 	__GETD2S 8
                +
001f6c e0e0     +LDI R30 , LOW ( 0x3F800000 )
001f6d e0f0     +LDI R31 , HIGH ( 0x3F800000 )
001f6e e860     +LDI R22 , BYTE3 ( 0x3F800000 )
001f6f e37f     +LDI R23 , BYTE4 ( 0x3F800000 )
                 	__GETD1N 0x3F800000
001f70 940e 2de2 	CALL __CMPF12
001f72 f008      	BRLO PC+2
001f73 c062      	RJMP _0x1AB
                 ; 0000 0A4C     {
                 ; 0000 0A4D     gamma = asin(b)*1800/pi;
001f74 940e 2915 	CALL _asin
                +
001f76 e0a0     +LDI R26 , LOW ( 0x44E10000 )
001f77 e0b0     +LDI R27 , HIGH ( 0x44E10000 )
001f78 ee81     +LDI R24 , BYTE3 ( 0x44E10000 )
001f79 e494     +LDI R25 , BYTE4 ( 0x44E10000 )
                 	__GETD2N 0x44E10000
001f7a 940e 2d4f 	CALL __MULF12
001f7c 01df      	MOVW R26,R30
001f7d 01cb      	MOVW R24,R22
001f7e 91e0 0260 	LDS  R30,_pi
001f80 91f0 0261 	LDS  R31,_pi+1
001f82 9160 0262 	LDS  R22,_pi+2
001f84 9170 0263 	LDS  R23,_pi+3
001f86 940e 2d9d 	CALL __DIVF21
                +
001f88 83ec     +STD Y + 4 , R30
001f89 83fd     +STD Y + 4 + 1 , R31
001f8a 836e     +STD Y + 4 + 2 , R22
001f8b 837f     +STD Y + 4 + 3 , R23
                 	__PUTD1S 4
                 ; 0000 0A4E 
                 ; 0000 0A4F     gangle = gamma;
001f8c e0af      	LDI  R26,LOW(_gangle)
001f8d e0b3      	LDI  R27,HIGH(_gangle)
001f8e 940e 2c8e 	CALL __CFD1
001f90 93ed      	ST   X+,R30
001f91 93fc      	ST   X,R31
                 ; 0000 0A50     if (sun_angle >= 0)         //evening
001f92 91a0 029f 	LDS  R26,_sun_angle+3
001f94 23aa      	TST  R26
001f95 f0aa      	BRMI _0x1AC
                 ; 0000 0A51         {
                 ; 0000 0A52         new_target = 0 -(1800 - gamma -sun_angle-900);
                +
001f96 81ac     +LDD R26 , Y + 4
001f97 81bd     +LDD R27 , Y + 4 + 1
001f98 818e     +LDD R24 , Y + 4 + 2
001f99 819f     +LDD R25 , Y + 4 + 3
                 	__GETD2S 4
                +
001f9a e0e0     +LDI R30 , LOW ( 0x44E10000 )
001f9b e0f0     +LDI R31 , HIGH ( 0x44E10000 )
001f9c ee61     +LDI R22 , BYTE3 ( 0x44E10000 )
001f9d e474     +LDI R23 , BYTE4 ( 0x44E10000 )
                 	__GETD1N 0x44E10000
001f9e 940e 2cf8 	CALL __SUBF12
001fa0 01df      	MOVW R26,R30
001fa1 01cb      	MOVW R24,R22
001fa2 91e0 029c 	LDS  R30,_sun_angle
001fa4 91f0 029d 	LDS  R31,_sun_angle+1
001fa6 9160 029e 	LDS  R22,_sun_angle+2
001fa8 9170 029f 	LDS  R23,_sun_angle+3
001faa c00c      	RJMP _0x288
                 ; 0000 0A53         }
                 ; 0000 0A54     else
                 _0x1AC:
                 ; 0000 0A55         {
                 ; 0000 0A56         new_target =0 -(gamma - sun_angle-900);
001fab 91e0 029c 	LDS  R30,_sun_angle
001fad 91f0 029d 	LDS  R31,_sun_angle+1
001faf 9160 029e 	LDS  R22,_sun_angle+2
001fb1 9170 029f 	LDS  R23,_sun_angle+3
                +
001fb3 81ac     +LDD R26 , Y + 4
001fb4 81bd     +LDD R27 , Y + 4 + 1
001fb5 818e     +LDD R24 , Y + 4 + 2
001fb6 819f     +LDD R25 , Y + 4 + 3
                 	__GETD2S 4
                 _0x288:
001fb7 940e 2cc5 	CALL __CDF1
001fb9 940e 2f48 	CALL __SWAPD12
001fbb 940e 2cf8 	CALL __SUBF12
001fbd 01df      	MOVW R26,R30
001fbe 01cb      	MOVW R24,R22
                +
001fbf e0e0     +LDI R30 , LOW ( 0x44610000 )
001fc0 e0f0     +LDI R31 , HIGH ( 0x44610000 )
001fc1 e661     +LDI R22 , BYTE3 ( 0x44610000 )
001fc2 e474     +LDI R23 , BYTE4 ( 0x44610000 )
                 	__GETD1N 0x44610000
001fc3 940e 2f48 	CALL __SWAPD12
001fc5 940e 2cf8 	CALL __SUBF12
                +
001fc7 e0a0     +LDI R26 , LOW ( 0x0 )
001fc8 e0b0     +LDI R27 , HIGH ( 0x0 )
001fc9 e080     +LDI R24 , BYTE3 ( 0x0 )
001fca e090     +LDI R25 , BYTE4 ( 0x0 )
                 	__GETD2N 0x0
001fcb 940e 2f48 	CALL __SWAPD12
001fcd 940e 2cf8 	CALL __SUBF12
001fcf e0ab      	LDI  R26,LOW(_new_target)
001fd0 e0b3      	LDI  R27,HIGH(_new_target)
001fd1 940e 2c8e 	CALL __CFD1
001fd3 93ed      	ST   X+,R30
001fd4 93fc      	ST   X,R31
                 ; 0000 0A57         }
                 ; 0000 0A58     }
                 ; 0000 0A59 else
001fd5 c008      	RJMP _0x1AE
                 _0x1AB:
                 ; 0000 0A5A     {
                 ; 0000 0A5B     new_target = sun_angle;
001fd6 91e0 029c 	LDS  R30,_sun_angle
001fd8 91f0 029d 	LDS  R31,_sun_angle+1
001fda 93e0 030b 	STS  _new_target,R30
001fdc 93f0 030c 	STS  _new_target+1,R31
                 ; 0000 0A5C     }
                 _0x1AE:
                 ; 0000 0A5D }
001fde 962c      	ADIW R28,12
001fdf 9508      	RET
                 ; .FEND
                 ;
                 ;// External Interrupt 0 service routine
                 ;interrupt [EXT_INT0] void ext_int0_isr(void)
                 ; 0000 0A61 {
                 _ext_int0_isr:
                 ; .FSTART _ext_int0_isr
001fe0 920a      	ST   -Y,R0
001fe1 921a      	ST   -Y,R1
001fe2 92fa      	ST   -Y,R15
001fe3 936a      	ST   -Y,R22
001fe4 937a      	ST   -Y,R23
001fe5 938a      	ST   -Y,R24
001fe6 939a      	ST   -Y,R25
001fe7 93aa      	ST   -Y,R26
001fe8 93ba      	ST   -Y,R27
001fe9 93ea      	ST   -Y,R30
001fea 93fa      	ST   -Y,R31
001feb b7ef      	IN   R30,SREG
001fec 93ea      	ST   -Y,R30
                 ; 0000 0A62 int night_time;
                 ; 0000 0A63 //#asm("wdr")
                 ; 0000 0A64 time_cnt1++;
001fed 931a      	ST   -Y,R17
001fee 930a      	ST   -Y,R16
                 ;	night_time -> R16,R17
001fef ebac      	LDI  R26,LOW(_time_cnt1)
001ff0 e0b2      	LDI  R27,HIGH(_time_cnt1)
001ff1 91ed      	LD   R30,X+
001ff2 91fd      	LD   R31,X+
001ff3 9631      	ADIW R30,1
001ff4 93fe      	ST   -X,R31
001ff5 93ee      	ST   -X,R30
                 ; 0000 0A65 //if(time_cnt1>=10)   //20 seconds record printout
                 ; 0000 0A66 //    {
                 ; 0000 0A67 //    time_cnt1=0;
                 ; 0000 0A68 //    print_fl=1;
                 ; 0000 0A69 //    }
                 ; 0000 0A6A time_cnt++;
001ff6 ebaa      	LDI  R26,LOW(_time_cnt)
001ff7 e0b2      	LDI  R27,HIGH(_time_cnt)
001ff8 91ed      	LD   R30,X+
001ff9 91fd      	LD   R31,X+
001ffa 9631      	ADIW R30,1
001ffb 93fe      	ST   -X,R31
001ffc 93ee      	ST   -X,R30
                 ; 0000 0A6B if (time_cnt>=1800)     //execute every 30minutes to save rtc value for backup
001ffd 91a0 02ba 	LDS  R26,_time_cnt
001fff 91b0 02bb 	LDS  R27,_time_cnt+1
002001 30a8      	CPI  R26,LOW(0x708)
002002 e0e7      	LDI  R30,HIGH(0x708)
002003 07be      	CPC  R27,R30
002004 f140      	BRLO _0x1AF
                 ; 0000 0A6C {
                 ; 0000 0A6D time_cnt =0;
002005 e0e0      	LDI  R30,LOW(0)
002006 93e0 02ba 	STS  _time_cnt,R30
002008 93e0 02bb 	STS  _time_cnt+1,R30
                 ; 0000 0A6E e_day = day;
00200a 2deb      	MOV  R30,R11
00200b e1a9      	LDI  R26,LOW(_e_day)
00200c e0b0      	LDI  R27,HIGH(_e_day)
00200d 940e 2f79 	CALL __EEPROMWRB
                 ; 0000 0A6F e_week =week;
00200f 2de8      	MOV  R30,R8
002010 e1a7      	LDI  R26,LOW(_e_week)
002011 e0b0      	LDI  R27,HIGH(_e_week)
002012 940e 2f79 	CALL __EEPROMWRB
                 ; 0000 0A70 e_year = year;
002014 2ded      	MOV  R30,R13
002015 e1aa      	LDI  R26,LOW(_e_year)
002016 e0b0      	LDI  R27,HIGH(_e_year)
002017 940e 2f79 	CALL __EEPROMWRB
                 ; 0000 0A71 e_month =month;
002019 2dea      	MOV  R30,R10
00201a e1a8      	LDI  R26,LOW(_e_month)
00201b e0b0      	LDI  R27,HIGH(_e_month)
00201c 940e 2f79 	CALL __EEPROMWRB
                 ; 0000 0A72 e_hour = hour;
00201e 2de7      	MOV  R30,R7
00201f e1a4      	LDI  R26,LOW(_e_hour)
002020 e0b0      	LDI  R27,HIGH(_e_hour)
002021 940e 2f79 	CALL __EEPROMWRB
                 ; 0000 0A73 e_minute = minute;
002023 2de6      	MOV  R30,R6
002024 e1a5      	LDI  R26,LOW(_e_minute)
002025 e0b0      	LDI  R27,HIGH(_e_minute)
002026 940e 2f79 	CALL __EEPROMWRB
                 ; 0000 0A74 e_second = second;
002028 2de9      	MOV  R30,R9
002029 e1a6      	LDI  R26,LOW(_e_second)
00202a e0b0      	LDI  R27,HIGH(_e_second)
00202b 940e 2f79 	CALL __EEPROMWRB
                 ; 0000 0A75 }
                 ; 0000 0A76 // Place your code here
                 ; 0000 0A77 rise_set((long)(day),(long)(month),(long)year+2000,12,(float)(set_latit)/100,(float)(set_longitude)/100,(float)(set_time ...
                 _0x1AF:
00202d 2deb      	MOV  R30,R11
00202e 27ff      	CLR  R31
00202f 2766      	CLR  R22
002030 2777      	CLR  R23
002031 940e 2cc5 	CALL __CDF1
002033 940e 2f39 	CALL __PUTPARD1
002035 2dea      	MOV  R30,R10
002036 27ff      	CLR  R31
002037 2766      	CLR  R22
002038 2777      	CLR  R23
002039 940e 2cc5 	CALL __CDF1
00203b 940e 2f39 	CALL __PUTPARD1
00203d 2ded      	MOV  R30,R13
00203e 27ff      	CLR  R31
00203f 2766      	CLR  R22
002040 2777      	CLR  R23
                +
002041 53e0     +SUBI R30 , LOW ( - 2000 )
002042 4ff8     +SBCI R31 , HIGH ( - 2000 )
002043 4f6f     +SBCI R22 , BYTE3 ( - 2000 )
002044 4f7f     +SBCI R23 , BYTE4 ( - 2000 )
                 	__ADDD1N 2000
002045 940e 2cc5 	CALL __CDF1
002047 940e 2f39 	CALL __PUTPARD1
                +
002049 e0e0     +LDI R30 , LOW ( 0x41400000 )
00204a e0f0     +LDI R31 , HIGH ( 0x41400000 )
00204b e460     +LDI R22 , BYTE3 ( 0x41400000 )
00204c e471     +LDI R23 , BYTE4 ( 0x41400000 )
                 	__GETD1N 0x41400000
00204d 940e 2f39 	CALL __PUTPARD1
00204f 91e0 02ca 	LDS  R30,_set_latit
002051 91f0 02cb 	LDS  R31,_set_latit+1
002053 940e 2e4f 	CALL __CWD1
002055 940e 2cc5 	CALL __CDF1
002057 01df      	MOVW R26,R30
002058 01cb      	MOVW R24,R22
                +
002059 e0e0     +LDI R30 , LOW ( 0x42C80000 )
00205a e0f0     +LDI R31 , HIGH ( 0x42C80000 )
00205b ec68     +LDI R22 , BYTE3 ( 0x42C80000 )
00205c e472     +LDI R23 , BYTE4 ( 0x42C80000 )
                 	__GETD1N 0x42C80000
00205d 940e 2d9d 	CALL __DIVF21
00205f 940e 2f39 	CALL __PUTPARD1
002061 91e0 02cc 	LDS  R30,_set_longitude
002063 91f0 02cd 	LDS  R31,_set_longitude+1
002065 940e 2e4f 	CALL __CWD1
002067 940e 2cc5 	CALL __CDF1
002069 01df      	MOVW R26,R30
00206a 01cb      	MOVW R24,R22
                +
00206b e0e0     +LDI R30 , LOW ( 0x42C80000 )
00206c e0f0     +LDI R31 , HIGH ( 0x42C80000 )
00206d ec68     +LDI R22 , BYTE3 ( 0x42C80000 )
00206e e472     +LDI R23 , BYTE4 ( 0x42C80000 )
                 	__GETD1N 0x42C80000
00206f 940e 2d9d 	CALL __DIVF21
002071 940e 2f39 	CALL __PUTPARD1
002073 91e0 02d8 	LDS  R30,_set_timezone
002075 91f0 02d9 	LDS  R31,_set_timezone+1
002077 940e 2e4f 	CALL __CWD1
002079 940e 2cc5 	CALL __CDF1
00207b 01df      	MOVW R26,R30
00207c 01cb      	MOVW R24,R22
                +
00207d e0e0     +LDI R30 , LOW ( 0x42C80000 )
00207e e0f0     +LDI R31 , HIGH ( 0x42C80000 )
00207f ec68     +LDI R22 , BYTE3 ( 0x42C80000 )
002080 e472     +LDI R23 , BYTE4 ( 0x42C80000 )
                 	__GETD1N 0x42C80000
002081 940e 2d9d 	CALL __DIVF21
002083 01df      	MOVW R26,R30
002084 01cb      	MOVW R24,R22
002085 940e 0906 	CALL _rise_set
                 ; 0000 0A78 // Place your code here
                 ; 0000 0A79 if (mode ==0)
002087 91e0 02ac 	LDS  R30,_mode
002089 91f0 02ad 	LDS  R31,_mode+1
00208b 9730      	SBIW R30,0
00208c f4e1      	BRNE _0x1B0
                 ; 0000 0A7A {
                 ; 0000 0A7B /*log_cnt++;
                 ; 0000 0A7C if(log_cnt >= log_interval)
                 ; 0000 0A7D {
                 ; 0000 0A7E log_cnt =0;
                 ; 0000 0A7F if(log_fl) print_realtime();
                 ; 0000 0A80 }
                 ; 0000 0A81 */
                 ; 0000 0A82 rtc_get_time(&hour,&minute,&second);
00208d e0e7      	LDI  R30,LOW(7)
00208e e0f0      	LDI  R31,HIGH(7)
00208f 93fa      	ST   -Y,R31
002090 93ea      	ST   -Y,R30
002091 e0e6      	LDI  R30,LOW(6)
002092 e0f0      	LDI  R31,HIGH(6)
002093 93fa      	ST   -Y,R31
002094 93ea      	ST   -Y,R30
002095 e0a9      	LDI  R26,LOW(9)
002096 e0b0      	LDI  R27,HIGH(9)
002097 940e 2a47 	CALL _rtc_get_time
                 ; 0000 0A83  //               if (hour <0 || hour >24) rtc_err=1;         //added for rtc error
                 ; 0000 0A84 
                 ; 0000 0A85 rtc_get_date(&week,&day,&month,&year);   //pdi is weekday not used only for cvavr2.05
002099 e0e8      	LDI  R30,LOW(8)
00209a e0f0      	LDI  R31,HIGH(8)
00209b 93fa      	ST   -Y,R31
00209c 93ea      	ST   -Y,R30
00209d e0eb      	LDI  R30,LOW(11)
00209e e0f0      	LDI  R31,HIGH(11)
00209f 93fa      	ST   -Y,R31
0020a0 93ea      	ST   -Y,R30
0020a1 e0ea      	LDI  R30,LOW(10)
0020a2 e0f0      	LDI  R31,HIGH(10)
0020a3 93fa      	ST   -Y,R31
0020a4 93ea      	ST   -Y,R30
0020a5 e0ad      	LDI  R26,LOW(13)
0020a6 e0b0      	LDI  R27,HIGH(13)
0020a7 940e 2a96 	CALL _rtc_get_date
                 ; 0000 0A86 //adc_buffer = adc_angle = mpu6050_read();
                 ; 0000 0A87 }
                 ; 0000 0A88 //if (boost_fl) boost_time++;
                 ; 0000 0A89 //if (float_fl) float_time++;
                 ; 0000 0A8A adc_fl =1;
                 _0x1B0:
0020a9 9468      	SET
0020aa f843      	BLD  R4,3
                 ; 0000 0A8B led2=~relay1;
0020ab 9b97      	SBIS 0x12,7
0020ac c002      	RJMP _0x1B1
0020ad 98ac      	CBI  0x15,4
0020ae c001      	RJMP _0x1B2
                 _0x1B1:
0020af 9aac      	SBI  0x15,4
                 _0x1B2:
                 ; 0000 0A8C led1=~relay2;
0020b0 9ba8      	SBIS 0x15,0
0020b1 c002      	RJMP _0x1B3
0020b2 9893      	CBI  0x12,3
0020b3 c001      	RJMP _0x1B4
                 _0x1B3:
0020b4 9a93      	SBI  0x12,3
                 _0x1B4:
                 ; 0000 0A8D //led3=~err_fl;
                 ; 0000 0A8E //led4= ~(boost_fl | float_fl) ;
                 ; 0000 0A8F //led5= ~trickle_fl;
                 ; 0000 0A90 //if (adc_battery < cutoff_voltage) led6 =0;
                 ; 0000 0A91 //else led6 =1;
                 ; 0000 0A92 led_blinkfl = ~ led_blinkfl;
0020b5 e4e0      	LDI  R30,LOW(64)
0020b6 263e      	EOR  R3,R30
                 ; 0000 0A93 
                 ; 0000 0A94 //display_update();
                 ; 0000 0A95 bright_cnt++;
0020b7 eba2      	LDI  R26,LOW(_bright_cnt)
0020b8 e0b2      	LDI  R27,HIGH(_bright_cnt)
0020b9 91ed      	LD   R30,X+
0020ba 91fd      	LD   R31,X+
0020bb 9631      	ADIW R30,1
0020bc 93fe      	ST   -X,R31
0020bd 93ee      	ST   -X,R30
                 ; 0000 0A96 if (bright_cnt > 20) bright_cnt =20;
0020be 91a0 02b2 	LDS  R26,_bright_cnt
0020c0 91b0 02b3 	LDS  R27,_bright_cnt+1
0020c2 9755      	SBIW R26,21
0020c3 f034      	BRLT _0x1B5
0020c4 e1e4      	LDI  R30,LOW(20)
0020c5 e0f0      	LDI  R31,HIGH(20)
0020c6 93e0 02b2 	STS  _bright_cnt,R30
0020c8 93f0 02b3 	STS  _bright_cnt+1,R31
                 ; 0000 0A97 if (bright_cnt<20 ) backlight =0;         // not valid for low battery
                 _0x1B5:
0020ca 91a0 02b2 	LDS  R26,_bright_cnt
0020cc 91b0 02b3 	LDS  R27,_bright_cnt+1
0020ce 9754      	SBIW R26,20
                 ; 0000 0A98 else backlight =0;
                 _0x289:
0020cf 98c3      	CBI  0x18,3
                 ; 0000 0A99 program_timeout++;
0020d0 eaa8      	LDI  R26,LOW(_program_timeout)
0020d1 e0b2      	LDI  R27,HIGH(_program_timeout)
0020d2 940e 2f17 	CALL __GETD1P_INC
                +
0020d4 5fef     +SUBI R30 , LOW ( - 1 )
0020d5 4fff     +SBCI R31 , HIGH ( - 1 )
0020d6 4f6f     +SBCI R22 , BYTE3 ( - 1 )
0020d7 4f7f     +SBCI R23 , BYTE4 ( - 1 )
                 	__SUBD1N -1
0020d8 940e 2f21 	CALL __PUTDP1_DEC
                 ; 0000 0A9A if (program_timeout >=30) program_timeout =30;
0020da 91a0 02a8 	LDS  R26,_program_timeout
0020dc 91b0 02a9 	LDS  R27,_program_timeout+1
0020de 9180 02aa 	LDS  R24,_program_timeout+2
0020e0 9190 02ab 	LDS  R25,_program_timeout+3
                +
0020e2 31ae     +CPI R26 , LOW ( 0x1E )
0020e3 e0e0     +LDI R30 , HIGH ( 0x1E )
0020e4 07be     +CPC R27 , R30
0020e5 e0e0     +LDI R30 , BYTE3 ( 0x1E )
0020e6 078e     +CPC R24 , R30
0020e7 e0e0     +LDI R30 , BYTE4 ( 0x1E )
0020e8 079e     +CPC R25 , R30
                 	__CPD2N 0x1E
0020e9 f064      	BRLT _0x1BC
                +
0020ea e1ee     +LDI R30 , LOW ( 0x1E )
0020eb e0f0     +LDI R31 , HIGH ( 0x1E )
0020ec e060     +LDI R22 , BYTE3 ( 0x1E )
0020ed e070     +LDI R23 , BYTE4 ( 0x1E )
                 	__GETD1N 0x1E
0020ee 93e0 02a8 	STS  _program_timeout,R30
0020f0 93f0 02a9 	STS  _program_timeout+1,R31
0020f2 9360 02aa 	STS  _program_timeout+2,R22
0020f4 9370 02ab 	STS  _program_timeout+3,R23
                 ; 0000 0A9B if (program_timeout ==29)
                 _0x1BC:
0020f6 91a0 02a8 	LDS  R26,_program_timeout
0020f8 91b0 02a9 	LDS  R27,_program_timeout+1
0020fa 9180 02aa 	LDS  R24,_program_timeout+2
0020fc 9190 02ab 	LDS  R25,_program_timeout+3
                +
0020fe 31ad     +CPI R26 , LOW ( 0x1D )
0020ff e0e0     +LDI R30 , HIGH ( 0x1D )
002100 07be     +CPC R27 , R30
002101 e0e0     +LDI R30 , BYTE3 ( 0x1D )
002102 078e     +CPC R24 , R30
002103 e0e0     +LDI R30 , BYTE4 ( 0x1D )
002104 079e     +CPC R25 , R30
                 	__CPD2N 0x1D
002105 f411      	BRNE _0x1BD
                 ; 0000 0A9C clear_to_default();     //reset to normal mode if no key is pressed for more than 29 seconds.
002106 940e 0b7d 	CALL _clear_to_default
                 ; 0000 0A9D 
                 ; 0000 0A9E if (end_fl)
                 _0x1BD:
002108 fe26      	SBRS R2,6
002109 c014      	RJMP _0x1BE
                 ; 0000 0A9F {
                 ; 0000 0AA0 end_cnt++;
00210a eba6      	LDI  R26,LOW(_end_cnt)
00210b e0b2      	LDI  R27,HIGH(_end_cnt)
00210c 91ed      	LD   R30,X+
00210d 91fd      	LD   R31,X+
00210e 9631      	ADIW R30,1
00210f 93fe      	ST   -X,R31
002110 93ee      	ST   -X,R30
                 ; 0000 0AA1 if (end_cnt >=61)
002111 91a0 02b6 	LDS  R26,_end_cnt
002113 91b0 02b7 	LDS  R27,_end_cnt+1
002115 97dd      	SBIW R26,61
002116 f03c      	BRLT _0x1BF
                 ; 0000 0AA2 {
                 ; 0000 0AA3 end_fl =0;
002117 94e8      	CLT
002118 f826      	BLD  R2,6
                 ; 0000 0AA4 end_cnt =0;
002119 e0e0      	LDI  R30,LOW(0)
00211a 93e0 02b6 	STS  _end_cnt,R30
00211c 93e0 02b7 	STS  _end_cnt+1,R30
                 ; 0000 0AA5 }
                 ; 0000 0AA6 }
                 _0x1BF:
                 ; 0000 0AA7 // added code to check if time is between sunset and sunrise. if yes, invoke sleep
                 ; 0000 0AA8 // sleep/standby mode.
                 ; 0000 0AA9 night_time = to_minute(hour,minute);      // convert real time to minutes
                 _0x1BE:
00211e 927a      	ST   -Y,R7
00211f 2da6      	MOV  R26,R6
002120 940e 0bb5 	CALL _to_minute
002122 018f      	MOVW R16,R30
                 ; 0000 0AAA if (((night_time > sunset_min +30)|| (night_time < sunrise_min - 30))&& key1 && key2 && key3 && key4)
002123 91e0 028c 	LDS  R30,_sunset_min
002125 91f0 028d 	LDS  R31,_sunset_min+1
002127 9160 028e 	LDS  R22,_sunset_min+2
002129 9170 028f 	LDS  R23,_sunset_min+3
                +
00212b e0a0     +LDI R26 , LOW ( 0x41F00000 )
00212c e0b0     +LDI R27 , HIGH ( 0x41F00000 )
00212d ef80     +LDI R24 , BYTE3 ( 0x41F00000 )
00212e e491     +LDI R25 , BYTE4 ( 0x41F00000 )
                 	__GETD2N 0x41F00000
00212f 940e 2cff 	CALL __ADDF12
002131 01d8      	MOVW R26,R16
002132 940e 2e54 	CALL __CWD2
002134 940e 2f45 	CALL __CDF2
002136 940e 2de2 	CALL __CMPF12
002138 f011      	BREQ PC+3
002139 f008      	BRCS PC+2
00213a c016      	RJMP _0x1C1
00213b 91e0 0288 	LDS  R30,_sunrise_min
00213d 91f0 0289 	LDS  R31,_sunrise_min+1
00213f 9160 028a 	LDS  R22,_sunrise_min+2
002141 9170 028b 	LDS  R23,_sunrise_min+3
                +
002143 e0a0     +LDI R26 , LOW ( 0x41F00000 )
002144 e0b0     +LDI R27 , HIGH ( 0x41F00000 )
002145 ef80     +LDI R24 , BYTE3 ( 0x41F00000 )
002146 e491     +LDI R25 , BYTE4 ( 0x41F00000 )
                 	__GETD2N 0x41F00000
002147 940e 2cf8 	CALL __SUBF12
002149 01d8      	MOVW R26,R16
00214a 940e 2e54 	CALL __CWD2
00214c 940e 2f45 	CALL __CDF2
00214e 940e 2de2 	CALL __CMPF12
002150 f440      	BRSH _0x1C3
                 _0x1C1:
002151 9bc8      	SBIS 0x19,0
002152 c006      	RJMP _0x1C3
002153 9bc9      	SBIS 0x19,1
002154 c004      	RJMP _0x1C3
002155 9bca      	SBIS 0x19,2
002156 c002      	RJMP _0x1C3
002157 99cb      	SBIC 0x19,3
002158 c001      	RJMP _0x1C4
                 _0x1C3:
002159 c02f      	RJMP _0x1C0
                 _0x1C4:
                 ; 0000 0AAB         {
                 ; 0000 0AAC         sleep_counter++;
00215a eba8      	LDI  R26,LOW(_sleep_counter)
00215b e0b2      	LDI  R27,HIGH(_sleep_counter)
00215c 91ed      	LD   R30,X+
00215d 91fd      	LD   R31,X+
00215e 9631      	ADIW R30,1
00215f 93fe      	ST   -X,R31
002160 93ee      	ST   -X,R30
                 ; 0000 0AAD         if (sleep_counter >=30)
002161 91a0 02b8 	LDS  R26,_sleep_counter
002163 91b0 02b9 	LDS  R27,_sleep_counter+1
002165 975e      	SBIW R26,30
002166 f10c      	BRLT _0x1C5
                 ; 0000 0AAE         {
                 ; 0000 0AAF         sleep_counter =30;
002167 e1ee      	LDI  R30,LOW(30)
002168 e0f0      	LDI  R31,HIGH(30)
002169 93e0 02b8 	STS  _sleep_counter,R30
00216b 93f0 02b9 	STS  _sleep_counter+1,R31
                 ; 0000 0AB0         relay1=relay2=0;        //turn off relay
00216d 98a8      	CBI  0x15,0
00216e 9897      	CBI  0x12,7
                 ; 0000 0AB1         backlight =1;                    //turn backlight off
00216f 9ac3      	SBI  0x18,3
                 ; 0000 0AB2         led1=led2=led3=led4=led5=led6 =1; //turn led off
002170 9aaa      	SBI  0x15,2
002171 9aa9      	SBI  0x15,1
002172 9aab      	SBI  0x15,3
002173 9a96      	SBI  0x12,6
002174 9aac      	SBI  0x15,4
002175 9a93      	SBI  0x12,3
                 ; 0000 0AB3 //        control_buck_off() ;
                 ; 0000 0AB4         lcd_gotoxy(0,0);
002176 e0e0      	LDI  R30,LOW(0)
002177 93ea      	ST   -Y,R30
002178 e0a0      	LDI  R26,LOW(0)
002179 940e 2b39 	CALL _lcd_gotoxy
                 ; 0000 0AB5         lcd_putsf("  NIGHT MODE  ");
                +
00217b efa7     +LDI R26 , LOW ( 2 * _0x0 + ( 377 ) )
00217c e0b3     +LDI R27 , HIGH ( 2 * _0x0 + ( 377 ) )
                 	__POINTW2FN _0x0,377
00217d 940e 2b89 	CALL _lcd_putsf
                 ; 0000 0AB6         lcd_gotoxy(0,1);
00217f e0e0      	LDI  R30,LOW(0)
002180 93ea      	ST   -Y,R30
002181 e0a1      	LDI  R26,LOW(1)
002182 940e 2b39 	CALL _lcd_gotoxy
                 ; 0000 0AB7         display_time();
002184 940e 0ccf 	CALL _display_time
                 ; 0000 0AB8         sleep_fl =1;
002186 9468      	SET
002187 f837      	BLD  R3,7
                 ; 0000 0AB9 //        sleep_enable();
                 ; 0000 0ABA //        idle();
                 ; 0000 0ABB         }
                 ; 0000 0ABC         }
                 _0x1C5:
                 ; 0000 0ABD else
002188 c007      	RJMP _0x1D8
                 _0x1C0:
                 ; 0000 0ABE {
                 ; 0000 0ABF sleep_counter =0;
002189 e0e0      	LDI  R30,LOW(0)
00218a 93e0 02b8 	STS  _sleep_counter,R30
00218c 93e0 02b9 	STS  _sleep_counter+1,R30
                 ; 0000 0AC0 sleep_fl=0;
00218e 94e8      	CLT
00218f f837      	BLD  R3,7
                 ; 0000 0AC1 }
                 _0x1D8:
                 ; 0000 0AC2 }
002190 9109      	LD   R16,Y+
002191 9119      	LD   R17,Y+
002192 91e9      	LD   R30,Y+
002193 bfef      	OUT  SREG,R30
002194 91f9      	LD   R31,Y+
002195 91e9      	LD   R30,Y+
002196 91b9      	LD   R27,Y+
002197 91a9      	LD   R26,Y+
002198 9199      	LD   R25,Y+
002199 9189      	LD   R24,Y+
00219a 9179      	LD   R23,Y+
00219b 9169      	LD   R22,Y+
00219c 90f9      	LD   R15,Y+
00219d 9019      	LD   R1,Y+
00219e 9009      	LD   R0,Y+
00219f 9518      	RETI
                 ; .FEND
                 ;
                 ;
                 ;
                 ;
                 ;
                 ;// Standard Input/Output functions
                 ;#include <stdio.h>
                 ;
                 ;// Declare your global variables here
                 ;
                 ;
                 ;
                 ;void eeprom_transfer(void)
                 ; 0000 0AD0 {
                 _eeprom_transfer:
                 ; .FSTART _eeprom_transfer
                 ; 0000 0AD1 span_adc = e_span_adc;
0021a0 e1a0      	LDI  R26,LOW(_e_span_adc)
0021a1 e0b0      	LDI  R27,HIGH(_e_span_adc)
0021a2 940e 2f55 	CALL __EEPROMRDD
0021a4 93e0 02de 	STS  _span_adc,R30
0021a6 93f0 02df 	STS  _span_adc+1,R31
0021a8 9360 02e0 	STS  _span_adc+2,R22
0021aa 9370 02e1 	STS  _span_adc+3,R23
                 ; 0000 0AD2 zero_adc = e_zero_adc;
0021ac e0ac      	LDI  R26,LOW(_e_zero_adc)
0021ad e0b0      	LDI  R27,HIGH(_e_zero_adc)
0021ae 940e 2f55 	CALL __EEPROMRDD
0021b0 93e0 02da 	STS  _zero_adc,R30
0021b2 93f0 02db 	STS  _zero_adc+1,R31
0021b4 9360 02dc 	STS  _zero_adc+2,R22
0021b6 9370 02dd 	STS  _zero_adc+3,R23
                 ; 0000 0AD3 time_interval = e_time_interval;
0021b8 e0a8      	LDI  R26,LOW(_e_time_interval)
0021b9 e0b0      	LDI  R27,HIGH(_e_time_interval)
0021ba 940e 2f59 	CALL __EEPROMRDW
0021bc 93e0 02d2 	STS  _time_interval,R30
0021be 93f0 02d3 	STS  _time_interval+1,R31
                 ; 0000 0AD4 low_angle = e_low_angle;
0021c0 e0a4      	LDI  R26,LOW(_e_low_angle)
0021c1 e0b0      	LDI  R27,HIGH(_e_low_angle)
0021c2 940e 2f59 	CALL __EEPROMRDW
0021c4 93e0 02ce 	STS  _low_angle,R30
0021c6 93f0 02cf 	STS  _low_angle+1,R31
                 ; 0000 0AD5 high_angle = e_high_angle;
0021c8 e0a6      	LDI  R26,LOW(_e_high_angle)
0021c9 e0b0      	LDI  R27,HIGH(_e_high_angle)
0021ca 940e 2f59 	CALL __EEPROMRDW
0021cc 93e0 02d0 	STS  _high_angle,R30
0021ce 93f0 02d1 	STS  _high_angle+1,R31
                 ; 0000 0AD6 set_latit = e_set_latit;
0021d0 e0a0      	LDI  R26,LOW(_e_set_latit)
0021d1 e0b0      	LDI  R27,HIGH(_e_set_latit)
0021d2 940e 2f59 	CALL __EEPROMRDW
0021d4 93e0 02ca 	STS  _set_latit,R30
0021d6 93f0 02cb 	STS  _set_latit+1,R31
                 ; 0000 0AD7 set_longitude = e_set_longitude;
0021d8 e0a2      	LDI  R26,LOW(_e_set_longitude)
0021d9 e0b0      	LDI  R27,HIGH(_e_set_longitude)
0021da 940e 2f59 	CALL __EEPROMRDW
0021dc 93e0 02cc 	STS  _set_longitude,R30
0021de 93f0 02cd 	STS  _set_longitude+1,R31
                 ; 0000 0AD8 set_timezone = e_set_timezone;
0021e0 e0aa      	LDI  R26,LOW(_e_set_timezone)
0021e1 e0b0      	LDI  R27,HIGH(_e_set_timezone)
0021e2 940e 2f59 	CALL __EEPROMRDW
0021e4 93e0 02d8 	STS  _set_timezone,R30
0021e6 93f0 02d9 	STS  _set_timezone+1,R31
                 ; 0000 0AD9 set_width = e_set_width;
0021e8 e1ab      	LDI  R26,LOW(_e_set_width)
0021e9 e0b0      	LDI  R27,HIGH(_e_set_width)
0021ea 940e 2f59 	CALL __EEPROMRDW
0021ec 93e0 0305 	STS  _set_width,R30
0021ee 93f0 0306 	STS  _set_width+1,R31
                 ; 0000 0ADA set_distance = e_set_distance;
0021f0 e1ad      	LDI  R26,LOW(_e_set_distance)
0021f1 e0b0      	LDI  R27,HIGH(_e_set_distance)
0021f2 940e 2f59 	CALL __EEPROMRDW
0021f4 93e0 0303 	STS  _set_distance,R30
0021f6 93f0 0304 	STS  _set_distance+1,R31
                 ; 0000 0ADB modbus_id = e_modbus_id;
0021f8 e2a2      	LDI  R26,LOW(_e_modbus_id)
0021f9 e0b0      	LDI  R27,HIGH(_e_modbus_id)
0021fa 940e 2f59 	CALL __EEPROMRDW
0021fc 93e0 0307 	STS  _modbus_id,R30
0021fe 93f0 0308 	STS  _modbus_id+1,R31
                 ; 0000 0ADC modbus_rate = e_modbus_rate;
002200 e2a4      	LDI  R26,LOW(_e_modbus_rate)
002201 e0b0      	LDI  R27,HIGH(_e_modbus_rate)
002202 940e 2f59 	CALL __EEPROMRDW
002204 93e0 0309 	STS  _modbus_rate,R30
002206 93f0 030a 	STS  _modbus_rate+1,R31
                 ; 0000 0ADD }
002208 9508      	RET
                 ; .FEND
                 ;
                 ;
                 ;void init(void)
                 ; 0000 0AE1 {// Declare your local variables here
                 _init:
                 ; .FSTART _init
                 ; 0000 0AE2 
                 ; 0000 0AE3 // Input/Output Ports initialization
                 ; 0000 0AE4 // Port A initialization
                 ; 0000 0AE5 // Func7=In Func6=In Func5=In Func4=In Func3=In Func2=In Func1=In Func0=In
                 ; 0000 0AE6 // State7=T State6=T State5=T State4=T State3=P State2=P State1=P State0=P
                 ; 0000 0AE7 PORTA=0xFF;
002209 efef      	LDI  R30,LOW(255)
00220a bbeb      	OUT  0x1B,R30
                 ; 0000 0AE8 DDRA=0x20;
00220b e2e0      	LDI  R30,LOW(32)
00220c bbea      	OUT  0x1A,R30
                 ; 0000 0AE9 
                 ; 0000 0AEA // Port B initialization
                 ; 0000 0AEB // Func7=In Func6=In Func5=In Func4=In Func3=In Func2=In Func1=In Func0=In
                 ; 0000 0AEC // State7=T State6=T State5=T State4=T State3=T State2=T State1=T State0=T
                 ; 0000 0AED PORTB=0x08;  //pb.3 is bcklight
00220d e0e8      	LDI  R30,LOW(8)
00220e bbe8      	OUT  0x18,R30
                 ; 0000 0AEE DDRB=0x08;
00220f bbe7      	OUT  0x17,R30
                 ; 0000 0AEF 
                 ; 0000 0AF0 // Port C initialization
                 ; 0000 0AF1 // Func7=Out Func6=Out Func5=Out Func4=Out Func3=Out Func2=Out Func1=Out Func0=Out
                 ; 0000 0AF2 // State7=0 State6=0 State5=0 State4=1 State3=1 State2=1 State1=1 State0=0
                 ; 0000 0AF3 PORTC=0x1E;
002210 e1ee      	LDI  R30,LOW(30)
002211 bbe5      	OUT  0x15,R30
                 ; 0000 0AF4 DDRC=0xFF;
002212 efef      	LDI  R30,LOW(255)
002213 bbe4      	OUT  0x14,R30
                 ; 0000 0AF5 
                 ; 0000 0AF6 // Port D initialization
                 ; 0000 0AF7 // Func7=Out Func6=Out Func5=Out Func4=Out Func3=Out Func2=In Func1=In Func0=In
                 ; 0000 0AF8 // State7=0 State6=1 State5=0 State4=0 State3=1 State2=T State1=T State0=T
                 ; 0000 0AF9 PORTD=0x4C;
002214 e4ec      	LDI  R30,LOW(76)
002215 bbe2      	OUT  0x12,R30
                 ; 0000 0AFA DDRD=0xF8;
002216 efe8      	LDI  R30,LOW(248)
002217 bbe1      	OUT  0x11,R30
                 ; 0000 0AFB 
                 ; 0000 0AFC 
                 ; 0000 0AFD // Timer/Counter 0 initialization
                 ; 0000 0AFE // Clock source: System Clock
                 ; 0000 0AFF // Clock value: Timer 0 Stopped
                 ; 0000 0B00 // Mode: Normal top=FFh
                 ; 0000 0B01 // OC0 output: Disconnected
                 ; 0000 0B02 TCCR0=0x00;
002218 e0e0      	LDI  R30,LOW(0)
002219 bfe3      	OUT  0x33,R30
                 ; 0000 0B03 TCNT0=0x00;
00221a bfe2      	OUT  0x32,R30
                 ; 0000 0B04 OCR0=0x00;
00221b bfec      	OUT  0x3C,R30
                 ; 0000 0B05 
                 ; 0000 0B06 // Timer/Counter 1 initialization
                 ; 0000 0B07 // Clock source: System Clock
                 ; 0000 0B08 // Clock value: 11.719 kHz
                 ; 0000 0B09 // Mode: Fast PWM top=0x01FF
                 ; 0000 0B0A // OC1A output: Inverted PWM
                 ; 0000 0B0B // OC1B output: Disconnected
                 ; 0000 0B0C // Noise Canceler: Off
                 ; 0000 0B0D // Input Capture on Falling Edge
                 ; 0000 0B0E // Timer Period: 43.691 ms
                 ; 0000 0B0F // Output Pulse(s):
                 ; 0000 0B10 // OC1A Period: 43.691 ms Width: 21.888 ms
                 ; 0000 0B11 // Timer1 Overflow Interrupt: Off
                 ; 0000 0B12 // Input Capture Interrupt: Off
                 ; 0000 0B13 // Compare A Match Interrupt: Off
                 ; 0000 0B14 // Compare B Match Interrupt: Off
                 ; 0000 0B15 TCCR1A=(1<<COM1A1) | (1<<COM1A0) | (0<<COM1B1) | (0<<COM1B0) | (1<<WGM11) | (0<<WGM10);
00221c ece2      	LDI  R30,LOW(194)
00221d bdef      	OUT  0x2F,R30
                 ; 0000 0B16 TCCR1B=(0<<ICNC1) | (0<<ICES1) | (0<<WGM13) | (1<<WGM12) | (1<<CS12) | (0<<CS11) | (1<<CS10);
00221e e0ed      	LDI  R30,LOW(13)
00221f bdee      	OUT  0x2E,R30
                 ; 0000 0B17 TCNT1H=0x00;
002220 e0e0      	LDI  R30,LOW(0)
002221 bded      	OUT  0x2D,R30
                 ; 0000 0B18 TCNT1L=0x00;
002222 bdec      	OUT  0x2C,R30
                 ; 0000 0B19 ICR1H=0x00;
002223 bde7      	OUT  0x27,R30
                 ; 0000 0B1A ICR1L=0x00;
002224 bde6      	OUT  0x26,R30
                 ; 0000 0B1B OCR1AH=0x00;
002225 bdeb      	OUT  0x2B,R30
                 ; 0000 0B1C OCR1AL=0xFF;
002226 efef      	LDI  R30,LOW(255)
002227 bdea      	OUT  0x2A,R30
                 ; 0000 0B1D OCR1BH=0x00;
002228 e0e0      	LDI  R30,LOW(0)
002229 bde9      	OUT  0x29,R30
                 ; 0000 0B1E OCR1BL=0x00;
00222a bde8      	OUT  0x28,R30
                 ; 0000 0B1F 
                 ; 0000 0B20 // Timer/Counter 2 initialization
                 ; 0000 0B21 // Clock source: System Clock
                 ; 0000 0B22 // Clock value: Timer2 Stopped
                 ; 0000 0B23 // Mode: Normal top=FFh
                 ; 0000 0B24 // OC2 output: Disconnected
                 ; 0000 0B25 ASSR=0x00;
00222b bde2      	OUT  0x22,R30
                 ; 0000 0B26 TCCR2=0x00;
00222c bde5      	OUT  0x25,R30
                 ; 0000 0B27 TCNT2=0x00;
00222d bde4      	OUT  0x24,R30
                 ; 0000 0B28 OCR2=0x00;
00222e bde3      	OUT  0x23,R30
                 ; 0000 0B29 
                 ; 0000 0B2A // External Interrupt(s) initialization
                 ; 0000 0B2B // INT0: On
                 ; 0000 0B2C // INT0 Mode: Falling Edge
                 ; 0000 0B2D // INT1: Off
                 ; 0000 0B2E // INT2: Off
                 ; 0000 0B2F GICR|=0x40;
00222f b7eb      	IN   R30,0x3B
002230 64e0      	ORI  R30,0x40
002231 bfeb      	OUT  0x3B,R30
                 ; 0000 0B30 MCUCR=0x02;
002232 e0e2      	LDI  R30,LOW(2)
002233 bfe5      	OUT  0x35,R30
                 ; 0000 0B31 MCUCSR=0x00;
002234 e0e0      	LDI  R30,LOW(0)
002235 bfe4      	OUT  0x34,R30
                 ; 0000 0B32 GIFR=0x40;
002236 e4e0      	LDI  R30,LOW(64)
002237 bfea      	OUT  0x3A,R30
                 ; 0000 0B33 
                 ; 0000 0B34 // Timer(s)/Counter(s) Interrupt(s) initialization
                 ; 0000 0B35 TIMSK=0x00;
002238 e0e0      	LDI  R30,LOW(0)
002239 bfe9      	OUT  0x39,R30
                 ; 0000 0B36 
                 ; 0000 0B37 
                 ; 0000 0B38 // USART initialization
                 ; 0000 0B39 // Communication Parameters: 8 Data, 1 Stop, No Parity
                 ; 0000 0B3A // USART Receiver: On
                 ; 0000 0B3B // USART Transmitter: On
                 ; 0000 0B3C // USART Mode: Asynchronous
                 ; 0000 0B3D // USART Baud Rate: 9600
                 ; 0000 0B3E UCSRA=(0<<RXC) | (0<<TXC) | (0<<UDRE) | (0<<FE) | (0<<DOR) | (0<<UPE) | (0<<U2X) | (0<<MPCM);
00223a b9eb      	OUT  0xB,R30
                 ; 0000 0B3F UCSRB=(1<<RXCIE) | (1<<TXCIE) | (0<<UDRIE) | (1<<RXEN) | (1<<TXEN) | (0<<UCSZ2) | (0<<RXB8) | (0<<TXB8);
00223b ede8      	LDI  R30,LOW(216)
00223c b9ea      	OUT  0xA,R30
                 ; 0000 0B40 UCSRC=(1<<URSEL) | (0<<UMSEL) | (0<<UPM1) | (0<<UPM0) | (0<<USBS) | (1<<UCSZ1) | (1<<UCSZ0) | (0<<UCPOL);
00223d e8e6      	LDI  R30,LOW(134)
00223e bde0      	OUT  0x20,R30
                 ; 0000 0B41 //UBRRH=0x00;    //9600 for 11.0592
                 ; 0000 0B42 //UBRRL=0x47;
                 ; 0000 0B43 
                 ; 0000 0B44 
                 ; 0000 0B45 
                 ; 0000 0B46 //UBRRH=0x00;        //9600 for 12mhz
                 ; 0000 0B47 //UBRRL=0x4D;
                 ; 0000 0B48 
                 ; 0000 0B49 
                 ; 0000 0B4A 
                 ; 0000 0B4B //UBRRH=0x00;    //9600  for 11.0592 baud rate
                 ; 0000 0B4C //UBRRL=0x47;
                 ; 0000 0B4D 
                 ; 0000 0B4E 
                 ; 0000 0B4F //UBRRH=0x00;    //19200  for 11.0592 baud rate
                 ; 0000 0B50 //UBRRL=0x23;
                 ; 0000 0B51 
                 ; 0000 0B52 //UBRRH=0x00;     //38400 for 11.0592 baud rate
                 ; 0000 0B53 //UBRRL=0x11;
                 ; 0000 0B54 
                 ; 0000 0B55 //UBRRH=0x00;     //57600  for 11.0592 baud rate
                 ; 0000 0B56 //UBRRL=0x0B;
                 ; 0000 0B57 
                 ; 0000 0B58 UBRRH=0x00;      //115200 for 11.0592 baud rate
00223f e0e0      	LDI  R30,LOW(0)
002240 bde0      	OUT  0x20,R30
                 ; 0000 0B59 UBRRL=0x05;
002241 e0e5      	LDI  R30,LOW(5)
002242 b9e9      	OUT  0x9,R30
                 ; 0000 0B5A 
                 ; 0000 0B5B 
                 ; 0000 0B5C 
                 ; 0000 0B5D 
                 ; 0000 0B5E 
                 ; 0000 0B5F // Analog Comparator initialization
                 ; 0000 0B60 // Analog Comparator: Off
                 ; 0000 0B61 // Analog Comparator Input Capture by Timer/Counter 1: Off
                 ; 0000 0B62 ACSR=0x80;
002243 e8e0      	LDI  R30,LOW(128)
002244 b9e8      	OUT  0x8,R30
                 ; 0000 0B63 SFIOR=0x00;
002245 e0e0      	LDI  R30,LOW(0)
002246 bfe0      	OUT  0x30,R30
                 ; 0000 0B64 
                 ; 0000 0B65 
                 ; 0000 0B66 
                 ; 0000 0B67 // I2C Bus initialization
                 ; 0000 0B68 i2c_init();
002247 940e 2bfe 	CALL _i2c_init
                 ; 0000 0B69 delay_ms(1000);
002249 eea8      	LDI  R26,LOW(1000)
00224a e0b3      	LDI  R27,HIGH(1000)
00224b 940e 2c4f 	CALL _delay_ms
                 ; 0000 0B6A 
                 ; 0000 0B6B // DS1307 Real Time Clock initialization
                 ; 0000 0B6C // Square wave output on pin SQW/OUT: Off
                 ; 0000 0B6D // SQW/OUT pin state: 1
                 ; 0000 0B6E rtc_init(0,1,0);
00224d e0e0      	LDI  R30,LOW(0)
00224e 93ea      	ST   -Y,R30
00224f e0e1      	LDI  R30,LOW(1)
002250 93ea      	ST   -Y,R30
002251 e0a0      	LDI  R26,LOW(0)
002252 940e 2a28 	CALL _rtc_init
                 ; 0000 0B6F 
                 ; 0000 0B70 // LCD module initialization
                 ; 0000 0B71 lcd_init(16);
002254 e1a0      	LDI  R26,LOW(16)
002255 940e 2bad 	CALL _lcd_init
                 ; 0000 0B72 delay_ms(100);
002257 e6a4      	LDI  R26,LOW(100)
002258 e0b0      	LDI  R27,0
002259 940e 2c4f 	CALL _delay_ms
                 ; 0000 0B73 mpu6050_init();
00225b 940e 1812 	CALL _mpu6050_init
                 ; 0000 0B74 boost_fl =1;
00225d 9468      	SET
00225e f845      	BLD  R4,5
                 ; 0000 0B75 float_fl = trickle_fl =0;
00225f 94e8      	CLT
002260 f846      	BLD  R4,6
002261 f847      	BLD  R4,7
                 ; 0000 0B76 
                 ; 0000 0B77 define_char(char0,0);
002262 e5e4      	LDI  R30,LOW(_char0*2)
002263 e0f2      	LDI  R31,HIGH(_char0*2)
002264 93fa      	ST   -Y,R31
002265 93ea      	ST   -Y,R30
002266 e0a0      	LDI  R26,LOW(0)
002267 940e 06aa 	CALL _define_char
                 ; 0000 0B78 // Global enable interrupts
                 ; 0000 0B79 sleep_fl =0;
002269 94e8      	CLT
00226a f837      	BLD  R3,7
                 ; 0000 0B7A mb_dir =0;
00226b 9894      	CBI  0x12,4
                 ; 0000 0B7B }
00226c 9508      	RET
                 ; .FEND
                 ;
                 ;/*
                 ;void WDT_ON()
                 ;{
                 ;
                 ;//    Watchdog timer enables with typical timeout period 2.1
                 ;//    second.
                 ;
                 ;    WDTCR = (1<<WDE)|(1<<WDP2)|(1<<WDP1)|(1<<WDP0);
                 ;}
                 ; */
                 ;void WDT_OFF()
                 ; 0000 0B88 {
                 _WDT_OFF:
                 ; .FSTART _WDT_OFF
                 ; 0000 0B89     /*
                 ; 0000 0B8A     This function use for disable the watchdog timer.
                 ; 0000 0B8B     */
                 ; 0000 0B8C     WDTCR = (1<<WDTOE)|(1<<WDE);
00226d e1e8      	LDI  R30,LOW(24)
00226e bde1      	OUT  0x21,R30
                 ; 0000 0B8D     WDTCR = 0x00;
00226f e0e0      	LDI  R30,LOW(0)
002270 bde1      	OUT  0x21,R30
                 ; 0000 0B8E }
002271 9508      	RET
                 ; .FEND
                 ;
                 ;
                 ;
                 ;/*
                 ;void check_print(void)
                 ;{
                 ;int i,j=0;
                 ;if(printkey_fl)
                 ;    {
                 ;    lcd_clear();
                 ;    lcd_putsf("printing");
                 ;    lcd_gotoxy(0,1);
                 ;    printkey_fl =0;
                 ;    if (record_cnt>13)
                 ;        {
                 ;            #asm("cli")
                 ;        putchar(0x0a);
                 ;        putchar(0x0d);
                 ;        putsf("angle  target  time     date       PV   chargecur.   batvolt");
                 ;//        putchar(0x0a);
                 ;//        putchar(0x0d);
                 ;        for(i=0;i<=(record_cnt-1);i+=14)
                 ;            {
                 ;            j++;
                 ;            if (j>=15)                                      //lower display printing algo
                 ;                        {
                 ;                        j=0;
                 ;                        lcd_gotoxy(0,1);
                 ;                        lcd_putsf("               ");
                 ;                        lcd_gotoxy(0,1);
                 ;                        }
                 ;            lcd_putchar('.');
                 ;            read_2464(i);
                 ;            delay_ms(200);
                 ;            putchar((record_buffer[0]/10)+48);
                 ;            putchar((record_buffer[0]%10)+48);
                 ;            putchar((record_buffer[1]/10)+48);
                 ;            putchar('.');
                 ;            putchar((record_buffer[1]%10)+48);
                 ;            putchar(' ');
                 ;            putchar(' ');
                 ;
                 ;            putchar((record_buffer[2]/10)+48);
                 ;            putchar((record_buffer[2]%10)+48);
                 ;            putchar((record_buffer[3]/10)+48);
                 ;            putchar('.');
                 ;            putchar((record_buffer[3]%10)+48);
                 ;            putchar(' ');
                 ;            putchar(' ');
                 ;
                 ;            putchar((record_buffer[4]/10)+48);
                 ;            putchar((record_buffer[4]%10)+48);
                 ;            putchar(':');
                 ;            putchar((record_buffer[5]/10)+48);
                 ;            putchar((record_buffer[5]%10)+48);
                 ;            putchar(' ');
                 ;            putchar(' ');
                 ;
                 ;            putchar((record_buffer[6]/10)+48);
                 ;            putchar((record_buffer[6]%10)+48);
                 ;            putchar('-');
                 ;            putchar((record_buffer[7]/10)+48);
                 ;            putchar((record_buffer[7]%10)+48);
                 ;            putchar('-');
                 ;            putchar('2');
                 ;            putchar('0');
                 ;            putchar('1');
                 ;            putchar('3');
                 ;
                 ;            putchar(' ');
                 ;            putchar(' ');
                 ;
                 ;            putchar((record_buffer[8]/10)+48);
                 ;            putchar((record_buffer[8]%10)+48);
                 ;            putchar('.');
                 ;            putchar((record_buffer[9]/10)+48);
                 ;            putchar((record_buffer[9]%10)+48);
                 ;            putchar('V');
                 ;            putchar(' ');
                 ;
                 ;            putchar((record_buffer[10]/10)+48);
                 ;            putchar('.');
                 ;            putchar((record_buffer[10]%10)+48);
                 ;            putchar((record_buffer[11]/10)+48);
                 ;            putchar((record_buffer[11]%10)+48);
                 ;            putchar('A');
                 ;            putchar(' ');
                 ;
                 ;            putchar((record_buffer[12]/10)+48);
                 ;            putchar((record_buffer[12]%10)+48);
                 ;            putchar('.');
                 ;            putchar((record_buffer[13]/10)+48);
                 ;            putchar((record_buffer[13]%10)+48);
                 ;            putchar('V');
                 ;            putchar(' ');
                 ;            putsf(" ");//new line character
                 ;
                 ;            }
                 ;        #asm("sei")
                 ;        lcd_clear();
                 ;//        record_cnt =0;          //reset record count to 00;
                 ;        }
                 ;
                 ;    }
                 ;}
                 ;*/
                 ;
                 ;void print_analog(int a,short int decimal)
                 ; 0000 0BFB {
                 ; 0000 0BFC if (a<0)
                 ;	a -> Y+2
                 ;	decimal -> Y+0
                 ; 0000 0BFD {
                 ; 0000 0BFE putchar('-');
                 ; 0000 0BFF a = -a;
                 ; 0000 0C00 }
                 ; 0000 0C01 else
                 ; 0000 0C02 {
                 ; 0000 0C03 putchar('+');
                 ; 0000 0C04 }
                 ; 0000 0C05 putchar((a/1000)+48);
                 ; 0000 0C06 a =a%1000;
                 ; 0000 0C07 if (decimal == 1) putchar('.');
                 ; 0000 0C08 putchar((a/100)+48);
                 ; 0000 0C09 a = a%100;
                 ; 0000 0C0A if (decimal == 2) putchar('.');
                 ; 0000 0C0B putchar((a/10)+48);
                 ; 0000 0C0C if (decimal ==3) putchar('.');
                 ; 0000 0C0D putchar((a%10)+48);
                 ; 0000 0C0E }
                 ;
                 ;void print_realtime()
                 ; 0000 0C11 {
                 ; 0000 0C12             print_analog(angle,3);
                 ; 0000 0C13  //           putchar('');
                 ; 0000 0C14             putchar(' ');
                 ; 0000 0C15 
                 ; 0000 0C16             print_analog(target_angle,3);
                 ; 0000 0C17 //            putchar('');
                 ; 0000 0C18             putchar(' ');
                 ; 0000 0C19 
                 ; 0000 0C1A             print_analog(sun_angle,3);
                 ; 0000 0C1B //            putchar('');
                 ; 0000 0C1C             putchar(' ');
                 ; 0000 0C1D 
                 ; 0000 0C1E             putchar((hour/10)+48);
                 ; 0000 0C1F             putchar((hour%10)+48);
                 ; 0000 0C20             putchar(':');
                 ; 0000 0C21             putchar((minute/10)+48);
                 ; 0000 0C22             putchar((minute%10)+48);
                 ; 0000 0C23             putchar(' ');
                 ; 0000 0C24             putchar(' ');
                 ; 0000 0C25 
                 ; 0000 0C26             putchar((day/10)+48);
                 ; 0000 0C27             putchar((day%10)+48);
                 ; 0000 0C28             putchar('-');
                 ; 0000 0C29             putchar((month/10)+48);
                 ; 0000 0C2A             putchar((month%10)+48);
                 ; 0000 0C2B             putchar('-');
                 ; 0000 0C2C             putchar('2');
                 ; 0000 0C2D             putchar('0');
                 ; 0000 0C2E             putchar('2');
                 ; 0000 0C2F             putchar('2');
                 ; 0000 0C30 
                 ; 0000 0C31             putchar(' ');
                 ; 0000 0C32             putchar(' ');
                 ; 0000 0C33 
                 ; 0000 0C34 
                 ; 0000 0C35 }
                 ;
                 ;
                 ;void print_data(void)
                 ; 0000 0C39 {
                 ; 0000 0C3A     #asm("cli")
                 ; 0000 0C3B     mb_dir =1;
                 ; 0000 0C3C     delay_ms(100);
                 ; 0000 0C3D     print_realtime();
                 ; 0000 0C3E        putchar(0x0a);
                 ; 0000 0C3F        putchar(0x0d);
                 ; 0000 0C40     #asm("sei")
                 ; 0000 0C41     mb_dir =0;
                 ; 0000 0C42 }
                 ;
                 ;
                 ;
                 ;void panel_movement(void)
                 ; 0000 0C47 {
                 _panel_movement:
                 ; .FSTART _panel_movement
                 ; 0000 0C48 //int panel_cutoff;
                 ; 0000 0C49 //bit flag_01;
                 ; 0000 0C4A int angle_old;
                 ; 0000 0C4B if(start_fl)
002272 931a      	ST   -Y,R17
002273 930a      	ST   -Y,R16
                 ;	angle_old -> R16,R17
002274 fe25      	SBRS R2,5
002275 c1c4      	RJMP _0x1E4
                 ; 0000 0C4C         {
                 ; 0000 0C4D         OCR1A =20;          // initially set PWM output to zero
002276 e1e4      	LDI  R30,LOW(20)
002277 e0f0      	LDI  R31,HIGH(20)
002278 bdfb      	OUT  0x2A+1,R31
002279 bdea      	OUT  0x2A,R30
                 ; 0000 0C4E         pwm_count =0;
00227a e0e0      	LDI  R30,LOW(0)
00227b 93e0 02be 	STS  _pwm_count,R30
00227d 93e0 02bf 	STS  _pwm_count+1,R30
                 ; 0000 0C4F         lcd_clear();
00227f 940e 2b4d 	CALL _lcd_clear
                 ; 0000 0C50 if (angle < target_angle)
002281 91e0 0298 	LDS  R30,_target_angle
002283 91f0 0299 	LDS  R31,_target_angle+1
002285 9160 029a 	LDS  R22,_target_angle+2
002287 9170 029b 	LDS  R23,_target_angle+3
002289 91a0 02f3 	LDS  R26,_angle
00228b 91b0 02f4 	LDS  R27,_angle+1
00228d 940e 2e54 	CALL __CWD2
00228f 940e 2f99 	CALL __CPD21
002291 f00c      	BRLT PC+2
002292 c0c2      	RJMP _0x1E5
                 ; 0000 0C51         {
                 ; 0000 0C52         timeout_cnt =0;
002293 e0e0      	LDI  R30,LOW(0)
002294 93e0 0294 	STS  _timeout_cnt,R30
002296 93e0 0295 	STS  _timeout_cnt+1,R30
002298 93e0 0296 	STS  _timeout_cnt+2,R30
00229a 93e0 0297 	STS  _timeout_cnt+3,R30
                 ; 0000 0C53         inf_fl =1;
00229c 9468      	SET
00229d f827      	BLD  R2,7
                 ; 0000 0C54         angle_old = angle;
                +
00229e 9100 02f3+LDS R16 , 0 + ( _angle )
0022a0 9110 02f4+LDS R17 , 0 + ( _angle ) + 1
                 	__GETWRMN 16,17,0,_angle
                 ; 0000 0C55 //        panel_cutoff =0;
                 ; 0000 0C56         while(angle < target_angle && inf_fl)
                 _0x1E6:
0022a2 91e0 0298 	LDS  R30,_target_angle
0022a4 91f0 0299 	LDS  R31,_target_angle+1
0022a6 9160 029a 	LDS  R22,_target_angle+2
0022a8 9170 029b 	LDS  R23,_target_angle+3
0022aa 91a0 02f3 	LDS  R26,_angle
0022ac 91b0 02f4 	LDS  R27,_angle+1
0022ae 940e 2e54 	CALL __CWD2
0022b0 940e 2f99 	CALL __CPD21
0022b2 f414      	BRGE _0x1E9
0022b3 fc27      	SBRC R2,7
0022b4 c001      	RJMP _0x1EA
                 _0x1E9:
0022b5 c098      	RJMP _0x1E8
                 _0x1EA:
                 ; 0000 0C57                 {
                 ; 0000 0C58 /*
                 ; 0000 0C59   // check routine for low voltage . if battery voltage drops below
                 ; 0000 0C5A   // 10.8V, then display low battery indication. if it recovers within 20 seconds
                 ; 0000 0C5B   // then, get back, else break.
                 ; 0000 0C5C                 if (adc_battery < cutoff_voltage)
                 ; 0000 0C5D                 panel_cutoff++;
                 ; 0000 0C5E                 else
                 ; 0000 0C5F                 panel_cutoff =0;        //reset
                 ; 0000 0C60 
                 ; 0000 0C61                 if (panel_cutoff > 100 && panel_cutoff < 5000) //15 seconds
                 ; 0000 0C62                         {
                 ; 0000 0C63                         lcd_gotoxy(0,1);
                 ; 0000 0C64                         lcd_putsf("!!LOW BATTERY!!");
                 ; 0000 0C65                         flag_01 =1;
                 ; 0000 0C66 //                        delay_ms(500);
                 ; 0000 0C67                         }
                 ; 0000 0C68                         else
                 ; 0000 0C69                         flag_01 =0; // to display low battery only
                 ; 0000 0C6A 
                 ; 0000 0C6B                 if (panel_cutoff > 5000)
                 ; 0000 0C6C                         {
                 ; 0000 0C6D                         lcd_clear();
                 ; 0000 0C6E                         err_fl =1;
                 ; 0000 0C6F 
                 ; 0000 0C70                         lcd_putsf("LOW BATTERY");
                 ; 0000 0C71                         lcd_gotoxy(0,1);
                 ; 0000 0C72                         lcd_putsf("!!!ERROR!!!    ");
                 ; 0000 0C73                         relay1=relay2 =0;
                 ; 0000 0C74                         delay_ms(2000);
                 ; 0000 0C75                         err_fl =0;
                 ; 0000 0C76                         inf_fl =0;  // break while loop
                 ; 0000 0C77                          }
                 ; 0000 0C78 */
                 ; 0000 0C79 /////////////////////////////////////////////////////////////////////
                 ; 0000 0C7A  //               delay_ms(1);
                 ; 0000 0C7B  //               adc_buffer = adc3421_read();
                 ; 0000 0C7C                 #asm("wdr")
0022b6 95a8      	wdr
                 ; 0000 0C7D                 pwm_count++;
0022b7 ebae      	LDI  R26,LOW(_pwm_count)
0022b8 e0b2      	LDI  R27,HIGH(_pwm_count)
0022b9 91ed      	LD   R30,X+
0022ba 91fd      	LD   R31,X+
0022bb 9631      	ADIW R30,1
0022bc 93fe      	ST   -X,R31
0022bd 93ee      	ST   -X,R30
                 ; 0000 0C7E                 if(pwm_count >200)
0022be 91a0 02be 	LDS  R26,_pwm_count
0022c0 91b0 02bf 	LDS  R27,_pwm_count+1
0022c2 3ca9      	CPI  R26,LOW(0xC9)
0022c3 e0e0      	LDI  R30,HIGH(0xC9)
0022c4 07be      	CPC  R27,R30
0022c5 f0a0      	BRLO _0x1EB
                 ; 0000 0C7F                     {
                 ; 0000 0C80                     pwm_count =0;
0022c6 e0e0      	LDI  R30,LOW(0)
0022c7 93e0 02be 	STS  _pwm_count,R30
0022c9 93e0 02bf 	STS  _pwm_count+1,R30
                 ; 0000 0C81                     OCR1A+=2;
0022cb b5ea      	IN   R30,0x2A
0022cc b5fb      	IN   R31,0x2A+1
0022cd 9632      	ADIW R30,2
0022ce bdfb      	OUT  0x2A+1,R31
0022cf bdea      	OUT  0x2A,R30
                 ; 0000 0C82                     if (OCR1A >500)
0022d0 b5ea      	IN   R30,0x2A
0022d1 b5fb      	IN   R31,0x2A+1
0022d2 3fe5      	CPI  R30,LOW(0x1F5)
0022d3 e0a1      	LDI  R26,HIGH(0x1F5)
0022d4 07fa      	CPC  R31,R26
0022d5 f020      	BRLO _0x1EC
                 ; 0000 0C83                         {
                 ; 0000 0C84                         OCR1A =500;
0022d6 efe4      	LDI  R30,LOW(500)
0022d7 e0f1      	LDI  R31,HIGH(500)
0022d8 bdfb      	OUT  0x2A+1,R31
0022d9 bdea      	OUT  0x2A,R30
                 ; 0000 0C85                         }
                 ; 0000 0C86                     }
                 _0x1EC:
                 ; 0000 0C87                 read_adc();
                 _0x1EB:
0022da 940e 19af 	CALL _read_adc
                 ; 0000 0C88                 cal_angle();
0022dc da64      	RCALL _cal_angle
                 ; 0000 0C89                 lcd_gotoxy(0,0);
0022dd e0e0      	LDI  R30,LOW(0)
0022de 93ea      	ST   -Y,R30
0022df e0a0      	LDI  R26,LOW(0)
0022e0 940e 2b39 	CALL _lcd_gotoxy
                 ; 0000 0C8A                 lcd_putsf("ang: ");
                +
0022e2 e0a6     +LDI R26 , LOW ( 2 * _0x0 + ( 392 ) )
0022e3 e0b4     +LDI R27 , HIGH ( 2 * _0x0 + ( 392 ) )
                 	__POINTW2FN _0x0,392
0022e4 940e 2b89 	CALL _lcd_putsf
                 ; 0000 0C8B                 display_angle(angle);
0022e6 91a0 02f3 	LDS  R26,_angle
0022e8 91b0 02f4 	LDS  R27,_angle+1
0022ea 940e 0d5d 	CALL _display_angle
                 ; 0000 0C8C                 lcd_gotoxy(0,1);
0022ec e0e0      	LDI  R30,LOW(0)
0022ed 93ea      	ST   -Y,R30
0022ee e0a1      	LDI  R26,LOW(1)
0022ef 940e 2b39 	CALL _lcd_gotoxy
                 ; 0000 0C8D 
                 ; 0000 0C8E                 lcd_putsf("tar: ");
                +
0022f1 e0ac     +LDI R26 , LOW ( 2 * _0x0 + ( 398 ) )
0022f2 e0b4     +LDI R27 , HIGH ( 2 * _0x0 + ( 398 ) )
                 	__POINTW2FN _0x0,398
0022f3 940e 2b89 	CALL _lcd_putsf
                 ; 0000 0C8F                 display_angle(target_angle);
0022f5 91a0 0298 	LDS  R26,_target_angle
0022f7 91b0 0299 	LDS  R27,_target_angle+1
0022f9 940e 0d5d 	CALL _display_angle
                 ; 0000 0C90 
                 ; 0000 0C91                 relay1=0;
0022fb 9897      	CBI  0x12,7
                 ; 0000 0C92                 relay2=1;
0022fc 9aa8      	SBI  0x15,0
                 ; 0000 0C93                 timeout_cnt++;
0022fd e9a4      	LDI  R26,LOW(_timeout_cnt)
0022fe e0b2      	LDI  R27,HIGH(_timeout_cnt)
0022ff 940e 2f17 	CALL __GETD1P_INC
                +
002301 5fef     +SUBI R30 , LOW ( - 1 )
002302 4fff     +SBCI R31 , HIGH ( - 1 )
002303 4f6f     +SBCI R22 , BYTE3 ( - 1 )
002304 4f7f     +SBCI R23 , BYTE4 ( - 1 )
                 	__SUBD1N -1
002305 940e 2f21 	CALL __PUTDP1_DEC
                 ; 0000 0C94                 if(timeout_cnt >100000)      //once every 30 seconds
002307 91a0 0294 	LDS  R26,_timeout_cnt
002309 91b0 0295 	LDS  R27,_timeout_cnt+1
00230b 9180 0296 	LDS  R24,_timeout_cnt+2
00230d 9190 0297 	LDS  R25,_timeout_cnt+3
                +
00230f 3aa1     +CPI R26 , LOW ( 0x186A1 )
002310 e8e6     +LDI R30 , HIGH ( 0x186A1 )
002311 07be     +CPC R27 , R30
002312 e0e1     +LDI R30 , BYTE3 ( 0x186A1 )
002313 078e     +CPC R24 , R30
002314 e0e0     +LDI R30 , BYTE4 ( 0x186A1 )
002315 079e     +CPC R25 , R30
                 	__CPD2N 0x186A1
002316 f184      	BRLT _0x1F1
                 ; 0000 0C95                         {
                 ; 0000 0C96                         timeout_cnt =0;
002317 e0e0      	LDI  R30,LOW(0)
002318 93e0 0294 	STS  _timeout_cnt,R30
00231a 93e0 0295 	STS  _timeout_cnt+1,R30
00231c 93e0 0296 	STS  _timeout_cnt+2,R30
00231e 93e0 0297 	STS  _timeout_cnt+3,R30
                 ; 0000 0C97                         if (!((angle < angle_old - 20) || (angle > angle_old +20)))
002320 01f8      	MOVW R30,R16
002321 9774      	SBIW R30,20
002322 91a0 02f3 	LDS  R26,_angle
002324 91b0 02f4 	LDS  R27,_angle+1
002326 17ae      	CP   R26,R30
002327 07bf      	CPC  R27,R31
002328 f02c      	BRLT _0x1F3
002329 01f8      	MOVW R30,R16
00232a 9674      	ADIW R30,20
00232b 17ea      	CP   R30,R26
00232c 07fb      	CPC  R31,R27
00232d f40c      	BRGE _0x1F4
                 _0x1F3:
00232e c014      	RJMP _0x1F2
                 _0x1F4:
                 ; 0000 0C98                             {
                 ; 0000 0C99                             lcd_clear();
00232f 940e 2b4d 	CALL _lcd_clear
                 ; 0000 0C9A                             err_fl =1;
002331 9468      	SET
002332 f835      	BLD  R3,5
                 ; 0000 0C9B                             led3 =0;
002333 9896      	CBI  0x12,6
                 ; 0000 0C9C                             lcd_putsf("mech. error");
                +
002334 e1a2     +LDI R26 , LOW ( 2 * _0x0 + ( 404 ) )
002335 e0b4     +LDI R27 , HIGH ( 2 * _0x0 + ( 404 ) )
                 	__POINTW2FN _0x0,404
002336 940e 2b89 	CALL _lcd_putsf
                 ; 0000 0C9D                             relay1=relay2 =0;
002338 98a8      	CBI  0x15,0
002339 9897      	CBI  0x12,7
                 ; 0000 0C9E                             delay_ms(3000);
00233a eba8      	LDI  R26,LOW(3000)
00233b e0bb      	LDI  R27,HIGH(3000)
00233c 940e 2c4f 	CALL _delay_ms
                 ; 0000 0C9F                             err_fl =0;
00233e 94e8      	CLT
00233f f835      	BLD  R3,5
                 ; 0000 0CA0                             led3  =1;
002340 9a96      	SBI  0x12,6
                 ; 0000 0CA1                             inf_fl =0;  // break while loop
002341 f827      	BLD  R2,7
                 ; 0000 0CA2                             }
                 ; 0000 0CA3                         else
002342 c004      	RJMP _0x1FD
                 _0x1F2:
                 ; 0000 0CA4                             {
                 ; 0000 0CA5                             angle_old = angle;
                +
002343 9100 02f3+LDS R16 , 0 + ( _angle )
002345 9110 02f4+LDS R17 , 0 + ( _angle ) + 1
                 	__GETWRMN 16,17,0,_angle
                 ; 0000 0CA6                             }
                 _0x1FD:
                 ; 0000 0CA7                         }
                 ; 0000 0CA8 
                 ; 0000 0CA9                 if(!key1)
                 _0x1F1:
002347 99c8      	SBIC 0x19,0
002348 c004      	RJMP _0x1FE
                 ; 0000 0CAA                     {
                 ; 0000 0CAB                     inf_fl =0;        //emergency stop movement by pressing enter key
002349 94e8      	CLT
00234a f827      	BLD  R2,7
                 ; 0000 0CAC                     relay1=relay2=0;
00234b 98a8      	CBI  0x15,0
00234c 9897      	CBI  0x12,7
                 ; 0000 0CAD                     }
                 ; 0000 0CAE                 }
                 _0x1FE:
00234d cf54      	RJMP _0x1E6
                 _0x1E8:
                 ; 0000 0CAF         start_fl =0;
00234e 94e8      	CLT
00234f f825      	BLD  R2,5
                 ; 0000 0CB0         end_fl =1;
002350 9468      	SET
002351 f826      	BLD  R2,6
                 ; 0000 0CB1         relay1=relay2=0;
002352 98a8      	CBI  0x15,0
002353 9897      	CBI  0x12,7
                 ; 0000 0CB2         }
                 ; 0000 0CB3 else if (angle > target_angle +20)     //hysterisis of 2 degrees before action
002354 c0db      	RJMP _0x207
                 _0x1E5:
002355 91e0 0298 	LDS  R30,_target_angle
002357 91f0 0299 	LDS  R31,_target_angle+1
002359 9160 029a 	LDS  R22,_target_angle+2
00235b 9170 029b 	LDS  R23,_target_angle+3
                +
00235d 5eec     +SUBI R30 , LOW ( - 20 )
00235e 4fff     +SBCI R31 , HIGH ( - 20 )
00235f 4f6f     +SBCI R22 , BYTE3 ( - 20 )
002360 4f7f     +SBCI R23 , BYTE4 ( - 20 )
                 	__ADDD1N 20
002361 91a0 02f3 	LDS  R26,_angle
002363 91b0 02f4 	LDS  R27,_angle+1
002365 940e 2e54 	CALL __CWD2
002367 940e 2f94 	CALL __CPD12
002369 f00c      	BRLT PC+2
00236a c0c3      	RJMP _0x208
                 ; 0000 0CB4         {
                 ; 0000 0CB5         timeout_cnt =0;
00236b e0e0      	LDI  R30,LOW(0)
00236c 93e0 0294 	STS  _timeout_cnt,R30
00236e 93e0 0295 	STS  _timeout_cnt+1,R30
002370 93e0 0296 	STS  _timeout_cnt+2,R30
002372 93e0 0297 	STS  _timeout_cnt+3,R30
                 ; 0000 0CB6         inf_fl =1;
002374 9468      	SET
002375 f827      	BLD  R2,7
                 ; 0000 0CB7         angle_old = angle;
                +
002376 9100 02f3+LDS R16 , 0 + ( _angle )
002378 9110 02f4+LDS R17 , 0 + ( _angle ) + 1
                 	__GETWRMN 16,17,0,_angle
                 ; 0000 0CB8  //       panel_cutoff =0;
                 ; 0000 0CB9         while(angle > target_angle && inf_fl)
                 _0x209:
00237a 91e0 0298 	LDS  R30,_target_angle
00237c 91f0 0299 	LDS  R31,_target_angle+1
00237e 9160 029a 	LDS  R22,_target_angle+2
002380 9170 029b 	LDS  R23,_target_angle+3
002382 91a0 02f3 	LDS  R26,_angle
002384 91b0 02f4 	LDS  R27,_angle+1
002386 940e 2e54 	CALL __CWD2
002388 940e 2f94 	CALL __CPD12
00238a f414      	BRGE _0x20C
00238b fc27      	SBRC R2,7
00238c c001      	RJMP _0x20D
                 _0x20C:
00238d c099      	RJMP _0x20B
                 _0x20D:
                 ; 0000 0CBA                 {
                 ; 0000 0CBB /*
                 ; 0000 0CBC   // check routine for low voltage . if battery voltage drops below
                 ; 0000 0CBD   // 10.8V, then display low battery indication. if it recovers within 20 seconds
                 ; 0000 0CBE   // then, get back, else break.
                 ; 0000 0CBF                 if (adc_battery < cutoff_voltage)
                 ; 0000 0CC0                 panel_cutoff++;
                 ; 0000 0CC1                 else
                 ; 0000 0CC2                 panel_cutoff =0;        //reset
                 ; 0000 0CC3 
                 ; 0000 0CC4                 if (panel_cutoff > 100 && panel_cutoff < 5000) //15 seconds
                 ; 0000 0CC5                         {
                 ; 0000 0CC6                         lcd_gotoxy(0,1);
                 ; 0000 0CC7                         lcd_putsf("!!LOW BATTERY!!");
                 ; 0000 0CC8                         flag_01 =1;
                 ; 0000 0CC9 //                        delay_ms(500);
                 ; 0000 0CCA                         }
                 ; 0000 0CCB                 else
                 ; 0000 0CCC                         flag_01 =0;
                 ; 0000 0CCD                 if (panel_cutoff > 5000)
                 ; 0000 0CCE                         {
                 ; 0000 0CCF                         panel_cutoff =0;
                 ; 0000 0CD0                         lcd_clear();
                 ; 0000 0CD1                         err_fl =1;
                 ; 0000 0CD2                         lcd_putsf("LOW BATTERY");
                 ; 0000 0CD3                         lcd_gotoxy(0,1);
                 ; 0000 0CD4                         lcd_putsf("!!!ERROR!!!    ");
                 ; 0000 0CD5                         relay1=relay2 =0;
                 ; 0000 0CD6                         delay_ms(2000);
                 ; 0000 0CD7                         err_fl =0;
                 ; 0000 0CD8                         inf_fl =0;  // break while loop
                 ; 0000 0CD9                          }
                 ; 0000 0CDA */
                 ; 0000 0CDB /////////////////////////////////////////////////////////////////////
                 ; 0000 0CDC //                delay_ms(1);
                 ; 0000 0CDD //                adc_buffer = adc3421_read();
                 ; 0000 0CDE                 #asm("wdr")
00238e 95a8      	wdr
                 ; 0000 0CDF                 pwm_count++;
00238f ebae      	LDI  R26,LOW(_pwm_count)
002390 e0b2      	LDI  R27,HIGH(_pwm_count)
002391 91ed      	LD   R30,X+
002392 91fd      	LD   R31,X+
002393 9631      	ADIW R30,1
002394 93fe      	ST   -X,R31
002395 93ee      	ST   -X,R30
                 ; 0000 0CE0                 if(pwm_count >200)
002396 91a0 02be 	LDS  R26,_pwm_count
002398 91b0 02bf 	LDS  R27,_pwm_count+1
00239a 3ca9      	CPI  R26,LOW(0xC9)
00239b e0e0      	LDI  R30,HIGH(0xC9)
00239c 07be      	CPC  R27,R30
00239d f0a0      	BRLO _0x20E
                 ; 0000 0CE1                     {
                 ; 0000 0CE2                     pwm_count =0;
00239e e0e0      	LDI  R30,LOW(0)
00239f 93e0 02be 	STS  _pwm_count,R30
0023a1 93e0 02bf 	STS  _pwm_count+1,R30
                 ; 0000 0CE3                     OCR1A+=2;
0023a3 b5ea      	IN   R30,0x2A
0023a4 b5fb      	IN   R31,0x2A+1
0023a5 9632      	ADIW R30,2
0023a6 bdfb      	OUT  0x2A+1,R31
0023a7 bdea      	OUT  0x2A,R30
                 ; 0000 0CE4                     if (OCR1A >500)
0023a8 b5ea      	IN   R30,0x2A
0023a9 b5fb      	IN   R31,0x2A+1
0023aa 3fe5      	CPI  R30,LOW(0x1F5)
0023ab e0a1      	LDI  R26,HIGH(0x1F5)
0023ac 07fa      	CPC  R31,R26
0023ad f020      	BRLO _0x20F
                 ; 0000 0CE5                         {
                 ; 0000 0CE6                         OCR1A =500;
0023ae efe4      	LDI  R30,LOW(500)
0023af e0f1      	LDI  R31,HIGH(500)
0023b0 bdfb      	OUT  0x2A+1,R31
0023b1 bdea      	OUT  0x2A,R30
                 ; 0000 0CE7                         }
                 ; 0000 0CE8                     }
                 _0x20F:
                 ; 0000 0CE9                 read_adc();
                 _0x20E:
0023b2 940e 19af 	CALL _read_adc
                 ; 0000 0CEA                 cal_angle();
0023b4 940e 1d41 	CALL _cal_angle
                 ; 0000 0CEB                 lcd_gotoxy(0,0);
0023b6 e0e0      	LDI  R30,LOW(0)
0023b7 93ea      	ST   -Y,R30
0023b8 e0a0      	LDI  R26,LOW(0)
0023b9 940e 2b39 	CALL _lcd_gotoxy
                 ; 0000 0CEC                 lcd_putsf("ang: ");
                +
0023bb e0a6     +LDI R26 , LOW ( 2 * _0x0 + ( 392 ) )
0023bc e0b4     +LDI R27 , HIGH ( 2 * _0x0 + ( 392 ) )
                 	__POINTW2FN _0x0,392
0023bd 940e 2b89 	CALL _lcd_putsf
                 ; 0000 0CED                 display_angle(angle);
0023bf 91a0 02f3 	LDS  R26,_angle
0023c1 91b0 02f4 	LDS  R27,_angle+1
0023c3 940e 0d5d 	CALL _display_angle
                 ; 0000 0CEE                 lcd_gotoxy(0,1);
0023c5 e0e0      	LDI  R30,LOW(0)
0023c6 93ea      	ST   -Y,R30
0023c7 e0a1      	LDI  R26,LOW(1)
0023c8 940e 2b39 	CALL _lcd_gotoxy
                 ; 0000 0CEF 
                 ; 0000 0CF0                 lcd_putsf("tar: ");
                +
0023ca e0ac     +LDI R26 , LOW ( 2 * _0x0 + ( 398 ) )
0023cb e0b4     +LDI R27 , HIGH ( 2 * _0x0 + ( 398 ) )
                 	__POINTW2FN _0x0,398
0023cc 940e 2b89 	CALL _lcd_putsf
                 ; 0000 0CF1                 display_angle(target_angle);
0023ce 91a0 0298 	LDS  R26,_target_angle
0023d0 91b0 0299 	LDS  R27,_target_angle+1
0023d2 940e 0d5d 	CALL _display_angle
                 ; 0000 0CF2 
                 ; 0000 0CF3                 relay1=1;
0023d4 9a97      	SBI  0x12,7
                 ; 0000 0CF4                 relay2=0;
0023d5 98a8      	CBI  0x15,0
                 ; 0000 0CF5                 timeout_cnt++;
0023d6 e9a4      	LDI  R26,LOW(_timeout_cnt)
0023d7 e0b2      	LDI  R27,HIGH(_timeout_cnt)
0023d8 940e 2f17 	CALL __GETD1P_INC
                +
0023da 5fef     +SUBI R30 , LOW ( - 1 )
0023db 4fff     +SBCI R31 , HIGH ( - 1 )
0023dc 4f6f     +SBCI R22 , BYTE3 ( - 1 )
0023dd 4f7f     +SBCI R23 , BYTE4 ( - 1 )
                 	__SUBD1N -1
0023de 940e 2f21 	CALL __PUTDP1_DEC
                 ; 0000 0CF6                 if(timeout_cnt >100000)
0023e0 91a0 0294 	LDS  R26,_timeout_cnt
0023e2 91b0 0295 	LDS  R27,_timeout_cnt+1
0023e4 9180 0296 	LDS  R24,_timeout_cnt+2
0023e6 9190 0297 	LDS  R25,_timeout_cnt+3
                +
0023e8 3aa1     +CPI R26 , LOW ( 0x186A1 )
0023e9 e8e6     +LDI R30 , HIGH ( 0x186A1 )
0023ea 07be     +CPC R27 , R30
0023eb e0e1     +LDI R30 , BYTE3 ( 0x186A1 )
0023ec 078e     +CPC R24 , R30
0023ed e0e0     +LDI R30 , BYTE4 ( 0x186A1 )
0023ee 079e     +CPC R25 , R30
                 	__CPD2N 0x186A1
0023ef f184      	BRLT _0x214
                 ; 0000 0CF7                         {
                 ; 0000 0CF8                         timeout_cnt =0;
0023f0 e0e0      	LDI  R30,LOW(0)
0023f1 93e0 0294 	STS  _timeout_cnt,R30
0023f3 93e0 0295 	STS  _timeout_cnt+1,R30
0023f5 93e0 0296 	STS  _timeout_cnt+2,R30
0023f7 93e0 0297 	STS  _timeout_cnt+3,R30
                 ; 0000 0CF9                         if (!((angle < angle_old - 20) || (angle > angle_old +20)))
0023f9 01f8      	MOVW R30,R16
0023fa 9774      	SBIW R30,20
0023fb 91a0 02f3 	LDS  R26,_angle
0023fd 91b0 02f4 	LDS  R27,_angle+1
0023ff 17ae      	CP   R26,R30
002400 07bf      	CPC  R27,R31
002401 f02c      	BRLT _0x216
002402 01f8      	MOVW R30,R16
002403 9674      	ADIW R30,20
002404 17ea      	CP   R30,R26
002405 07fb      	CPC  R31,R27
002406 f40c      	BRGE _0x217
                 _0x216:
002407 c014      	RJMP _0x215
                 _0x217:
                 ; 0000 0CFA                             {
                 ; 0000 0CFB                              lcd_clear();
002408 940e 2b4d 	CALL _lcd_clear
                 ; 0000 0CFC                             err_fl =1;
00240a 9468      	SET
00240b f835      	BLD  R3,5
                 ; 0000 0CFD                             led3 =0;
00240c 9896      	CBI  0x12,6
                 ; 0000 0CFE                             lcd_putsf("mech. error");
                +
00240d e1a2     +LDI R26 , LOW ( 2 * _0x0 + ( 404 ) )
00240e e0b4     +LDI R27 , HIGH ( 2 * _0x0 + ( 404 ) )
                 	__POINTW2FN _0x0,404
00240f 940e 2b89 	CALL _lcd_putsf
                 ; 0000 0CFF                             relay1=relay2 =0;
002411 98a8      	CBI  0x15,0
002412 9897      	CBI  0x12,7
                 ; 0000 0D00                             delay_ms(3000);
002413 eba8      	LDI  R26,LOW(3000)
002414 e0bb      	LDI  R27,HIGH(3000)
002415 940e 2c4f 	CALL _delay_ms
                 ; 0000 0D01                             err_fl =0;
002417 94e8      	CLT
002418 f835      	BLD  R3,5
                 ; 0000 0D02                             led3 =1;
002419 9a96      	SBI  0x12,6
                 ; 0000 0D03                             inf_fl =0;  // break while loop
00241a f827      	BLD  R2,7
                 ; 0000 0D04                             }
                 ; 0000 0D05                         else
00241b c004      	RJMP _0x220
                 _0x215:
                 ; 0000 0D06                             {
                 ; 0000 0D07                             angle_old = angle;
                +
00241c 9100 02f3+LDS R16 , 0 + ( _angle )
00241e 9110 02f4+LDS R17 , 0 + ( _angle ) + 1
                 	__GETWRMN 16,17,0,_angle
                 ; 0000 0D08                             }
                 _0x220:
                 ; 0000 0D09 
                 ; 0000 0D0A                         }
                 ; 0000 0D0B                 if(!key1)
                 _0x214:
002420 99c8      	SBIC 0x19,0
002421 c004      	RJMP _0x221
                 ; 0000 0D0C                     {
                 ; 0000 0D0D                     inf_fl =0;        //emergency stop movement by pressing enter key
002422 94e8      	CLT
002423 f827      	BLD  R2,7
                 ; 0000 0D0E                     relay1=relay2=0;
002424 98a8      	CBI  0x15,0
002425 9897      	CBI  0x12,7
                 ; 0000 0D0F                     }
                 ; 0000 0D10 
                 ; 0000 0D11 
                 ; 0000 0D12                 }
                 _0x221:
002426 cf53      	RJMP _0x209
                 _0x20B:
                 ; 0000 0D13         start_fl =0;
002427 94e8      	CLT
002428 f825      	BLD  R2,5
                 ; 0000 0D14         end_fl =1;
002429 9468      	SET
00242a f826      	BLD  R2,6
                 ; 0000 0D15         relay1=relay2=0;
00242b 98a8      	CBI  0x15,0
00242c 9897      	CBI  0x12,7
                 ; 0000 0D16 //        print_data();
                 ; 0000 0D17         }
                 ; 0000 0D18 else
00242d c002      	RJMP _0x22A
                 _0x208:
                 ; 0000 0D19         start_fl =0;
00242e 94e8      	CLT
00242f f825      	BLD  R2,5
                 ; 0000 0D1A 
                 ; 0000 0D1B         end_fl =1;
                 _0x22A:
                 _0x207:
002430 9468      	SET
002431 f826      	BLD  R2,6
                 ; 0000 0D1C         relay1=relay2=0;
002432 98a8      	CBI  0x15,0
002433 9897      	CBI  0x12,7
                 ; 0000 0D1D //        #asm("cli")
                 ; 0000 0D1E //        write_2464(record_cnt,angle/100,angle%100,target_angle/100,target_angle%100,hour,minute,day,month,adc_pvolt/10 ...
                 ; 0000 0D1F //        #asm("sei")
                 ; 0000 0D20         record_cnt =0;
002434 e2a0      	LDI  R26,LOW(_record_cnt)
002435 e0b0      	LDI  R27,HIGH(_record_cnt)
002436 e0e0      	LDI  R30,LOW(0)
002437 e0f0      	LDI  R31,HIGH(0)
002438 940e 2f71 	CALL __EEPROMWRW
                 ; 0000 0D21         }
                 ; 0000 0D22 }
                 _0x1E4:
00243a 9109      	LD   R16,Y+
00243b 9119      	LD   R17,Y+
00243c 9508      	RET
                 ; .FEND
                 ;
                 ;
                 ;/*
                 ;void error_check()
                 ;{
                 ;if (adc_pvolt < 1000 || adc_battery <300)
                 ;err_fl1 = 1;
                 ;else
                 ;err_fl1=0;
                 ;if (adc_battery < cutoff_voltage)
                 ;err_fl2 =1;
                 ;if(err_fl2 && adc_battery > reconnect_voltage)//hysterisis for reconnect
                 ;err_fl2 =0;
                 ;}
                 ;*/
                 ;void led_check()
                 ; 0000 0D33 {
                 _led_check:
                 ; .FSTART _led_check
                 ; 0000 0D34 led2=~relay1;
00243d 9b97      	SBIS 0x12,7
00243e c002      	RJMP _0x22F
00243f 98ac      	CBI  0x15,4
002440 c001      	RJMP _0x230
                 _0x22F:
002441 9aac      	SBI  0x15,4
                 _0x230:
                 ; 0000 0D35 led1=~relay2;
002442 9ba8      	SBIS 0x15,0
002443 c002      	RJMP _0x231
002444 9893      	CBI  0x12,3
002445 c001      	RJMP _0x232
                 _0x231:
002446 9a93      	SBI  0x12,3
                 _0x232:
                 ; 0000 0D36 led4 = led5 = led6 = 1;   // turn battery related leds off
002447 9aaa      	SBI  0x15,2
002448 9aa9      	SBI  0x15,1
002449 9aab      	SBI  0x15,3
                 ; 0000 0D37 
                 ; 0000 0D38 if (err_fl )
00244a fe35      	SBRS R3,5
00244b c002      	RJMP _0x239
                 ; 0000 0D39 led3 =0;
00244c 9896      	CBI  0x12,6
                 ; 0000 0D3A else
00244d c001      	RJMP _0x23C
                 _0x239:
                 ; 0000 0D3B 
                 ; 0000 0D3C led3 =1;
00244e 9a96      	SBI  0x12,6
                 ; 0000 0D3D /*
                 ; 0000 0D3E         if (!err_fl1)
                 ; 0000 0D3F             {
                 ; 0000 0D40             if (boost_fl)
                 ; 0000 0D41             led4 =0;
                 ; 0000 0D42             else if (float_fl)
                 ; 0000 0D43             led4 = led_blinkfl;
                 ; 0000 0D44             else
                 ; 0000 0D45             led4 =1;
                 ; 0000 0D46             led5= ~trickle_fl;
                 ; 0000 0D47           }
                 ; 0000 0D48         else
                 ; 0000 0D49             {
                 ; 0000 0D4A             led4 = led5 =1;
                 ; 0000 0D4B             }
                 ; 0000 0D4C        if (adc_battery < cutoff_voltage) led6 =0;       //low battery indication
                 ; 0000 0D4D        else led6 =1;
                 ; 0000 0D4E */
                 ; 0000 0D4F }
                 _0x23C:
00244f 9508      	RET
                 ; .FEND
                 ;
                 ;
                 ;
                 ;
                 ;/*
                 ;void print_control()
                 ;{
                 ;char data;
                 ;while (rx_counter)                     //receive buffer is not empty
                 ;{
                 ;data = getchar();
                 ;switch (data)
                 ;            {
                 ;            case 'p':   printkey_fl =1;
                 ;                        delay_ms(100);
                 ;                        break;
                 ;            case 'r':   putsf("no. of records stored :");
                 ;                        print_analog(record_cnt/14,0);
                 ;                        putsf(" ");
                 ;                        break;
                 ;            case 's':   record_cnt =0;
                 ;                        putsf("records reset!!!");
                 ;                        break;
                 ;            case 'v':   putsf("Panel voltage:");
                 ;                        print_analog(adc_pvolt,2);
                 ;                        putchar('V');
                 ;                        putsf(" ");
                 ;                        break;
                 ;            case 'b':   putsf("Battery voltage:");
                 ;                        print_analog(adc_battery,2);
                 ;                        putchar('V');
                 ;                        putsf(" ");
                 ;                        break;
                 ;            case 'c':   putsf("charge current:");
                 ;                        print_analog(adc_chargecurrent,2);
                 ;                        putchar('A');
                 ;                        putsf(" ");
                 ;                        break;
                 ;            case 'l':   log_fl=1;
                 ;                        putsf("angle  target  time     date       PV   current  batvolt");
                 ;                        putsf("logging started...");
                 ;                        break;
                 ;            case 'm':   log_fl=0;
                 ;                        putsf("logging stopped");
                 ;                        break;
                 ;            default:    break;
                 ;              }
                 ;}
                 ;}
                 ;*/
                 ;
                 ;
                 ;
                 ;
                 ;void rtc_reset(void)
                 ; 0000 0D87 {
                 _rtc_reset:
                 ; .FSTART _rtc_reset
                 ; 0000 0D88 //rtc_get_time(&hour,&minute,&second);
                 ; 0000 0D89 //rtc_get_date(&week,&day,&month,&year);
                 ; 0000 0D8A 
                 ; 0000 0D8B if (hour>23 || second > 59)
002450 e1e7      	LDI  R30,LOW(23)
002451 15e7      	CP   R30,R7
002452 f018      	BRLO _0x240
002453 e3eb      	LDI  R30,LOW(59)
002454 15e9      	CP   R30,R9
002455 f5a0      	BRSH _0x23F
                 _0x240:
                 ; 0000 0D8C {
                 ; 0000 0D8D #asm("cli");
002456 94f8      	cli
                 ; 0000 0D8E rtc_init(0,1,0);
002457 e0e0      	LDI  R30,LOW(0)
002458 93ea      	ST   -Y,R30
002459 e0e1      	LDI  R30,LOW(1)
00245a 93ea      	ST   -Y,R30
00245b e0a0      	LDI  R26,LOW(0)
00245c 940e 2a28 	CALL _rtc_init
                 ; 0000 0D8F delay_ms(500);
00245e efa4      	LDI  R26,LOW(500)
00245f e0b1      	LDI  R27,HIGH(500)
002460 940e 2c4f 	CALL _delay_ms
                 ; 0000 0D90 rtc_set_date(e_week,e_day,e_month,e_year);
002462 e1a7      	LDI  R26,LOW(_e_week)
002463 e0b0      	LDI  R27,HIGH(_e_week)
002464 940e 2f5d 	CALL __EEPROMRDB
002466 93ea      	ST   -Y,R30
002467 e1a9      	LDI  R26,LOW(_e_day)
002468 e0b0      	LDI  R27,HIGH(_e_day)
002469 940e 2f5d 	CALL __EEPROMRDB
00246b 93ea      	ST   -Y,R30
00246c e1a8      	LDI  R26,LOW(_e_month)
00246d e0b0      	LDI  R27,HIGH(_e_month)
00246e 940e 2f5d 	CALL __EEPROMRDB
002470 93ea      	ST   -Y,R30
002471 e1aa      	LDI  R26,LOW(_e_year)
002472 e0b0      	LDI  R27,HIGH(_e_year)
002473 940e 2f5d 	CALL __EEPROMRDB
002475 2fae      	MOV  R26,R30
002476 940e 2acc 	CALL _rtc_set_date
                 ; 0000 0D91 rtc_set_time(e_hour,e_minute,e_second);
002478 e1a4      	LDI  R26,LOW(_e_hour)
002479 e0b0      	LDI  R27,HIGH(_e_hour)
00247a 940e 2f5d 	CALL __EEPROMRDB
00247c 93ea      	ST   -Y,R30
00247d e1a5      	LDI  R26,LOW(_e_minute)
00247e e0b0      	LDI  R27,HIGH(_e_minute)
00247f 940e 2f5d 	CALL __EEPROMRDB
002481 93ea      	ST   -Y,R30
002482 e1a6      	LDI  R26,LOW(_e_second)
002483 e0b0      	LDI  R27,HIGH(_e_second)
002484 940e 2f5d 	CALL __EEPROMRDB
002486 2fae      	MOV  R26,R30
002487 940e 2a77 	CALL _rtc_set_time
                 ; 0000 0D92 #asm("sei");
002489 9478      	sei
                 ; 0000 0D93 }
                 ; 0000 0D94 }
                 _0x23F:
00248a 9508      	RET
                 ; .FEND
                 ;
                 ;/*
                 ;void WDT_off(void)
                 ;{
                 ;// reset WDT
                 ;#asm("wdr")
                 ;// Write logical one to WDTOE and WDE
                 ;WDTCR |= (1<<4) | (1<<3);
                 ;// Turn off WDT
                 ;WDTCR = 0x00;
                 ;}
                 ;*/
                 ;void main(void)
                 ; 0000 0DA2 {
                 _main:
                 ; .FSTART _main
                 ; 0000 0DA3 // Declare your local variables here
                 ; 0000 0DA4 #asm("cli")
00248b 94f8      	cli
                 ; 0000 0DA5 WDT_OFF();
00248c dde0      	RCALL _WDT_OFF
                 ; 0000 0DA6 //#asm ("sei")
                 ; 0000 0DA7 
                 ; 0000 0DA8 init();
00248d dd7b      	RCALL _init
                 ; 0000 0DA9 // Global enable interrupts
                 ; 0000 0DAA #asm("sei")
00248e 9478      	sei
                 ; 0000 0DAB delay_ms(250);
00248f efaa      	LDI  R26,LOW(250)
002490 e0b0      	LDI  R27,0
002491 940e 2c4f 	CALL _delay_ms
                 ; 0000 0DAC rtc_get_time(&hour,&minute,&second);
002493 e0e7      	LDI  R30,LOW(7)
002494 e0f0      	LDI  R31,HIGH(7)
002495 93fa      	ST   -Y,R31
002496 93ea      	ST   -Y,R30
002497 e0e6      	LDI  R30,LOW(6)
002498 e0f0      	LDI  R31,HIGH(6)
002499 93fa      	ST   -Y,R31
00249a 93ea      	ST   -Y,R30
00249b e0a9      	LDI  R26,LOW(9)
00249c e0b0      	LDI  R27,HIGH(9)
00249d 940e 2a47 	CALL _rtc_get_time
                 ; 0000 0DAD rtc_get_date(&week,&day,&month,&year);   //pdi is weekday not used only for cvavr2.05
00249f e0e8      	LDI  R30,LOW(8)
0024a0 e0f0      	LDI  R31,HIGH(8)
0024a1 93fa      	ST   -Y,R31
0024a2 93ea      	ST   -Y,R30
0024a3 e0eb      	LDI  R30,LOW(11)
0024a4 e0f0      	LDI  R31,HIGH(11)
0024a5 93fa      	ST   -Y,R31
0024a6 93ea      	ST   -Y,R30
0024a7 e0ea      	LDI  R30,LOW(10)
0024a8 e0f0      	LDI  R31,HIGH(10)
0024a9 93fa      	ST   -Y,R31
0024aa 93ea      	ST   -Y,R30
0024ab e0ad      	LDI  R26,LOW(13)
0024ac e0b0      	LDI  R27,HIGH(13)
0024ad 940e 2a96 	CALL _rtc_get_date
                 ; 0000 0DAE if (hour>24 || second>59)
0024af e1e8      	LDI  R30,LOW(24)
0024b0 15e7      	CP   R30,R7
0024b1 f018      	BRLO _0x243
0024b2 e3eb      	LDI  R30,LOW(59)
0024b3 15e9      	CP   R30,R9
0024b4 f410      	BRSH _0x242
                 _0x243:
                 ; 0000 0DAF {
                 ; 0000 0DB0 rtc_reset();
0024b5 df9a      	RCALL _rtc_reset
                 ; 0000 0DB1 }
                 ; 0000 0DB2 else
0024b6 c01e      	RJMP _0x245
                 _0x242:
                 ; 0000 0DB3 {
                 ; 0000 0DB4 //if valid rtc data, store the data in eeprom for backup
                 ; 0000 0DB5 e_hour = hour;
0024b7 2de7      	MOV  R30,R7
0024b8 e1a4      	LDI  R26,LOW(_e_hour)
0024b9 e0b0      	LDI  R27,HIGH(_e_hour)
0024ba 940e 2f79 	CALL __EEPROMWRB
                 ; 0000 0DB6 e_minute = minute;
0024bc 2de6      	MOV  R30,R6
0024bd e1a5      	LDI  R26,LOW(_e_minute)
0024be e0b0      	LDI  R27,HIGH(_e_minute)
0024bf 940e 2f79 	CALL __EEPROMWRB
                 ; 0000 0DB7 e_second = second;
0024c1 2de9      	MOV  R30,R9
0024c2 e1a6      	LDI  R26,LOW(_e_second)
0024c3 e0b0      	LDI  R27,HIGH(_e_second)
0024c4 940e 2f79 	CALL __EEPROMWRB
                 ; 0000 0DB8 e_day = day;
0024c6 2deb      	MOV  R30,R11
0024c7 e1a9      	LDI  R26,LOW(_e_day)
0024c8 e0b0      	LDI  R27,HIGH(_e_day)
0024c9 940e 2f79 	CALL __EEPROMWRB
                 ; 0000 0DB9 e_month = month;
0024cb 2dea      	MOV  R30,R10
0024cc e1a8      	LDI  R26,LOW(_e_month)
0024cd e0b0      	LDI  R27,HIGH(_e_month)
0024ce 940e 2f79 	CALL __EEPROMWRB
                 ; 0000 0DBA e_year = year;
0024d0 2ded      	MOV  R30,R13
0024d1 e1aa      	LDI  R26,LOW(_e_year)
0024d2 e0b0      	LDI  R27,HIGH(_e_year)
0024d3 940e 2f79 	CALL __EEPROMWRB
                 ; 0000 0DBB }
                 _0x245:
                 ; 0000 0DBC 
                 ; 0000 0DBD //WDT_ON();
                 ; 0000 0DBE calibuser = calibfact =0;
0024d5 94e8      	CLT
0024d6 f851      	BLD  R5,1
0024d7 f850      	BLD  R5,0
                 ; 0000 0DBF //if (!key1 && key2 && key3 && key4) calibuser =1;
                 ; 0000 0DC0 if (key1 && key2 && !key3 && !key4) calibfact =1;
0024d8 9bc8      	SBIS 0x19,0
0024d9 c006      	RJMP _0x247
0024da 9bc9      	SBIS 0x19,1
0024db c004      	RJMP _0x247
0024dc 99ca      	SBIC 0x19,2
0024dd c002      	RJMP _0x247
0024de 9bcb      	SBIS 0x19,3
0024df c001      	RJMP _0x248
                 _0x247:
0024e0 c002      	RJMP _0x246
                 _0x248:
0024e1 9468      	SET
0024e2 f851      	BLD  R5,1
                 ; 0000 0DC1 lcd_clear();
                 _0x246:
0024e3 940e 2b4d 	CALL _lcd_clear
                 ; 0000 0DC2 if (!calibfact)
0024e5 fc51      	SBRC R5,1
0024e6 c024      	RJMP _0x249
                 ; 0000 0DC3 {
                 ; 0000 0DC4 lcd_putsf("* SINGLE AXIS  *");
                +
0024e7 e1ae     +LDI R26 , LOW ( 2 * _0x0 + ( 416 ) )
0024e8 e0b4     +LDI R27 , HIGH ( 2 * _0x0 + ( 416 ) )
                 	__POINTW2FN _0x0,416
0024e9 940e 2b89 	CALL _lcd_putsf
                 ; 0000 0DC5 lcd_gotoxy(0,1);
0024eb e0e0      	LDI  R30,LOW(0)
0024ec 93ea      	ST   -Y,R30
0024ed e0a1      	LDI  R26,LOW(1)
0024ee 940e 2b39 	CALL _lcd_gotoxy
                 ; 0000 0DC6 lcd_putsf("*SOLAR TRACKER *");
                +
0024f0 e2af     +LDI R26 , LOW ( 2 * _0x0 + ( 433 ) )
0024f1 e0b4     +LDI R27 , HIGH ( 2 * _0x0 + ( 433 ) )
                 	__POINTW2FN _0x0,433
0024f2 940e 2b89 	CALL _lcd_putsf
                 ; 0000 0DC7 delay_ms(2000);
0024f4 eda0      	LDI  R26,LOW(2000)
0024f5 e0b7      	LDI  R27,HIGH(2000)
0024f6 940e 2c4f 	CALL _delay_ms
                 ; 0000 0DC8 lcd_clear();
0024f8 940e 2b4d 	CALL _lcd_clear
                 ; 0000 0DC9 lcd_putsf("*   PLEASE     *");
                +
0024fa e4a0     +LDI R26 , LOW ( 2 * _0x0 + ( 450 ) )
0024fb e0b4     +LDI R27 , HIGH ( 2 * _0x0 + ( 450 ) )
                 	__POINTW2FN _0x0,450
0024fc 940e 2b89 	CALL _lcd_putsf
                 ; 0000 0DCA lcd_gotoxy(0,1);
0024fe e0e0      	LDI  R30,LOW(0)
0024ff 93ea      	ST   -Y,R30
002500 e0a1      	LDI  R26,LOW(1)
002501 940e 2b39 	CALL _lcd_gotoxy
                 ; 0000 0DCB lcd_putsf("*    WAIT      *");
                +
002503 e5a1     +LDI R26 , LOW ( 2 * _0x0 + ( 467 ) )
002504 e0b4     +LDI R27 , HIGH ( 2 * _0x0 + ( 467 ) )
                 	__POINTW2FN _0x0,467
002505 940e 2b89 	CALL _lcd_putsf
                 ; 0000 0DCC delay_ms(1000);
002507 eea8      	LDI  R26,LOW(1000)
002508 e0b3      	LDI  R27,HIGH(1000)
002509 940e 2c4f 	CALL _delay_ms
                 ; 0000 0DCD }
                 ; 0000 0DCE if(calibuser)
                 _0x249:
00250b fe50      	SBRS R5,0
00250c c03d      	RJMP _0x24A
                 ; 0000 0DCF {
                 ; 0000 0DD0 lcd_putsf("the panel ");
                +
00250d e6a2     +LDI R26 , LOW ( 2 * _0x0 + ( 484 ) )
00250e e0b4     +LDI R27 , HIGH ( 2 * _0x0 + ( 484 ) )
                 	__POINTW2FN _0x0,484
00250f 940e 2b89 	CALL _lcd_putsf
                 ; 0000 0DD1 lcd_gotoxy(0,1);
002511 e0e0      	LDI  R30,LOW(0)
002512 93ea      	ST   -Y,R30
002513 e0a1      	LDI  R26,LOW(1)
002514 940e 2b39 	CALL _lcd_gotoxy
                 ; 0000 0DD2 lcd_putsf("calibration mode");
                +
002516 e6ad     +LDI R26 , LOW ( 2 * _0x0 + ( 495 ) )
002517 e0b4     +LDI R27 , HIGH ( 2 * _0x0 + ( 495 ) )
                 	__POINTW2FN _0x0,495
002518 940e 2b89 	CALL _lcd_putsf
                 ; 0000 0DD3 delay_ms(3000);
00251a eba8      	LDI  R26,LOW(3000)
00251b e0bb      	LDI  R27,HIGH(3000)
00251c 940e 2c4f 	CALL _delay_ms
                 ; 0000 0DD4 lcd_gotoxy(0,0);
00251e e0e0      	LDI  R30,LOW(0)
00251f 93ea      	ST   -Y,R30
002520 e0a0      	LDI  R26,LOW(0)
002521 940e 2b39 	CALL _lcd_gotoxy
                 ; 0000 0DD5 lcd_putsf("inc > inch up");
                +
002523 e7ae     +LDI R26 , LOW ( 2 * _0x0 + ( 512 ) )
002524 e0b4     +LDI R27 , HIGH ( 2 * _0x0 + ( 512 ) )
                 	__POINTW2FN _0x0,512
002525 940e 2b89 	CALL _lcd_putsf
                 ; 0000 0DD6 lcd_gotoxy(0,1);
002527 e0e0      	LDI  R30,LOW(0)
002528 93ea      	ST   -Y,R30
002529 e0a1      	LDI  R26,LOW(1)
00252a 940e 2b39 	CALL _lcd_gotoxy
                 ; 0000 0DD7 lcd_putsf("dec > inch down");
                +
00252c e8ac     +LDI R26 , LOW ( 2 * _0x0 + ( 526 ) )
00252d e0b4     +LDI R27 , HIGH ( 2 * _0x0 + ( 526 ) )
                 	__POINTW2FN _0x0,526
00252e 940e 2b89 	CALL _lcd_putsf
                 ; 0000 0DD8 delay_ms(3000);
002530 eba8      	LDI  R26,LOW(3000)
002531 e0bb      	LDI  R27,HIGH(3000)
002532 940e 2c4f 	CALL _delay_ms
                 ; 0000 0DD9 lcd_gotoxy(0,0);
002534 e0e0      	LDI  R30,LOW(0)
002535 93ea      	ST   -Y,R30
002536 e0a0      	LDI  R26,LOW(0)
002537 940e 2b39 	CALL _lcd_gotoxy
                 ; 0000 0DDA lcd_putsf("set-> enter low");
                +
002539 e9ac     +LDI R26 , LOW ( 2 * _0x0 + ( 542 ) )
00253a e0b4     +LDI R27 , HIGH ( 2 * _0x0 + ( 542 ) )
                 	__POINTW2FN _0x0,542
00253b 940e 2b89 	CALL _lcd_putsf
                 ; 0000 0DDB lcd_gotoxy(0,1);
00253d e0e0      	LDI  R30,LOW(0)
00253e 93ea      	ST   -Y,R30
00253f e0a1      	LDI  R26,LOW(1)
002540 940e 2b39 	CALL _lcd_gotoxy
                 ; 0000 0DDC lcd_putsf("shf-> enter high");
                +
002542 eaac     +LDI R26 , LOW ( 2 * _0x0 + ( 558 ) )
002543 e0b4     +LDI R27 , HIGH ( 2 * _0x0 + ( 558 ) )
                 	__POINTW2FN _0x0,558
002544 940e 2b89 	CALL _lcd_putsf
                 ; 0000 0DDD delay_ms(3000);
002546 eba8      	LDI  R26,LOW(3000)
002547 e0bb      	LDI  R27,HIGH(3000)
002548 940e 2c4f 	CALL _delay_ms
                 ; 0000 0DDE }
                 ; 0000 0DDF if(calibfact)
                 _0x24A:
00254a fe51      	SBRS R5,1
00254b c00d      	RJMP _0x24B
                 ; 0000 0DE0 {
                 ; 0000 0DE1 lcd_putsf("adc: ");
                +
00254c ebad     +LDI R26 , LOW ( 2 * _0x0 + ( 575 ) )
00254d e0b4     +LDI R27 , HIGH ( 2 * _0x0 + ( 575 ) )
                 	__POINTW2FN _0x0,575
00254e 940e 2b89 	CALL _lcd_putsf
                 ; 0000 0DE2 lcd_gotoxy(0,1);
002550 e0e0      	LDI  R30,LOW(0)
002551 93ea      	ST   -Y,R30
002552 e0a1      	LDI  R26,LOW(1)
002553 940e 2b39 	CALL _lcd_gotoxy
                 ; 0000 0DE3 lcd_putsf("angle:");
                +
002555 eca2     +LDI R26 , LOW ( 2 * _0x0 + ( 324 ) )
002556 e0b3     +LDI R27 , HIGH ( 2 * _0x0 + ( 324 ) )
                 	__POINTW2FN _0x0,324
002557 940e 2b89 	CALL _lcd_putsf
                 ; 0000 0DE4 }
                 ; 0000 0DE5 
                 ; 0000 0DE6 
                 ; 0000 0DE7 OCR1A = 0x13f;
                 _0x24B:
002559 e3ef      	LDI  R30,LOW(319)
00255a e0f1      	LDI  R31,HIGH(319)
00255b bdfb      	OUT  0x2A+1,R31
00255c bdea      	OUT  0x2A,R30
                 ; 0000 0DE8 //rtc_set_time(12,13,26);
                 ; 0000 0DE9 delay_ms(10);
00255d e0aa      	LDI  R26,LOW(10)
00255e e0b0      	LDI  R27,0
00255f 940e 2c4f 	CALL _delay_ms
                 ; 0000 0DEA eeprom_transfer();
002561 dc3e      	RCALL _eeprom_transfer
                 ; 0000 0DEB while (1)
                 _0x24C:
                 ; 0000 0DEC {
                 ; 0000 0DED #asm("wdr")             //reset watchdog timer
002562 95a8      	wdr
                 ; 0000 0DEE 
                 ; 0000 0DEF 
                 ; 0000 0DF0 if (sleep_fl ==1)
002563 fc37      	SBRC R3,7
                 ; 0000 0DF1 {
                 ; 0000 0DF2 //sleep_enable();
                 ; 0000 0DF3 //idle();
                 ; 0000 0DF4 //delay_ms(500);
                 ; 0000 0DF5 }
                 ; 0000 0DF6 else
002564 c1e3      	RJMP _0x250
                 ; 0000 0DF7 {
                 ; 0000 0DF8 sleep_disable();
002565 940e 2a24 	CALL _sleep_disable
                 ; 0000 0DF9         get_key();
002567 940e 1759 	CALL _get_key
                 ; 0000 0DFA //        ir_cnt++;
                 ; 0000 0DFB //        if(ir_cnt>500)
                 ; 0000 0DFC //        {
                 ; 0000 0DFD //        ir_cnt =0;
                 ; 0000 0DFE //        get_irkey();
                 ; 0000 0DFF //        }
                 ; 0000 0E00         if (modbus_fl)
002569 fe53      	SBRS R5,3
00256a c006      	RJMP _0x251
                 ; 0000 0E01             {
                 ; 0000 0E02             modbus_fl =0;
00256b 94e8      	CLT
00256c f853      	BLD  R5,3
                 ; 0000 0E03             mb_datatransfer();
00256d 940e 03bb 	CALL _mb_datatransfer
                 ; 0000 0E04             check_mbreceived();
00256f 940e 043d 	CALL _check_mbreceived
                 ; 0000 0E05  //           delay_ms(100);
                 ; 0000 0E06 //            mb_dir =0;      //set to receieve
                 ; 0000 0E07             }
                 ; 0000 0E08 //normal run mode with configuration setting and real time display on power on.
                 ; 0000 0E09     if(!calibuser || !calibfact )
                 _0x251:
002571 fe50      	SBRS R5,0
002572 c002      	RJMP _0x253
002573 fc51      	SBRC R5,1
002574 c052      	RJMP _0x252
                 _0x253:
                 ; 0000 0E0A      {
                 ; 0000 0E0B          rtc_reset();
002575 deda      	RCALL _rtc_reset
                 ; 0000 0E0C         led_check();
002576 dec6      	RCALL _led_check
                 ; 0000 0E0D         led2 = ~relay1;
002577 9b97      	SBIS 0x12,7
002578 c002      	RJMP _0x255
002579 98ac      	CBI  0x15,4
00257a c001      	RJMP _0x256
                 _0x255:
00257b 9aac      	SBI  0x15,4
                 _0x256:
                 ; 0000 0E0E         led1 = ~relay2;
00257c 9ba8      	SBIS 0x15,0
00257d c002      	RJMP _0x257
00257e 9893      	CBI  0x12,3
00257f c001      	RJMP _0x258
                 _0x257:
002580 9a93      	SBI  0x12,3
                 _0x258:
                 ; 0000 0E0F         check_mode();
002581 940e 0db2 	CALL _check_mode
                 ; 0000 0E10         read_adc();
002583 940e 19af 	CALL _read_adc
                 ; 0000 0E11         delay_ms(1);
002585 e0a1      	LDI  R26,LOW(1)
002586 e0b0      	LDI  R27,0
002587 940e 2c4f 	CALL _delay_ms
                 ; 0000 0E12         target_cal();
002589 940e 1d46 	CALL _target_cal
                 ; 0000 0E13         check_increment();
00258b 940e 0e66 	CALL _check_increment
                 ; 0000 0E14         check_decrement();
00258d 940e 10aa 	CALL _check_decrement
                 ; 0000 0E15         check_shift();
00258f 940e 12df 	CALL _check_shift
                 ; 0000 0E16         check_enter();
002591 940e 13f0 	CALL _check_enter
                 ; 0000 0E17         blink_control();
002593 940e 0c9e 	CALL _blink_control
                 ; 0000 0E18         display_cnt++;
002595 eca4      	LDI  R26,LOW(_display_cnt)
002596 e0b2      	LDI  R27,HIGH(_display_cnt)
002597 91ed      	LD   R30,X+
002598 91fd      	LD   R31,X+
002599 9631      	ADIW R30,1
00259a 93fe      	ST   -X,R31
00259b 93ee      	ST   -X,R30
                 ; 0000 0E19 //        if(print_fl)
                 ; 0000 0E1A //            {
                 ; 0000 0E1B //            print_fl =0;
                 ; 0000 0E1C //            print_data();
                 ; 0000 0E1D //            }
                 ; 0000 0E1E         if (display_cnt > 100)
00259c 91a0 02c4 	LDS  R26,_display_cnt
00259e 91b0 02c5 	LDS  R27,_display_cnt+1
0025a0 36a5      	CPI  R26,LOW(0x65)
0025a1 e0e0      	LDI  R30,HIGH(0x65)
0025a2 07be      	CPC  R27,R30
0025a3 f048      	BRLO _0x259
                 ; 0000 0E1F                 {
                 ; 0000 0E20                 display_cnt =0;
0025a4 e0e0      	LDI  R30,LOW(0)
0025a5 93e0 02c4 	STS  _display_cnt,R30
0025a7 93e0 02c5 	STS  _display_cnt+1,R30
                 ; 0000 0E21                 display_update();
0025a9 940e 19cd 	CALL _display_update
                 ; 0000 0E22                 cal_angle();
0025ab 940e 1d41 	CALL _cal_angle
                 ; 0000 0E23                 }
                 ; 0000 0E24 
                 ; 0000 0E25         if (mode==0 && !manual_fl ) panel_movement();
                 _0x259:
0025ad 91a0 02ac 	LDS  R26,_mode
0025af 91b0 02ad 	LDS  R27,_mode+1
0025b1 9710      	SBIW R26,0
0025b2 f411      	BRNE _0x25B
0025b3 fe52      	SBRS R5,2
0025b4 c001      	RJMP _0x25C
                 _0x25B:
0025b5 c001      	RJMP _0x25A
                 _0x25C:
0025b6 dcbb      	RCALL _panel_movement
                 ; 0000 0E26         if (manual_fl)
                 _0x25A:
0025b7 fe52      	SBRS R5,2
0025b8 c00e      	RJMP _0x25D
                 ; 0000 0E27         {
                 ; 0000 0E28             OCR1A = 500;
0025b9 efe4      	LDI  R30,LOW(500)
0025ba e0f1      	LDI  R31,HIGH(500)
0025bb bdfb      	OUT  0x2A+1,R31
0025bc bdea      	OUT  0x2A,R30
                 ; 0000 0E29             relay1 = ~key2;
0025bd 9bc9      	SBIS 0x19,1
0025be c002      	RJMP _0x25E
0025bf 9897      	CBI  0x12,7
0025c0 c001      	RJMP _0x25F
                 _0x25E:
0025c1 9a97      	SBI  0x12,7
                 _0x25F:
                 ; 0000 0E2A             relay2 = ~key3;
0025c2 9bca      	SBIS 0x19,2
0025c3 c002      	RJMP _0x260
0025c4 98a8      	CBI  0x15,0
0025c5 c001      	RJMP _0x261
                 _0x260:
0025c6 9aa8      	SBI  0x15,0
                 _0x261:
                 ; 0000 0E2B         }
                 ; 0000 0E2C      }
                 _0x25D:
                 ; 0000 0E2D 
                 ; 0000 0E2E 
                 ; 0000 0E2F /////////////////////////////////////////////////////////
                 ; 0000 0E30 
                 ; 0000 0E31 
                 ; 0000 0E32 //calibration mode for user to set start and end angles
                 ; 0000 0E33     if(calibuser)
                 _0x252:
0025c7 fe50      	SBRS R5,0
0025c8 c0a4      	RJMP _0x262
                 ; 0000 0E34     {
                 ; 0000 0E35     lcd_clear();
0025c9 940e 2b4d 	CALL _lcd_clear
                 ; 0000 0E36     delay_ms(1);
0025cb e0a1      	LDI  R26,LOW(1)
0025cc e0b0      	LDI  R27,0
0025cd 940e 2c4f 	CALL _delay_ms
                 ; 0000 0E37     lcd_putsf("Set Start Angle");
                +
0025cf eca3     +LDI R26 , LOW ( 2 * _0x0 + ( 581 ) )
0025d0 e0b4     +LDI R27 , HIGH ( 2 * _0x0 + ( 581 ) )
                 	__POINTW2FN _0x0,581
0025d1 940e 2b89 	CALL _lcd_putsf
                 ; 0000 0E38     while(key4)
                 _0x263:
0025d3 9bcb      	SBIS 0x19,3
0025d4 c024      	RJMP _0x265
                 ; 0000 0E39     {
                 ; 0000 0E3A //    get_irkey();
                 ; 0000 0E3B     get_key();
0025d5 940e 1759 	CALL _get_key
                 ; 0000 0E3C     delay_ms(1);
0025d7 e0a1      	LDI  R26,LOW(1)
0025d8 e0b0      	LDI  R27,0
0025d9 940e 2c4f 	CALL _delay_ms
                 ; 0000 0E3D //        error_check();
                 ; 0000 0E3E 
                 ; 0000 0E3F //    lcd_gotoxy(0,0);
                 ; 0000 0E40 //    lcd_putsf("Set Start Angle")
                 ; 0000 0E41 
                 ; 0000 0E42 //    put_message(zero_adc);
                 ; 0000 0E43 //    lcd_putsf("   ");
                 ; 0000 0E44 //    put_message(span_adc);
                 ; 0000 0E45     lcd_gotoxy(0,1);
0025db e0e0      	LDI  R30,LOW(0)
0025dc 93ea      	ST   -Y,R30
0025dd e0a1      	LDI  R26,LOW(1)
0025de 940e 2b39 	CALL _lcd_gotoxy
                 ; 0000 0E46     lcd_putsf("angle:");
                +
0025e0 eca2     +LDI R26 , LOW ( 2 * _0x0 + ( 324 ) )
0025e1 e0b3     +LDI R27 , HIGH ( 2 * _0x0 + ( 324 ) )
                 	__POINTW2FN _0x0,324
0025e2 940e 2b89 	CALL _lcd_putsf
                 ; 0000 0E47 //    adc_buffer = adc3421_read();
                 ; 0000 0E48     read_adc();
0025e4 940e 19af 	CALL _read_adc
                 ; 0000 0E49     relay1 = ~key2;
0025e6 9bc9      	SBIS 0x19,1
0025e7 c002      	RJMP _0x266
0025e8 9897      	CBI  0x12,7
0025e9 c001      	RJMP _0x267
                 _0x266:
0025ea 9a97      	SBI  0x12,7
                 _0x267:
                 ; 0000 0E4A     relay2 = ~key3;
0025eb 9bca      	SBIS 0x19,2
0025ec c002      	RJMP _0x268
0025ed 98a8      	CBI  0x15,0
0025ee c001      	RJMP _0x269
                 _0x268:
0025ef 9aa8      	SBI  0x15,0
                 _0x269:
                 ; 0000 0E4B //    key2_fl = key3_fl =0;
                 ; 0000 0E4C     cal_angle();
0025f0 940e 1d41 	CALL _cal_angle
                 ; 0000 0E4D     display_angle(angle);
0025f2 91a0 02f3 	LDS  R26,_angle
0025f4 91b0 02f4 	LDS  R27,_angle+1
0025f6 940e 0d5d 	CALL _display_angle
                 ; 0000 0E4E     }
0025f8 cfda      	RJMP _0x263
                 _0x265:
                 ; 0000 0E4F     e_low_angle = low_angle = angle;
0025f9 91e0 02f3 	LDS  R30,_angle
0025fb 91f0 02f4 	LDS  R31,_angle+1
0025fd 93e0 02ce 	STS  _low_angle,R30
0025ff 93f0 02cf 	STS  _low_angle+1,R31
002601 e0a4      	LDI  R26,LOW(_e_low_angle)
002602 e0b0      	LDI  R27,HIGH(_e_low_angle)
002603 940e 2f71 	CALL __EEPROMWRW
                 ; 0000 0E50     lcd_gotoxy(0,0);
002605 e0e0      	LDI  R30,LOW(0)
002606 93ea      	ST   -Y,R30
002607 e0a0      	LDI  R26,LOW(0)
002608 940e 2b39 	CALL _lcd_gotoxy
                 ; 0000 0E51     lcd_putsf("start angle ");
                +
00260a eda3     +LDI R26 , LOW ( 2 * _0x0 + ( 597 ) )
00260b e0b4     +LDI R27 , HIGH ( 2 * _0x0 + ( 597 ) )
                 	__POINTW2FN _0x0,597
00260c 940e 2b89 	CALL _lcd_putsf
                 ; 0000 0E52     lcd_gotoxy(0,1);
00260e e0e0      	LDI  R30,LOW(0)
00260f 93ea      	ST   -Y,R30
002610 e0a1      	LDI  R26,LOW(1)
002611 940e 2b39 	CALL _lcd_gotoxy
                 ; 0000 0E53     lcd_putsf("accepted!");
                +
002613 eea0     +LDI R26 , LOW ( 2 * _0x0 + ( 610 ) )
002614 e0b4     +LDI R27 , HIGH ( 2 * _0x0 + ( 610 ) )
                 	__POINTW2FN _0x0,610
002615 940e 2b89 	CALL _lcd_putsf
                 ; 0000 0E54     delay_ms(1500);
002617 edac      	LDI  R26,LOW(1500)
002618 e0b5      	LDI  R27,HIGH(1500)
002619 940e 2c4f 	CALL _delay_ms
                 ; 0000 0E55 
                 ; 0000 0E56     lcd_clear();
00261b 940e 2b4d 	CALL _lcd_clear
                 ; 0000 0E57     lcd_putsf("Set End Angle");
                +
00261d eeaa     +LDI R26 , LOW ( 2 * _0x0 + ( 620 ) )
00261e e0b4     +LDI R27 , HIGH ( 2 * _0x0 + ( 620 ) )
                 	__POINTW2FN _0x0,620
00261f 940e 2b89 	CALL _lcd_putsf
                 ; 0000 0E58     while(key1)
                 _0x26A:
002621 9bc8      	SBIS 0x19,0
002622 c024      	RJMP _0x26C
                 ; 0000 0E59     {
                 ; 0000 0E5A //    get_irkey();
                 ; 0000 0E5B     get_key();
002623 940e 1759 	CALL _get_key
                 ; 0000 0E5C     delay_ms(1);
002625 e0a1      	LDI  R26,LOW(1)
002626 e0b0      	LDI  R27,0
002627 940e 2c4f 	CALL _delay_ms
                 ; 0000 0E5D //        error_check();
                 ; 0000 0E5E 
                 ; 0000 0E5F     lcd_gotoxy(0,1);
002629 e0e0      	LDI  R30,LOW(0)
00262a 93ea      	ST   -Y,R30
00262b e0a1      	LDI  R26,LOW(1)
00262c 940e 2b39 	CALL _lcd_gotoxy
                 ; 0000 0E60     lcd_putsf("angle:");
                +
00262e eca2     +LDI R26 , LOW ( 2 * _0x0 + ( 324 ) )
00262f e0b3     +LDI R27 , HIGH ( 2 * _0x0 + ( 324 ) )
                 	__POINTW2FN _0x0,324
002630 940e 2b89 	CALL _lcd_putsf
                 ; 0000 0E61 //    adc_buffer = adc3421_read();
                 ; 0000 0E62     read_adc();
002632 940e 19af 	CALL _read_adc
                 ; 0000 0E63     relay1 = ~key2;
002634 9bc9      	SBIS 0x19,1
002635 c002      	RJMP _0x26D
002636 9897      	CBI  0x12,7
002637 c001      	RJMP _0x26E
                 _0x26D:
002638 9a97      	SBI  0x12,7
                 _0x26E:
                 ; 0000 0E64     relay2 = ~key3;
002639 9bca      	SBIS 0x19,2
00263a c002      	RJMP _0x26F
00263b 98a8      	CBI  0x15,0
00263c c001      	RJMP _0x270
                 _0x26F:
00263d 9aa8      	SBI  0x15,0
                 _0x270:
                 ; 0000 0E65 //    key2_fl = key3_fl =0;
                 ; 0000 0E66     cal_angle();
00263e 940e 1d41 	CALL _cal_angle
                 ; 0000 0E67     display_angle(angle);
002640 91a0 02f3 	LDS  R26,_angle
002642 91b0 02f4 	LDS  R27,_angle+1
002644 940e 0d5d 	CALL _display_angle
                 ; 0000 0E68     }
002646 cfda      	RJMP _0x26A
                 _0x26C:
                 ; 0000 0E69     e_high_angle = high_angle = angle;
002647 91e0 02f3 	LDS  R30,_angle
002649 91f0 02f4 	LDS  R31,_angle+1
00264b 93e0 02d0 	STS  _high_angle,R30
00264d 93f0 02d1 	STS  _high_angle+1,R31
00264f e0a6      	LDI  R26,LOW(_e_high_angle)
002650 e0b0      	LDI  R27,HIGH(_e_high_angle)
002651 940e 2f71 	CALL __EEPROMWRW
                 ; 0000 0E6A     lcd_gotoxy(0,0);
002653 e0e0      	LDI  R30,LOW(0)
002654 93ea      	ST   -Y,R30
002655 e0a0      	LDI  R26,LOW(0)
002656 940e 2b39 	CALL _lcd_gotoxy
                 ; 0000 0E6B     lcd_putsf("end angle ");
                +
002658 efa8     +LDI R26 , LOW ( 2 * _0x0 + ( 634 ) )
002659 e0b4     +LDI R27 , HIGH ( 2 * _0x0 + ( 634 ) )
                 	__POINTW2FN _0x0,634
00265a 940e 2b89 	CALL _lcd_putsf
                 ; 0000 0E6C     lcd_gotoxy(0,1);
00265c e0e0      	LDI  R30,LOW(0)
00265d 93ea      	ST   -Y,R30
00265e e0a1      	LDI  R26,LOW(1)
00265f 940e 2b39 	CALL _lcd_gotoxy
                 ; 0000 0E6D     lcd_putsf("accepted! ");
                +
002661 e0a3     +LDI R26 , LOW ( 2 * _0x0 + ( 645 ) )
002662 e0b5     +LDI R27 , HIGH ( 2 * _0x0 + ( 645 ) )
                 	__POINTW2FN _0x0,645
002663 940e 2b89 	CALL _lcd_putsf
                 ; 0000 0E6E     delay_ms(3000);
002665 eba8      	LDI  R26,LOW(3000)
002666 e0bb      	LDI  R27,HIGH(3000)
002667 940e 2c4f 	CALL _delay_ms
                 ; 0000 0E6F     calibuser =0;
002669 94e8      	CLT
00266a f850      	BLD  R5,0
                 ; 0000 0E70     lcd_clear();
00266b 940e 2b4d 	CALL _lcd_clear
                 ; 0000 0E71     }
                 ; 0000 0E72 ////////////////////////////////////////////////////////////////////
                 ; 0000 0E73 
                 ; 0000 0E74 
                 ; 0000 0E75 
                 ; 0000 0E76  // factory setting for inclinometer and pv/current input calibration.
                 ; 0000 0E77 
                 ; 0000 0E78    if(calibfact)
                 _0x262:
00266d fe51      	SBRS R5,1
00266e c0d9      	RJMP _0x271
                 ; 0000 0E79     {
                 ; 0000 0E7A     record_cnt=0;   //reset record count for printing
00266f e2a0      	LDI  R26,LOW(_record_cnt)
002670 e0b0      	LDI  R27,HIGH(_record_cnt)
002671 e0e0      	LDI  R30,LOW(0)
002672 e0f0      	LDI  R31,HIGH(0)
002673 940e 2f71 	CALL __EEPROMWRW
                 ; 0000 0E7B     lcd_clear();
002675 940e 2b4d 	CALL _lcd_clear
                 ; 0000 0E7C     mux1 =1;
002677 9aad      	SBI  0x15,5
                 ; 0000 0E7D     mux2 =0;
002678 98ae      	CBI  0x15,6
                 ; 0000 0E7E     mux3 =1;
002679 9aaf      	SBI  0x15,7
                 ; 0000 0E7F     delay_ms(250);
00267a efaa      	LDI  R26,LOW(250)
00267b e0b0      	LDI  R27,0
00267c 940e 2c4f 	CALL _delay_ms
                 ; 0000 0E80     while(key2)
                 _0x278:
00267e 9bc9      	SBIS 0x19,1
00267f c035      	RJMP _0x27A
                 ; 0000 0E81     {
                 ; 0000 0E82     adc_buffer = mpu6050_read();
002680 940e 1858 	CALL _mpu6050_read
002682 940e 2e4f 	CALL __CWD1
002684 93e0 0290 	STS  _adc_buffer,R30
002686 93f0 0291 	STS  _adc_buffer+1,R31
002688 9360 0292 	STS  _adc_buffer+2,R22
00268a 9370 0293 	STS  _adc_buffer+3,R23
                 ; 0000 0E83     cal_angle();
00268c 940e 1d41 	CALL _cal_angle
                 ; 0000 0E84     lcd_gotoxy(0,0);
00268e e0e0      	LDI  R30,LOW(0)
00268f 93ea      	ST   -Y,R30
002690 e0a0      	LDI  R26,LOW(0)
002691 940e 2b39 	CALL _lcd_gotoxy
                 ; 0000 0E85     delay_ms(500);
002693 efa4      	LDI  R26,LOW(500)
002694 e0b1      	LDI  R27,HIGH(500)
002695 940e 2c4f 	CALL _delay_ms
                 ; 0000 0E86     lcd_putsf("adc: ");
                +
002697 ebad     +LDI R26 , LOW ( 2 * _0x0 + ( 575 ) )
002698 e0b4     +LDI R27 , HIGH ( 2 * _0x0 + ( 575 ) )
                 	__POINTW2FN _0x0,575
002699 940e 2b89 	CALL _lcd_putsf
                 ; 0000 0E87     put_message(adc_buffer);
00269b 91a0 0290 	LDS  R26,_adc_buffer
00269d 91b0 0291 	LDS  R27,_adc_buffer+1
00269f 9180 0292 	LDS  R24,_adc_buffer+2
0026a1 9190 0293 	LDS  R25,_adc_buffer+3
0026a3 940e 0bc0 	CALL _put_message
                 ; 0000 0E88     lcd_gotoxy(0,1);
0026a5 e0e0      	LDI  R30,LOW(0)
0026a6 93ea      	ST   -Y,R30
0026a7 e0a1      	LDI  R26,LOW(1)
0026a8 940e 2b39 	CALL _lcd_gotoxy
                 ; 0000 0E89     lcd_putsf("angle: ");
                +
0026aa e9ad     +LDI R26 , LOW ( 2 * _0x0 + ( 287 ) )
0026ab e0b3     +LDI R27 , HIGH ( 2 * _0x0 + ( 287 ) )
                 	__POINTW2FN _0x0,287
0026ac 940e 2b89 	CALL _lcd_putsf
                 ; 0000 0E8A     display_angle(angle);
0026ae 91a0 02f3 	LDS  R26,_angle
0026b0 91b0 02f4 	LDS  R27,_angle+1
0026b2 940e 0d5d 	CALL _display_angle
                 ; 0000 0E8B     }
0026b4 cfc9      	RJMP _0x278
                 _0x27A:
                 ; 0000 0E8C     e_zero_adc = zero_adc = adc_buffer;
0026b5 91e0 0290 	LDS  R30,_adc_buffer
0026b7 91f0 0291 	LDS  R31,_adc_buffer+1
0026b9 9160 0292 	LDS  R22,_adc_buffer+2
0026bb 9170 0293 	LDS  R23,_adc_buffer+3
0026bd 93e0 02da 	STS  _zero_adc,R30
0026bf 93f0 02db 	STS  _zero_adc+1,R31
0026c1 9360 02dc 	STS  _zero_adc+2,R22
0026c3 9370 02dd 	STS  _zero_adc+3,R23
0026c5 e0ac      	LDI  R26,LOW(_e_zero_adc)
0026c6 e0b0      	LDI  R27,HIGH(_e_zero_adc)
0026c7 940e 2f69 	CALL __EEPROMWRD
                 ; 0000 0E8D     lcd_clear();
0026c9 940e 2b4d 	CALL _lcd_clear
                 ; 0000 0E8E     lcd_putsf("zero angle ");
                +
0026cb e0ae     +LDI R26 , LOW ( 2 * _0x0 + ( 656 ) )
0026cc e0b5     +LDI R27 , HIGH ( 2 * _0x0 + ( 656 ) )
                 	__POINTW2FN _0x0,656
0026cd 940e 2b89 	CALL _lcd_putsf
                 ; 0000 0E8F     lcd_gotoxy(0,1);
0026cf e0e0      	LDI  R30,LOW(0)
0026d0 93ea      	ST   -Y,R30
0026d1 e0a1      	LDI  R26,LOW(1)
0026d2 940e 2b39 	CALL _lcd_gotoxy
                 ; 0000 0E90     lcd_putsf("accepted! ");
                +
0026d4 e0a3     +LDI R26 , LOW ( 2 * _0x0 + ( 645 ) )
0026d5 e0b5     +LDI R27 , HIGH ( 2 * _0x0 + ( 645 ) )
                 	__POINTW2FN _0x0,645
0026d6 940e 2b89 	CALL _lcd_putsf
                 ; 0000 0E91     delay_ms(3000);
0026d8 eba8      	LDI  R26,LOW(3000)
0026d9 e0bb      	LDI  R27,HIGH(3000)
0026da 940e 2c4f 	CALL _delay_ms
                 ; 0000 0E92     lcd_clear();
0026dc 940e 2b4d 	CALL _lcd_clear
                 ; 0000 0E93     delay_ms(250);
0026de efaa      	LDI  R26,LOW(250)
0026df e0b0      	LDI  R27,0
0026e0 940e 2c4f 	CALL _delay_ms
                 ; 0000 0E94     while(key1)
                 _0x27B:
0026e2 9bc8      	SBIS 0x19,0
0026e3 c035      	RJMP _0x27D
                 ; 0000 0E95     {
                 ; 0000 0E96     adc_buffer = mpu6050_read();
0026e4 940e 1858 	CALL _mpu6050_read
0026e6 940e 2e4f 	CALL __CWD1
0026e8 93e0 0290 	STS  _adc_buffer,R30
0026ea 93f0 0291 	STS  _adc_buffer+1,R31
0026ec 9360 0292 	STS  _adc_buffer+2,R22
0026ee 9370 0293 	STS  _adc_buffer+3,R23
                 ; 0000 0E97     cal_angle();
0026f0 940e 1d41 	CALL _cal_angle
                 ; 0000 0E98     lcd_gotoxy(0,0);
0026f2 e0e0      	LDI  R30,LOW(0)
0026f3 93ea      	ST   -Y,R30
0026f4 e0a0      	LDI  R26,LOW(0)
0026f5 940e 2b39 	CALL _lcd_gotoxy
                 ; 0000 0E99     delay_ms(500);
0026f7 efa4      	LDI  R26,LOW(500)
0026f8 e0b1      	LDI  R27,HIGH(500)
0026f9 940e 2c4f 	CALL _delay_ms
                 ; 0000 0E9A     lcd_putsf("adc: ");
                +
0026fb ebad     +LDI R26 , LOW ( 2 * _0x0 + ( 575 ) )
0026fc e0b4     +LDI R27 , HIGH ( 2 * _0x0 + ( 575 ) )
                 	__POINTW2FN _0x0,575
0026fd 940e 2b89 	CALL _lcd_putsf
                 ; 0000 0E9B     put_message(adc_buffer);
0026ff 91a0 0290 	LDS  R26,_adc_buffer
002701 91b0 0291 	LDS  R27,_adc_buffer+1
002703 9180 0292 	LDS  R24,_adc_buffer+2
002705 9190 0293 	LDS  R25,_adc_buffer+3
002707 940e 0bc0 	CALL _put_message
                 ; 0000 0E9C     lcd_gotoxy(0,1);
002709 e0e0      	LDI  R30,LOW(0)
00270a 93ea      	ST   -Y,R30
00270b e0a1      	LDI  R26,LOW(1)
00270c 940e 2b39 	CALL _lcd_gotoxy
                 ; 0000 0E9D     lcd_putsf("angle: ");
                +
00270e e9ad     +LDI R26 , LOW ( 2 * _0x0 + ( 287 ) )
00270f e0b3     +LDI R27 , HIGH ( 2 * _0x0 + ( 287 ) )
                 	__POINTW2FN _0x0,287
002710 940e 2b89 	CALL _lcd_putsf
                 ; 0000 0E9E     display_angle(angle);
002712 91a0 02f3 	LDS  R26,_angle
002714 91b0 02f4 	LDS  R27,_angle+1
002716 940e 0d5d 	CALL _display_angle
                 ; 0000 0E9F     }
002718 cfc9      	RJMP _0x27B
                 _0x27D:
                 ; 0000 0EA0     e_span_adc = span_adc = adc_buffer;
002719 91e0 0290 	LDS  R30,_adc_buffer
00271b 91f0 0291 	LDS  R31,_adc_buffer+1
00271d 9160 0292 	LDS  R22,_adc_buffer+2
00271f 9170 0293 	LDS  R23,_adc_buffer+3
002721 93e0 02de 	STS  _span_adc,R30
002723 93f0 02df 	STS  _span_adc+1,R31
002725 9360 02e0 	STS  _span_adc+2,R22
002727 9370 02e1 	STS  _span_adc+3,R23
002729 e1a0      	LDI  R26,LOW(_e_span_adc)
00272a e0b0      	LDI  R27,HIGH(_e_span_adc)
00272b 940e 2f69 	CALL __EEPROMWRD
                 ; 0000 0EA1     lcd_clear();
00272d 940e 2b4d 	CALL _lcd_clear
                 ; 0000 0EA2     delay_ms(100);
00272f e6a4      	LDI  R26,LOW(100)
002730 e0b0      	LDI  R27,0
002731 940e 2c4f 	CALL _delay_ms
                 ; 0000 0EA3     lcd_putsf("span angle ");
                +
002733 e1aa     +LDI R26 , LOW ( 2 * _0x0 + ( 668 ) )
002734 e0b5     +LDI R27 , HIGH ( 2 * _0x0 + ( 668 ) )
                 	__POINTW2FN _0x0,668
002735 940e 2b89 	CALL _lcd_putsf
                 ; 0000 0EA4     lcd_gotoxy(0,1);
002737 e0e0      	LDI  R30,LOW(0)
002738 93ea      	ST   -Y,R30
002739 e0a1      	LDI  R26,LOW(1)
00273a 940e 2b39 	CALL _lcd_gotoxy
                 ; 0000 0EA5     lcd_putsf("accepted! ");
                +
00273c e0a3     +LDI R26 , LOW ( 2 * _0x0 + ( 645 ) )
00273d e0b5     +LDI R27 , HIGH ( 2 * _0x0 + ( 645 ) )
                 	__POINTW2FN _0x0,645
00273e 940e 2b89 	CALL _lcd_putsf
                 ; 0000 0EA6     delay_ms(1500);
002740 edac      	LDI  R26,LOW(1500)
002741 e0b5      	LDI  R27,HIGH(1500)
002742 940e 2c4f 	CALL _delay_ms
                 ; 0000 0EA7     calibfact =0;
002744 94e8      	CLT
002745 f851      	BLD  R5,1
                 ; 0000 0EA8     lcd_clear();
002746 940e 2b4d 	CALL _lcd_clear
                 ; 0000 0EA9     }
                 ; 0000 0EAA ///////////////////////////////////////////////
                 ; 0000 0EAB 
                 ; 0000 0EAC 
                 ; 0000 0EAD     }
                 _0x271:
                 _0x250:
                 ; 0000 0EAE     }; //end of while loop
002748 ce19      	RJMP _0x24C
                 ; 0000 0EAF 
                 ; 0000 0EB0 }
                 _0x27E:
002749 cfff      	RJMP _0x27E
                 ; .FEND
                 ;
                 
                 	.CSEG
                 _ftrunc:
                 ; .FSTART _ftrunc
00274a 940e 2f3e 	CALL __PUTPARD2
00274c 817b         ldd  r23,y+3
00274d 816a         ldd  r22,y+2
00274e 81f9         ldd  r31,y+1
00274f 81e8         ld   r30,y
002750 fb77         bst  r23,7
002751 0f77         lsl  r23
002752 fd67         sbrc r22,7
002753 6071         sbr  r23,1
002754 2f97         mov  r25,r23
002755 579e         subi r25,0x7e
002756 f081         breq __ftrunc0
002757 f078         brcs __ftrunc0
002758 3198         cpi  r25,24
002759 f490         brsh __ftrunc1
00275a 27aa         clr  r26
00275b 27bb         clr  r27
00275c 2788         clr  r24
                 __ftrunc2:
00275d 9408         sec
00275e 9587         ror  r24
00275f 95b7         ror  r27
002760 95a7         ror  r26
002761 959a         dec  r25
002762 f7d1         brne __ftrunc2
002763 23ea         and  r30,r26
002764 23fb         and  r31,r27
002765 2368         and  r22,r24
002766 c005         rjmp __ftrunc1
                 __ftrunc0:
002767 94e8         clt
002768 2777         clr  r23
002769 27ee         clr  r30
00276a 27ff         clr  r31
00276b 2766         clr  r22
                 __ftrunc1:
00276c 776f         cbr  r22,0x80
00276d 9576         lsr  r23
00276e f408         brcc __ftrunc3
00276f 6860         sbr  r22,0x80
                 __ftrunc3:
002770 f977         bld  r23,7
002771 91a9         ld   r26,y+
002772 91b9         ld   r27,y+
002773 9189         ld   r24,y+
002774 9199         ld   r25,y+
002775 17ea         cp   r30,r26
002776 07fb         cpc  r31,r27
002777 0768         cpc  r22,r24
002778 0779         cpc  r23,r25
002779 fb97         bst  r25,7
00277a 9508         ret
                 ; .FEND
                 _floor:
                 ; .FSTART _floor
00277b 940e 2f3e 	CALL __PUTPARD2
00277d 940e 2f2f 	CALL __GETD2S0
00277f 940e 274a 	CALL _ftrunc
002781 940e 2f34 	CALL __PUTD1S0
002783 f421          brne __floor1
                 __floor0:
002784 940e 2f2a 	CALL __GETD1S0
002786 940c 2aec 	JMP  _0x2120004
                 __floor1:
002788 f7de          brtc __floor0
002789 940e 2f2a 	CALL __GETD1S0
                +
00278b e0a0     +LDI R26 , LOW ( 0x3F800000 )
00278c e0b0     +LDI R27 , HIGH ( 0x3F800000 )
00278d e880     +LDI R24 , BYTE3 ( 0x3F800000 )
00278e e39f     +LDI R25 , BYTE4 ( 0x3F800000 )
                 	__GETD2N 0x3F800000
00278f 940e 2cf8 	CALL __SUBF12
002791 940c 2aec 	JMP  _0x2120004
                 ; .FEND
                 _sin:
                 ; .FSTART _sin
002793 940e 2f3e 	CALL __PUTPARD2
002795 9724      	SBIW R28,4
002796 931a      	ST   -Y,R17
002797 e010      	LDI  R17,0
                +
002798 81ad     +LDD R26 , Y + 5
002799 81be     +LDD R27 , Y + 5 + 1
00279a 818f     +LDD R24 , Y + 5 + 2
00279b 8598     +LDD R25 , Y + 5 + 3
                 	__GETD2S 5
                +
00279c e8e3     +LDI R30 , LOW ( 0x3E22F983 )
00279d eff9     +LDI R31 , HIGH ( 0x3E22F983 )
00279e e262     +LDI R22 , BYTE3 ( 0x3E22F983 )
00279f e37e     +LDI R23 , BYTE4 ( 0x3E22F983 )
                 	__GETD1N 0x3E22F983
0027a0 940e 2d4f 	CALL __MULF12
                +
0027a2 83ed     +STD Y + 5 , R30
0027a3 83fe     +STD Y + 5 + 1 , R31
0027a4 836f     +STD Y + 5 + 2 , R22
0027a5 8778     +STD Y + 5 + 3 , R23
                 	__PUTD1S 5
                +
0027a6 81ad     +LDD R26 , Y + 5
0027a7 81be     +LDD R27 , Y + 5 + 1
0027a8 818f     +LDD R24 , Y + 5 + 2
0027a9 8598     +LDD R25 , Y + 5 + 3
                 	__GETD2S 5
0027aa dfd0      	RCALL _floor
                +
0027ab 81ad     +LDD R26 , Y + 5
0027ac 81be     +LDD R27 , Y + 5 + 1
0027ad 818f     +LDD R24 , Y + 5 + 2
0027ae 8598     +LDD R25 , Y + 5 + 3
                 	__GETD2S 5
0027af 940e 2f48 	CALL __SWAPD12
0027b1 940e 2cf8 	CALL __SUBF12
                +
0027b3 83ed     +STD Y + 5 , R30
0027b4 83fe     +STD Y + 5 + 1 , R31
0027b5 836f     +STD Y + 5 + 2 , R22
0027b6 8778     +STD Y + 5 + 3 , R23
                 	__PUTD1S 5
                +
0027b7 81ad     +LDD R26 , Y + 5
0027b8 81be     +LDD R27 , Y + 5 + 1
0027b9 818f     +LDD R24 , Y + 5 + 2
0027ba 8598     +LDD R25 , Y + 5 + 3
                 	__GETD2S 5
                +
0027bb e0e0     +LDI R30 , LOW ( 0x3F000000 )
0027bc e0f0     +LDI R31 , HIGH ( 0x3F000000 )
0027bd e060     +LDI R22 , BYTE3 ( 0x3F000000 )
0027be e37f     +LDI R23 , BYTE4 ( 0x3F000000 )
                 	__GETD1N 0x3F000000
0027bf 940e 2de2 	CALL __CMPF12
0027c1 f009      	BREQ PC+2
0027c2 f408      	BRCC PC+2
0027c3 c00f      	RJMP _0x2000017
                +
0027c4 81ed     +LDD R30 , Y + 5
0027c5 81fe     +LDD R31 , Y + 5 + 1
0027c6 816f     +LDD R22 , Y + 5 + 2
0027c7 8578     +LDD R23 , Y + 5 + 3
                 	__GETD1S 5
                +
0027c8 e0a0     +LDI R26 , LOW ( 0x3F000000 )
0027c9 e0b0     +LDI R27 , HIGH ( 0x3F000000 )
0027ca e080     +LDI R24 , BYTE3 ( 0x3F000000 )
0027cb e39f     +LDI R25 , BYTE4 ( 0x3F000000 )
                 	__GETD2N 0x3F000000
0027cc 940e 2cf8 	CALL __SUBF12
                +
0027ce 83ed     +STD Y + 5 , R30
0027cf 83fe     +STD Y + 5 + 1 , R31
0027d0 836f     +STD Y + 5 + 2 , R22
0027d1 8778     +STD Y + 5 + 3 , R23
                 	__PUTD1S 5
0027d2 e011      	LDI  R17,LOW(1)
                 _0x2000017:
                +
0027d3 81ad     +LDD R26 , Y + 5
0027d4 81be     +LDD R27 , Y + 5 + 1
0027d5 818f     +LDD R24 , Y + 5 + 2
0027d6 8598     +LDD R25 , Y + 5 + 3
                 	__GETD2S 5
                +
0027d7 e0e0     +LDI R30 , LOW ( 0x3E800000 )
0027d8 e0f0     +LDI R31 , HIGH ( 0x3E800000 )
0027d9 e860     +LDI R22 , BYTE3 ( 0x3E800000 )
0027da e37e     +LDI R23 , BYTE4 ( 0x3E800000 )
                 	__GETD1N 0x3E800000
0027db 940e 2de2 	CALL __CMPF12
0027dd f009      	BREQ PC+2
0027de f408      	BRCC PC+2
0027df c00a      	RJMP _0x2000018
                +
0027e0 e0e0     +LDI R30 , LOW ( 0x3F000000 )
0027e1 e0f0     +LDI R31 , HIGH ( 0x3F000000 )
0027e2 e060     +LDI R22 , BYTE3 ( 0x3F000000 )
0027e3 e37f     +LDI R23 , BYTE4 ( 0x3F000000 )
                 	__GETD1N 0x3F000000
0027e4 940e 2cf8 	CALL __SUBF12
                +
0027e6 83ed     +STD Y + 5 , R30
0027e7 83fe     +STD Y + 5 + 1 , R31
0027e8 836f     +STD Y + 5 + 2 , R22
0027e9 8778     +STD Y + 5 + 3 , R23
                 	__PUTD1S 5
                 _0x2000018:
0027ea 3010      	CPI  R17,0
0027eb f051      	BREQ _0x2000019
                +
0027ec 81ed     +LDD R30 , Y + 5
0027ed 81fe     +LDD R31 , Y + 5 + 1
0027ee 816f     +LDD R22 , Y + 5 + 2
0027ef 8578     +LDD R23 , Y + 5 + 3
                 	__GETD1S 5
0027f0 940e 2c59 	CALL __ANEGF1
                +
0027f2 83ed     +STD Y + 5 , R30
0027f3 83fe     +STD Y + 5 + 1 , R31
0027f4 836f     +STD Y + 5 + 2 , R22
0027f5 8778     +STD Y + 5 + 3 , R23
                 	__PUTD1S 5
                 _0x2000019:
                +
0027f6 81ed     +LDD R30 , Y + 5
0027f7 81fe     +LDD R31 , Y + 5 + 1
0027f8 816f     +LDD R22 , Y + 5 + 2
0027f9 8578     +LDD R23 , Y + 5 + 3
                 	__GETD1S 5
                +
0027fa 81ad     +LDD R26 , Y + 5
0027fb 81be     +LDD R27 , Y + 5 + 1
0027fc 818f     +LDD R24 , Y + 5 + 2
0027fd 8598     +LDD R25 , Y + 5 + 3
                 	__GETD2S 5
0027fe 940e 2d4f 	CALL __MULF12
                +
002800 83e9     +STD Y + 1 , R30
002801 83fa     +STD Y + 1 + 1 , R31
002802 836b     +STD Y + 1 + 2 , R22
002803 837c     +STD Y + 1 + 3 , R23
                 	__PUTD1S 1
                +
002804 eba1     +LDI R26 , LOW ( 0x4226C4B1 )
002805 ecb4     +LDI R27 , HIGH ( 0x4226C4B1 )
002806 e286     +LDI R24 , BYTE3 ( 0x4226C4B1 )
002807 e492     +LDI R25 , BYTE4 ( 0x4226C4B1 )
                 	__GETD2N 0x4226C4B1
002808 940e 2d4f 	CALL __MULF12
00280a 01df      	MOVW R26,R30
00280b 01cb      	MOVW R24,R22
                +
00280c e1ed     +LDI R30 , LOW ( 0x422DE51D )
00280d eef5     +LDI R31 , HIGH ( 0x422DE51D )
00280e e26d     +LDI R22 , BYTE3 ( 0x422DE51D )
00280f e472     +LDI R23 , BYTE4 ( 0x422DE51D )
                 	__GETD1N 0x422DE51D
002810 940e 2f48 	CALL __SWAPD12
002812 940e 2cf8 	CALL __SUBF12
                +
002814 81a9     +LDD R26 , Y + 1
002815 81ba     +LDD R27 , Y + 1 + 1
002816 818b     +LDD R24 , Y + 1 + 2
002817 819c     +LDD R25 , Y + 1 + 3
                 	__GETD2S 1
002818 940e 2d4f 	CALL __MULF12
                +
00281a e4ac     +LDI R26 , LOW ( 0x4104534C )
00281b e5b3     +LDI R27 , HIGH ( 0x4104534C )
00281c e084     +LDI R24 , BYTE3 ( 0x4104534C )
00281d e491     +LDI R25 , BYTE4 ( 0x4104534C )
                 	__GETD2N 0x4104534C
00281e 940e 2cff 	CALL __ADDF12
                +
002820 81ad     +LDD R26 , Y + 5
002821 81be     +LDD R27 , Y + 5 + 1
002822 818f     +LDD R24 , Y + 5 + 2
002823 8598     +LDD R25 , Y + 5 + 3
                 	__GETD2S 5
002824 940e 2d4f 	CALL __MULF12
002826 937f      	PUSH R23
002827 936f      	PUSH R22
002828 93ff      	PUSH R31
002829 93ef      	PUSH R30
                +
00282a 81e9     +LDD R30 , Y + 1
00282b 81fa     +LDD R31 , Y + 1 + 1
00282c 816b     +LDD R22 , Y + 1 + 2
00282d 817c     +LDD R23 , Y + 1 + 3
                 	__GETD1S 1
                +
00282e e1a1     +LDI R26 , LOW ( 0x3FDEED11 )
00282f eebd     +LDI R27 , HIGH ( 0x3FDEED11 )
002830 ed8e     +LDI R24 , BYTE3 ( 0x3FDEED11 )
002831 e39f     +LDI R25 , BYTE4 ( 0x3FDEED11 )
                 	__GETD2N 0x3FDEED11
002832 940e 2cff 	CALL __ADDF12
                +
002834 81a9     +LDD R26 , Y + 1
002835 81ba     +LDD R27 , Y + 1 + 1
002836 818b     +LDD R24 , Y + 1 + 2
002837 819c     +LDD R25 , Y + 1 + 3
                 	__GETD2S 1
002838 940e 2d4f 	CALL __MULF12
                +
00283a e5ae     +LDI R26 , LOW ( 0x3FA87B5E )
00283b e7bb     +LDI R27 , HIGH ( 0x3FA87B5E )
00283c ea88     +LDI R24 , BYTE3 ( 0x3FA87B5E )
00283d e39f     +LDI R25 , BYTE4 ( 0x3FA87B5E )
                 	__GETD2N 0x3FA87B5E
00283e 940e 2cff 	CALL __ADDF12
002840 91af      	POP  R26
002841 91bf      	POP  R27
002842 918f      	POP  R24
002843 919f      	POP  R25
002844 940e 2d9d 	CALL __DIVF21
002846 c152      	RJMP _0x2120007
                 ; .FEND
                 _cos:
                 ; .FSTART _cos
002847 940e 2f3e 	CALL __PUTPARD2
002849 940e 2f2f 	CALL __GETD2S0
                +
00284b edeb     +LDI R30 , LOW ( 0x3FC90FDB )
00284c e0ff     +LDI R31 , HIGH ( 0x3FC90FDB )
00284d ec69     +LDI R22 , BYTE3 ( 0x3FC90FDB )
00284e e37f     +LDI R23 , BYTE4 ( 0x3FC90FDB )
                 	__GETD1N 0x3FC90FDB
00284f 940e 2cf8 	CALL __SUBF12
002851 01df      	MOVW R26,R30
002852 01cb      	MOVW R24,R22
002853 df3f      	RCALL _sin
002854 940c 2aec 	JMP  _0x2120004
                 ; .FEND
                 _tan:
                 ; .FSTART _tan
002856 940e 2f3e 	CALL __PUTPARD2
002858 9724      	SBIW R28,4
                +
002859 81ac     +LDD R26 , Y + 4
00285a 81bd     +LDD R27 , Y + 4 + 1
00285b 818e     +LDD R24 , Y + 4 + 2
00285c 819f     +LDD R25 , Y + 4 + 3
                 	__GETD2S 4
00285d dfe9      	RCALL _cos
00285e 940e 2f34 	CALL __PUTD1S0
002860 940e 2f8a 	CALL __CPD10
002862 f499      	BRNE _0x200001A
                +
002863 81ac     +LDD R26 , Y + 4
002864 81bd     +LDD R27 , Y + 4 + 1
002865 818e     +LDD R24 , Y + 4 + 2
002866 819f     +LDD R25 , Y + 4 + 3
                 	__GETD2S 4
002867 940e 2f8e 	CALL __CPD02
002869 f434      	BRGE _0x200001B
                +
00286a efef     +LDI R30 , LOW ( 0x7F7FFFFF )
00286b efff     +LDI R31 , HIGH ( 0x7F7FFFFF )
00286c e76f     +LDI R22 , BYTE3 ( 0x7F7FFFFF )
00286d e77f     +LDI R23 , BYTE4 ( 0x7F7FFFFF )
                 	__GETD1N 0x7F7FFFFF
00286e 940c 2aca 	JMP  _0x2120005
                 _0x200001B:
                +
002870 efef     +LDI R30 , LOW ( 0xFF7FFFFF )
002871 efff     +LDI R31 , HIGH ( 0xFF7FFFFF )
002872 e76f     +LDI R22 , BYTE3 ( 0xFF7FFFFF )
002873 ef7f     +LDI R23 , BYTE4 ( 0xFF7FFFFF )
                 	__GETD1N 0xFF7FFFFF
002874 940c 2aca 	JMP  _0x2120005
                 _0x200001A:
                +
002876 81ac     +LDD R26 , Y + 4
002877 81bd     +LDD R27 , Y + 4 + 1
002878 818e     +LDD R24 , Y + 4 + 2
002879 819f     +LDD R25 , Y + 4 + 3
                 	__GETD2S 4
00287a df18      	RCALL _sin
00287b 01df      	MOVW R26,R30
00287c 01cb      	MOVW R24,R22
00287d 940e 2f2a 	CALL __GETD1S0
00287f 940e 2d9d 	CALL __DIVF21
002881 940c 2aca 	JMP  _0x2120005
                 ; .FEND
                 _xatan:
                 ; .FSTART _xatan
002883 940e 2f3e 	CALL __PUTPARD2
002885 9724      	SBIW R28,4
                +
002886 81ec     +LDD R30 , Y + 4
002887 81fd     +LDD R31 , Y + 4 + 1
002888 816e     +LDD R22 , Y + 4 + 2
002889 817f     +LDD R23 , Y + 4 + 3
                 	__GETD1S 4
                +
00288a 81ac     +LDD R26 , Y + 4
00288b 81bd     +LDD R27 , Y + 4 + 1
00288c 818e     +LDD R24 , Y + 4 + 2
00288d 819f     +LDD R25 , Y + 4 + 3
                 	__GETD2S 4
00288e 940e 2d4f 	CALL __MULF12
002890 940e 2f34 	CALL __PUTD1S0
                +
002892 e6a5     +LDI R26 , LOW ( 0x40CBD065 )
002893 edb0     +LDI R27 , HIGH ( 0x40CBD065 )
002894 ec8b     +LDI R24 , BYTE3 ( 0x40CBD065 )
002895 e490     +LDI R25 , BYTE4 ( 0x40CBD065 )
                 	__GETD2N 0x40CBD065
002896 940e 2d4f 	CALL __MULF12
                +
002898 e4ae     +LDI R26 , LOW ( 0x414A8F4E )
002899 e8bf     +LDI R27 , HIGH ( 0x414A8F4E )
00289a e48a     +LDI R24 , BYTE3 ( 0x414A8F4E )
00289b e491     +LDI R25 , BYTE4 ( 0x414A8F4E )
                 	__GETD2N 0x414A8F4E
00289c 940e 2cff 	CALL __ADDF12
                +
00289e 81ac     +LDD R26 , Y + 4
00289f 81bd     +LDD R27 , Y + 4 + 1
0028a0 818e     +LDD R24 , Y + 4 + 2
0028a1 819f     +LDD R25 , Y + 4 + 3
                 	__GETD2S 4
0028a2 940e 2d4f 	CALL __MULF12
0028a4 937f      	PUSH R23
0028a5 936f      	PUSH R22
0028a6 93ff      	PUSH R31
0028a7 93ef      	PUSH R30
0028a8 940e 2f2a 	CALL __GETD1S0
                +
0028aa e0a0     +LDI R26 , LOW ( 0x41296D00 )
0028ab e6bd     +LDI R27 , HIGH ( 0x41296D00 )
0028ac e289     +LDI R24 , BYTE3 ( 0x41296D00 )
0028ad e491     +LDI R25 , BYTE4 ( 0x41296D00 )
                 	__GETD2N 0x41296D00
0028ae 940e 2cff 	CALL __ADDF12
0028b0 940e 2f2f 	CALL __GETD2S0
0028b2 940e 2d4f 	CALL __MULF12
                +
0028b4 e4ae     +LDI R26 , LOW ( 0x414A8F4E )
0028b5 e8bf     +LDI R27 , HIGH ( 0x414A8F4E )
0028b6 e48a     +LDI R24 , BYTE3 ( 0x414A8F4E )
0028b7 e491     +LDI R25 , BYTE4 ( 0x414A8F4E )
                 	__GETD2N 0x414A8F4E
0028b8 940e 2cff 	CALL __ADDF12
0028ba 91af      	POP  R26
0028bb 91bf      	POP  R27
0028bc 918f      	POP  R24
0028bd 919f      	POP  R25
0028be 940e 2d9d 	CALL __DIVF21
0028c0 940c 2aca 	JMP  _0x2120005
                 ; .FEND
                 _yatan:
                 ; .FSTART _yatan
0028c2 940e 2f3e 	CALL __PUTPARD2
0028c4 940e 2f2f 	CALL __GETD2S0
                +
0028c6 eced     +LDI R30 , LOW ( 0x3ED413CD )
0028c7 e1f3     +LDI R31 , HIGH ( 0x3ED413CD )
0028c8 ed64     +LDI R22 , BYTE3 ( 0x3ED413CD )
0028c9 e37e     +LDI R23 , BYTE4 ( 0x3ED413CD )
                 	__GETD1N 0x3ED413CD
0028ca 940e 2de2 	CALL __CMPF12
0028cc f418      	BRSH _0x2000020
0028cd dfb5      	RCALL _xatan
0028ce 940c 2aec 	JMP  _0x2120004
                 _0x2000020:
0028d0 940e 2f2f 	CALL __GETD2S0
                +
0028d2 e7ea     +LDI R30 , LOW ( 0x401A827A )
0028d3 e8f2     +LDI R31 , HIGH ( 0x401A827A )
0028d4 e16a     +LDI R22 , BYTE3 ( 0x401A827A )
0028d5 e470     +LDI R23 , BYTE4 ( 0x401A827A )
                 	__GETD1N 0x401A827A
0028d6 940e 2de2 	CALL __CMPF12
0028d8 f009      	BREQ PC+2
0028d9 f408      	BRCC PC+2
0028da c015      	RJMP _0x2000021
0028db 940e 2f2a 	CALL __GETD1S0
                +
0028dd e0a0     +LDI R26 , LOW ( 0x3F800000 )
0028de e0b0     +LDI R27 , HIGH ( 0x3F800000 )
0028df e880     +LDI R24 , BYTE3 ( 0x3F800000 )
0028e0 e39f     +LDI R25 , BYTE4 ( 0x3F800000 )
                 	__GETD2N 0x3F800000
0028e1 940e 2d9d 	CALL __DIVF21
0028e3 01df      	MOVW R26,R30
0028e4 01cb      	MOVW R24,R22
0028e5 df9d      	RCALL _xatan
                +
0028e6 edab     +LDI R26 , LOW ( 0x3FC90FDB )
0028e7 e0bf     +LDI R27 , HIGH ( 0x3FC90FDB )
0028e8 ec89     +LDI R24 , BYTE3 ( 0x3FC90FDB )
0028e9 e39f     +LDI R25 , BYTE4 ( 0x3FC90FDB )
                 	__GETD2N 0x3FC90FDB
0028ea 940e 2f48 	CALL __SWAPD12
0028ec 940e 2cf8 	CALL __SUBF12
0028ee 940c 2aec 	JMP  _0x2120004
                 _0x2000021:
0028f0 940e 2f2a 	CALL __GETD1S0
                +
0028f2 e0a0     +LDI R26 , LOW ( 0x3F800000 )
0028f3 e0b0     +LDI R27 , HIGH ( 0x3F800000 )
0028f4 e880     +LDI R24 , BYTE3 ( 0x3F800000 )
0028f5 e39f     +LDI R25 , BYTE4 ( 0x3F800000 )
                 	__GETD2N 0x3F800000
0028f6 940e 2cf8 	CALL __SUBF12
0028f8 937f      	PUSH R23
0028f9 936f      	PUSH R22
0028fa 93ff      	PUSH R31
0028fb 93ef      	PUSH R30
0028fc 940e 2f2a 	CALL __GETD1S0
                +
0028fe e0a0     +LDI R26 , LOW ( 0x3F800000 )
0028ff e0b0     +LDI R27 , HIGH ( 0x3F800000 )
002900 e880     +LDI R24 , BYTE3 ( 0x3F800000 )
002901 e39f     +LDI R25 , BYTE4 ( 0x3F800000 )
                 	__GETD2N 0x3F800000
002902 940e 2cff 	CALL __ADDF12
002904 91af      	POP  R26
002905 91bf      	POP  R27
002906 918f      	POP  R24
002907 919f      	POP  R25
002908 940e 2d9d 	CALL __DIVF21
00290a 01df      	MOVW R26,R30
00290b 01cb      	MOVW R24,R22
00290c df76      	RCALL _xatan
                +
00290d edab     +LDI R26 , LOW ( 0x3F490FDB )
00290e e0bf     +LDI R27 , HIGH ( 0x3F490FDB )
00290f e489     +LDI R24 , BYTE3 ( 0x3F490FDB )
002910 e39f     +LDI R25 , BYTE4 ( 0x3F490FDB )
                 	__GETD2N 0x3F490FDB
002911 940e 2cff 	CALL __ADDF12
002913 940c 2aec 	JMP  _0x2120004
                 ; .FEND
                 _asin:
                 ; .FSTART _asin
002915 940e 2f3e 	CALL __PUTPARD2
002917 9724      	SBIW R28,4
002918 931a      	ST   -Y,R17
002919 e010      	LDI  R17,0
                +
00291a 81ad     +LDD R26 , Y + 5
00291b 81be     +LDD R27 , Y + 5 + 1
00291c 818f     +LDD R24 , Y + 5 + 2
00291d 8598     +LDD R25 , Y + 5 + 3
                 	__GETD2S 5
                +
00291e e0e0     +LDI R30 , LOW ( 0xBF800000 )
00291f e0f0     +LDI R31 , HIGH ( 0xBF800000 )
002920 e860     +LDI R22 , BYTE3 ( 0xBF800000 )
002921 eb7f     +LDI R23 , BYTE4 ( 0xBF800000 )
                 	__GETD1N 0xBF800000
002922 940e 2de2 	CALL __CMPF12
002924 f050      	BRLO _0x2000023
                +
002925 e0e0     +LDI R30 , LOW ( 0x3F800000 )
002926 e0f0     +LDI R31 , HIGH ( 0x3F800000 )
002927 e860     +LDI R22 , BYTE3 ( 0x3F800000 )
002928 e37f     +LDI R23 , BYTE4 ( 0x3F800000 )
                 	__GETD1N 0x3F800000
002929 940e 2de2 	CALL __CMPF12
00292b f011      	BREQ PC+3
00292c f008      	BRCS PC+2
00292d c001      	RJMP _0x2000023
00292e c005      	RJMP _0x2000022
                 _0x2000023:
                +
00292f efef     +LDI R30 , LOW ( 0x7F7FFFFF )
002930 efff     +LDI R31 , HIGH ( 0x7F7FFFFF )
002931 e76f     +LDI R22 , BYTE3 ( 0x7F7FFFFF )
002932 e77f     +LDI R23 , BYTE4 ( 0x7F7FFFFF )
                 	__GETD1N 0x7F7FFFFF
002933 c065      	RJMP _0x2120007
                 _0x2000022:
002934 85a8      	LDD  R26,Y+8
002935 23aa      	TST  R26
002936 f45a      	BRPL _0x2000025
                +
002937 81ed     +LDD R30 , Y + 5
002938 81fe     +LDD R31 , Y + 5 + 1
002939 816f     +LDD R22 , Y + 5 + 2
00293a 8578     +LDD R23 , Y + 5 + 3
                 	__GETD1S 5
00293b 940e 2c59 	CALL __ANEGF1
                +
00293d 83ed     +STD Y + 5 , R30
00293e 83fe     +STD Y + 5 + 1 , R31
00293f 836f     +STD Y + 5 + 2 , R22
002940 8778     +STD Y + 5 + 3 , R23
                 	__PUTD1S 5
002941 e011      	LDI  R17,LOW(1)
                 _0x2000025:
                +
002942 81ed     +LDD R30 , Y + 5
002943 81fe     +LDD R31 , Y + 5 + 1
002944 816f     +LDD R22 , Y + 5 + 2
002945 8578     +LDD R23 , Y + 5 + 3
                 	__GETD1S 5
                +
002946 81ad     +LDD R26 , Y + 5
002947 81be     +LDD R27 , Y + 5 + 1
002948 818f     +LDD R24 , Y + 5 + 2
002949 8598     +LDD R25 , Y + 5 + 3
                 	__GETD2S 5
00294a 940e 2d4f 	CALL __MULF12
                +
00294c e0a0     +LDI R26 , LOW ( 0x3F800000 )
00294d e0b0     +LDI R27 , HIGH ( 0x3F800000 )
00294e e880     +LDI R24 , BYTE3 ( 0x3F800000 )
00294f e39f     +LDI R25 , BYTE4 ( 0x3F800000 )
                 	__GETD2N 0x3F800000
002950 940e 2f48 	CALL __SWAPD12
002952 940e 2cf8 	CALL __SUBF12
002954 01df      	MOVW R26,R30
002955 01cb      	MOVW R24,R22
002956 940e 2e02 	CALL _sqrt
                +
002958 83e9     +STD Y + 1 , R30
002959 83fa     +STD Y + 1 + 1 , R31
00295a 836b     +STD Y + 1 + 2 , R22
00295b 837c     +STD Y + 1 + 3 , R23
                 	__PUTD1S 1
                +
00295c 81ad     +LDD R26 , Y + 5
00295d 81be     +LDD R27 , Y + 5 + 1
00295e 818f     +LDD R24 , Y + 5 + 2
00295f 8598     +LDD R25 , Y + 5 + 3
                 	__GETD2S 5
                +
002960 efe3     +LDI R30 , LOW ( 0x3F3504F3 )
002961 e0f4     +LDI R31 , HIGH ( 0x3F3504F3 )
002962 e365     +LDI R22 , BYTE3 ( 0x3F3504F3 )
002963 e37f     +LDI R23 , BYTE4 ( 0x3F3504F3 )
                 	__GETD1N 0x3F3504F3
002964 940e 2de2 	CALL __CMPF12
002966 f009      	BREQ PC+2
002967 f408      	BRCC PC+2
002968 c016      	RJMP _0x2000026
                +
002969 81ed     +LDD R30 , Y + 5
00296a 81fe     +LDD R31 , Y + 5 + 1
00296b 816f     +LDD R22 , Y + 5 + 2
00296c 8578     +LDD R23 , Y + 5 + 3
                 	__GETD1S 5
                +
00296d 81a9     +LDD R26 , Y + 1
00296e 81ba     +LDD R27 , Y + 1 + 1
00296f 818b     +LDD R24 , Y + 1 + 2
002970 819c     +LDD R25 , Y + 1 + 3
                 	__GETD2S 1
002971 940e 2d9d 	CALL __DIVF21
002973 01df      	MOVW R26,R30
002974 01cb      	MOVW R24,R22
002975 df4c      	RCALL _yatan
                +
002976 edab     +LDI R26 , LOW ( 0x3FC90FDB )
002977 e0bf     +LDI R27 , HIGH ( 0x3FC90FDB )
002978 ec89     +LDI R24 , BYTE3 ( 0x3FC90FDB )
002979 e39f     +LDI R25 , BYTE4 ( 0x3FC90FDB )
                 	__GETD2N 0x3FC90FDB
00297a 940e 2f48 	CALL __SWAPD12
00297c 940e 2cf8 	CALL __SUBF12
00297e c00d      	RJMP _0x2000035
                 _0x2000026:
                +
00297f 81e9     +LDD R30 , Y + 1
002980 81fa     +LDD R31 , Y + 1 + 1
002981 816b     +LDD R22 , Y + 1 + 2
002982 817c     +LDD R23 , Y + 1 + 3
                 	__GETD1S 1
                +
002983 81ad     +LDD R26 , Y + 5
002984 81be     +LDD R27 , Y + 5 + 1
002985 818f     +LDD R24 , Y + 5 + 2
002986 8598     +LDD R25 , Y + 5 + 3
                 	__GETD2S 5
002987 940e 2d9d 	CALL __DIVF21
002989 01df      	MOVW R26,R30
00298a 01cb      	MOVW R24,R22
00298b df36      	RCALL _yatan
                 _0x2000035:
                +
00298c 83e9     +STD Y + 1 , R30
00298d 83fa     +STD Y + 1 + 1 , R31
00298e 836b     +STD Y + 1 + 2 , R22
00298f 837c     +STD Y + 1 + 3 , R23
                 	__PUTD1S 1
002990 3010      	CPI  R17,0
002991 f019      	BREQ _0x2000028
002992 940e 2c59 	CALL __ANEGF1
002994 c004      	RJMP _0x2120007
                 _0x2000028:
                +
002995 81e9     +LDD R30 , Y + 1
002996 81fa     +LDD R31 , Y + 1 + 1
002997 816b     +LDD R22 , Y + 1 + 2
002998 817c     +LDD R23 , Y + 1 + 3
                 	__GETD1S 1
                 _0x2120007:
002999 8118      	LDD  R17,Y+0
00299a 9629      	ADIW R28,9
00299b 9508      	RET
                 ; .FEND
                 _atan:
                 ; .FSTART _atan
00299c 940e 2f3e 	CALL __PUTPARD2
00299e 81ab      	LDD  R26,Y+3
00299f 23aa      	TST  R26
0029a0 f02a      	BRMI _0x200002C
0029a1 940e 2f2f 	CALL __GETD2S0
0029a3 df1e      	RCALL _yatan
0029a4 940c 2aec 	JMP  _0x2120004
                 _0x200002C:
0029a6 940e 2f2a 	CALL __GETD1S0
0029a8 940e 2c59 	CALL __ANEGF1
0029aa 01df      	MOVW R26,R30
0029ab 01cb      	MOVW R24,R22
0029ac df15      	RCALL _yatan
0029ad 940e 2c59 	CALL __ANEGF1
0029af 940c 2aec 	JMP  _0x2120004
                 ; .FEND
                 _atan2:
                 ; .FSTART _atan2
0029b1 940e 2f3e 	CALL __PUTPARD2
0029b3 9724      	SBIW R28,4
                +
0029b4 81ec     +LDD R30 , Y + 4
0029b5 81fd     +LDD R31 , Y + 4 + 1
0029b6 816e     +LDD R22 , Y + 4 + 2
0029b7 817f     +LDD R23 , Y + 4 + 3
                 	__GETD1S 4
0029b8 940e 2f8a 	CALL __CPD10
0029ba f4e9      	BRNE _0x200002D
                +
0029bb 85e8     +LDD R30 , Y + 8
0029bc 85f9     +LDD R31 , Y + 8 + 1
0029bd 856a     +LDD R22 , Y + 8 + 2
0029be 857b     +LDD R23 , Y + 8 + 3
                 	__GETD1S 8
0029bf 940e 2f8a 	CALL __CPD10
0029c1 f429      	BRNE _0x200002E
                +
0029c2 efef     +LDI R30 , LOW ( 0x7F7FFFFF )
0029c3 efff     +LDI R31 , HIGH ( 0x7F7FFFFF )
0029c4 e76f     +LDI R22 , BYTE3 ( 0x7F7FFFFF )
0029c5 e77f     +LDI R23 , BYTE4 ( 0x7F7FFFFF )
                 	__GETD1N 0x7F7FFFFF
0029c6 c051      	RJMP _0x2120006
                 _0x200002E:
                +
0029c7 85a8     +LDD R26 , Y + 8
0029c8 85b9     +LDD R27 , Y + 8 + 1
0029c9 858a     +LDD R24 , Y + 8 + 2
0029ca 859b     +LDD R25 , Y + 8 + 3
                 	__GETD2S 8
0029cb 940e 2f8e 	CALL __CPD02
0029cd f42c      	BRGE _0x200002F
                +
0029ce edeb     +LDI R30 , LOW ( 0x3FC90FDB )
0029cf e0ff     +LDI R31 , HIGH ( 0x3FC90FDB )
0029d0 ec69     +LDI R22 , BYTE3 ( 0x3FC90FDB )
0029d1 e37f     +LDI R23 , BYTE4 ( 0x3FC90FDB )
                 	__GETD1N 0x3FC90FDB
0029d2 c045      	RJMP _0x2120006
                 _0x200002F:
                +
0029d3 edeb     +LDI R30 , LOW ( 0xBFC90FDB )
0029d4 e0ff     +LDI R31 , HIGH ( 0xBFC90FDB )
0029d5 ec69     +LDI R22 , BYTE3 ( 0xBFC90FDB )
0029d6 eb7f     +LDI R23 , BYTE4 ( 0xBFC90FDB )
                 	__GETD1N 0xBFC90FDB
0029d7 c040      	RJMP _0x2120006
                 _0x200002D:
                +
0029d8 81ec     +LDD R30 , Y + 4
0029d9 81fd     +LDD R31 , Y + 4 + 1
0029da 816e     +LDD R22 , Y + 4 + 2
0029db 817f     +LDD R23 , Y + 4 + 3
                 	__GETD1S 4
                +
0029dc 85a8     +LDD R26 , Y + 8
0029dd 85b9     +LDD R27 , Y + 8 + 1
0029de 858a     +LDD R24 , Y + 8 + 2
0029df 859b     +LDD R25 , Y + 8 + 3
                 	__GETD2S 8
0029e0 940e 2d9d 	CALL __DIVF21
0029e2 940e 2f34 	CALL __PUTD1S0
                +
0029e4 81ac     +LDD R26 , Y + 4
0029e5 81bd     +LDD R27 , Y + 4 + 1
0029e6 818e     +LDD R24 , Y + 4 + 2
0029e7 819f     +LDD R25 , Y + 4 + 3
                 	__GETD2S 4
0029e8 940e 2f8e 	CALL __CPD02
0029ea f48c      	BRGE _0x2000030
0029eb 85ab      	LDD  R26,Y+11
0029ec 23aa      	TST  R26
0029ed f022      	BRMI _0x2000031
0029ee 940e 2f2f 	CALL __GETD2S0
0029f0 ded1      	RCALL _yatan
0029f1 c026      	RJMP _0x2120006
                 _0x2000031:
0029f2 940e 2f2a 	CALL __GETD1S0
0029f4 940e 2c59 	CALL __ANEGF1
0029f6 01df      	MOVW R26,R30
0029f7 01cb      	MOVW R24,R22
0029f8 dec9      	RCALL _yatan
0029f9 940e 2c59 	CALL __ANEGF1
0029fb c01c      	RJMP _0x2120006
                 _0x2000030:
0029fc 85ab      	LDD  R26,Y+11
0029fd 23aa      	TST  R26
0029fe f082      	BRMI _0x2000032
0029ff 940e 2f2a 	CALL __GETD1S0
002a01 940e 2c59 	CALL __ANEGF1
002a03 01df      	MOVW R26,R30
002a04 01cb      	MOVW R24,R22
002a05 debc      	RCALL _yatan
                +
002a06 edab     +LDI R26 , LOW ( 0x40490FDB )
002a07 e0bf     +LDI R27 , HIGH ( 0x40490FDB )
002a08 e489     +LDI R24 , BYTE3 ( 0x40490FDB )
002a09 e490     +LDI R25 , BYTE4 ( 0x40490FDB )
                 	__GETD2N 0x40490FDB
002a0a 940e 2f48 	CALL __SWAPD12
002a0c 940e 2cf8 	CALL __SUBF12
002a0e c009      	RJMP _0x2120006
                 _0x2000032:
002a0f 940e 2f2f 	CALL __GETD2S0
002a11 deb0      	RCALL _yatan
                +
002a12 edab     +LDI R26 , LOW ( 0xC0490FDB )
002a13 e0bf     +LDI R27 , HIGH ( 0xC0490FDB )
002a14 e489     +LDI R24 , BYTE3 ( 0xC0490FDB )
002a15 ec90     +LDI R25 , BYTE4 ( 0xC0490FDB )
                 	__GETD2N 0xC0490FDB
002a16 940e 2cff 	CALL __ADDF12
                 _0x2120006:
002a18 962c      	ADIW R28,12
002a19 9508      	RET
                 ; .FEND
                 
                 	.CSEG
                 
                 	.CSEG
                 _abs:
                 ; .FSTART _abs
002a1a 93ba      	ST   -Y,R27
002a1b 93aa      	ST   -Y,R26
002a1c 91e9          ld   r30,y+
002a1d 91f9          ld   r31,y+
002a1e 9730          sbiw r30,0
002a1f f41a          brpl __abs0
002a20 95e0          com  r30
002a21 95f0          com  r31
002a22 9631          adiw r30,1
                 __abs0:
002a23 9508          ret
                 ; .FEND
                 
                 	.DSEG
                 
                 	.CSEG
                 	#ifndef __SLEEP_DEFINED__
                 	#endif
                 
                 	.CSEG
                 _sleep_disable:
                 ; .FSTART _sleep_disable
002a24 b7e5         in   r30,power_ctrl_reg
002a25 77ef         cbr  r30,__se_bit
002a26 bfe5         out  power_ctrl_reg,r30
002a27 9508      	RET
                 ; .FEND
                 
                 	.CSEG
                 _rtc_init:
                 ; .FSTART _rtc_init
002a28 93aa      	ST   -Y,R26
002a29 81ea      	LDD  R30,Y+2
002a2a 70e3      	ANDI R30,LOW(0x3)
002a2b 83ea      	STD  Y+2,R30
002a2c 81e9      	LDD  R30,Y+1
002a2d 30e0      	CPI  R30,0
002a2e f019      	BREQ _0x2080003
002a2f 81ea      	LDD  R30,Y+2
002a30 61e0      	ORI  R30,0x10
002a31 83ea      	STD  Y+2,R30
                 _0x2080003:
002a32 81e8      	LD   R30,Y
002a33 30e0      	CPI  R30,0
002a34 f019      	BREQ _0x2080004
002a35 81ea      	LDD  R30,Y+2
002a36 68e0      	ORI  R30,0x80
002a37 83ea      	STD  Y+2,R30
                 _0x2080004:
002a38 940e 2c03 	CALL _i2c_start
002a3a eda0      	LDI  R26,LOW(208)
002a3b 940e 2c37 	CALL _i2c_write
002a3d e0a7      	LDI  R26,LOW(7)
002a3e 940e 2c37 	CALL _i2c_write
002a40 81aa      	LDD  R26,Y+2
002a41 940e 2c37 	CALL _i2c_write
002a43 940e 2c12 	CALL _i2c_stop
002a45 940c 2b9a 	JMP  _0x2120002
                 ; .FEND
                 _rtc_get_time:
                 ; .FSTART _rtc_get_time
002a47 93ba      	ST   -Y,R27
002a48 93aa      	ST   -Y,R26
002a49 940e 2c03 	CALL _i2c_start
002a4b eda0      	LDI  R26,LOW(208)
002a4c 940e 2c37 	CALL _i2c_write
002a4e e0a0      	LDI  R26,LOW(0)
002a4f 940e 2c37 	CALL _i2c_write
002a51 940e 2c12 	CALL _i2c_stop
002a53 940e 2c03 	CALL _i2c_start
002a55 eda1      	LDI  R26,LOW(209)
002a56 940e 2c37 	CALL _i2c_write
002a58 e0a1      	LDI  R26,LOW(1)
002a59 940e 2c1c 	CALL _i2c_read
002a5b 2fae      	MOV  R26,R30
002a5c 940e 2be7 	CALL _bcd2bin
002a5e 81a8      	LD   R26,Y
002a5f 81b9      	LDD  R27,Y+1
002a60 93ec      	ST   X,R30
002a61 e0a1      	LDI  R26,LOW(1)
002a62 940e 2c1c 	CALL _i2c_read
002a64 2fae      	MOV  R26,R30
002a65 940e 2be7 	CALL _bcd2bin
002a67 81aa      	LDD  R26,Y+2
002a68 81bb      	LDD  R27,Y+2+1
002a69 93ec      	ST   X,R30
002a6a e0a0      	LDI  R26,LOW(0)
002a6b 940e 2c1c 	CALL _i2c_read
002a6d 2fae      	MOV  R26,R30
002a6e 940e 2be7 	CALL _bcd2bin
002a70 81ac      	LDD  R26,Y+4
002a71 81bd      	LDD  R27,Y+4+1
002a72 93ec      	ST   X,R30
002a73 940e 2c12 	CALL _i2c_stop
002a75 9626      	ADIW R28,6
002a76 9508      	RET
                 ; .FEND
                 _rtc_set_time:
                 ; .FSTART _rtc_set_time
002a77 93aa      	ST   -Y,R26
002a78 940e 2c03 	CALL _i2c_start
002a7a eda0      	LDI  R26,LOW(208)
002a7b 940e 2c37 	CALL _i2c_write
002a7d e0a0      	LDI  R26,LOW(0)
002a7e 940e 2c37 	CALL _i2c_write
002a80 81a8      	LD   R26,Y
002a81 940e 2bf4 	CALL _bin2bcd
002a83 2fae      	MOV  R26,R30
002a84 940e 2c37 	CALL _i2c_write
002a86 81a9      	LDD  R26,Y+1
002a87 940e 2bf4 	CALL _bin2bcd
002a89 2fae      	MOV  R26,R30
002a8a 940e 2c37 	CALL _i2c_write
002a8c 81aa      	LDD  R26,Y+2
002a8d 940e 2bf4 	CALL _bin2bcd
002a8f 2fae      	MOV  R26,R30
002a90 940e 2c37 	CALL _i2c_write
002a92 940e 2c12 	CALL _i2c_stop
002a94 940c 2b9a 	JMP  _0x2120002
                 ; .FEND
                 _rtc_get_date:
                 ; .FSTART _rtc_get_date
002a96 93ba      	ST   -Y,R27
002a97 93aa      	ST   -Y,R26
002a98 940e 2c03 	CALL _i2c_start
002a9a eda0      	LDI  R26,LOW(208)
002a9b 940e 2c37 	CALL _i2c_write
002a9d e0a3      	LDI  R26,LOW(3)
002a9e 940e 2c37 	CALL _i2c_write
002aa0 940e 2c12 	CALL _i2c_stop
002aa2 940e 2c03 	CALL _i2c_start
002aa4 eda1      	LDI  R26,LOW(209)
002aa5 940e 2c37 	CALL _i2c_write
002aa7 e0a1      	LDI  R26,LOW(1)
002aa8 940e 2c1c 	CALL _i2c_read
002aaa 81ae      	LDD  R26,Y+6
002aab 81bf      	LDD  R27,Y+6+1
002aac 93ec      	ST   X,R30
002aad e0a1      	LDI  R26,LOW(1)
002aae 940e 2c1c 	CALL _i2c_read
002ab0 2fae      	MOV  R26,R30
002ab1 940e 2be7 	CALL _bcd2bin
002ab3 81ac      	LDD  R26,Y+4
002ab4 81bd      	LDD  R27,Y+4+1
002ab5 93ec      	ST   X,R30
002ab6 e0a1      	LDI  R26,LOW(1)
002ab7 940e 2c1c 	CALL _i2c_read
002ab9 2fae      	MOV  R26,R30
002aba 940e 2be7 	CALL _bcd2bin
002abc 81aa      	LDD  R26,Y+2
002abd 81bb      	LDD  R27,Y+2+1
002abe 93ec      	ST   X,R30
002abf e0a0      	LDI  R26,LOW(0)
002ac0 940e 2c1c 	CALL _i2c_read
002ac2 2fae      	MOV  R26,R30
002ac3 940e 2be7 	CALL _bcd2bin
002ac5 81a8      	LD   R26,Y
002ac6 81b9      	LDD  R27,Y+1
002ac7 93ec      	ST   X,R30
002ac8 940e 2c12 	CALL _i2c_stop
                 _0x2120005:
002aca 9628      	ADIW R28,8
002acb 9508      	RET
                 ; .FEND
                 _rtc_set_date:
                 ; .FSTART _rtc_set_date
002acc 93aa      	ST   -Y,R26
002acd 940e 2c03 	CALL _i2c_start
002acf eda0      	LDI  R26,LOW(208)
002ad0 940e 2c37 	CALL _i2c_write
002ad2 e0a3      	LDI  R26,LOW(3)
002ad3 940e 2c37 	CALL _i2c_write
002ad5 81ab      	LDD  R26,Y+3
002ad6 940e 2c37 	CALL _i2c_write
002ad8 81aa      	LDD  R26,Y+2
002ad9 940e 2bf4 	CALL _bin2bcd
002adb 2fae      	MOV  R26,R30
002adc 940e 2c37 	CALL _i2c_write
002ade 81a9      	LDD  R26,Y+1
002adf 940e 2bf4 	CALL _bin2bcd
002ae1 2fae      	MOV  R26,R30
002ae2 940e 2c37 	CALL _i2c_write
002ae4 81a8      	LD   R26,Y
002ae5 940e 2bf4 	CALL _bin2bcd
002ae7 2fae      	MOV  R26,R30
002ae8 940e 2c37 	CALL _i2c_write
002aea 940e 2c12 	CALL _i2c_stop
                 _0x2120004:
002aec 9624      	ADIW R28,4
002aed 9508      	RET
                 ; .FEND
                     .equ __lcd_direction=__lcd_port-1
                     .equ __lcd_pin=__lcd_port-2
                     .equ __lcd_rs=0
                     .equ __lcd_rd=1
                     .equ __lcd_enable=2
                     .equ __lcd_busy_flag=7
                 
                 	.DSEG
                 
                 	.CSEG
                 __lcd_delay_G105:
                 ; .FSTART __lcd_delay_G105
002aee e0ff          ldi   r31,15
                 __lcd_delay0:
002aef 95fa          dec   r31
002af0 f7f1          brne  __lcd_delay0
002af1 9508      	RET
                 ; .FEND
                 __lcd_ready:
                 ; .FSTART __lcd_ready
002af2 b3a7          in    r26,__lcd_direction
002af3 70af          andi  r26,0xf                 ;set as input
002af4 bba7          out   __lcd_direction,r26
002af5 9ac1          sbi   __lcd_port,__lcd_rd     ;RD=1
002af6 98c0          cbi   __lcd_port,__lcd_rs     ;RS=0
                 __lcd_busy:
002af7 dff6      	RCALL __lcd_delay_G105
002af8 9ac2          sbi   __lcd_port,__lcd_enable ;EN=1
002af9 dff4      	RCALL __lcd_delay_G105
002afa b3a6          in    r26,__lcd_pin
002afb 98c2          cbi   __lcd_port,__lcd_enable ;EN=0
002afc dff1      	RCALL __lcd_delay_G105
002afd 9ac2          sbi   __lcd_port,__lcd_enable ;EN=1
002afe dfef      	RCALL __lcd_delay_G105
002aff 98c2          cbi   __lcd_port,__lcd_enable ;EN=0
002b00 fda7          sbrc  r26,__lcd_busy_flag
002b01 cff5          rjmp  __lcd_busy
002b02 9508      	RET
                 ; .FEND
                 __lcd_write_nibble_G105:
                 ; .FSTART __lcd_write_nibble_G105
002b03 7fa0          andi  r26,0xf0
002b04 2bab          or    r26,r27
002b05 bba8          out   __lcd_port,r26          ;write
002b06 9ac2          sbi   __lcd_port,__lcd_enable ;EN=1
002b07 940e 2aee 	CALL __lcd_delay_G105
002b09 98c2          cbi   __lcd_port,__lcd_enable ;EN=0
002b0a 940e 2aee 	CALL __lcd_delay_G105
002b0c 9508      	RET
                 ; .FEND
                 __lcd_write_data:
                 ; .FSTART __lcd_write_data
002b0d 93aa      	ST   -Y,R26
002b0e 98c1          cbi  __lcd_port,__lcd_rd 	  ;RD=0
002b0f b3a7          in    r26,__lcd_direction
002b10 6fa7          ori   r26,0xf0 | (1<<__lcd_rs) | (1<<__lcd_rd) | (1<<__lcd_enable) ;set as output
002b11 bba7          out   __lcd_direction,r26
002b12 b3b8          in    r27,__lcd_port
002b13 70bf          andi  r27,0xf
002b14 81a8          ld    r26,y
002b15 dfed      	RCALL __lcd_write_nibble_G105
002b16 81a8          ld    r26,y
002b17 95a2          swap  r26
002b18 dfea      	RCALL __lcd_write_nibble_G105
002b19 9ac1          sbi   __lcd_port,__lcd_rd     ;RD=1
002b1a 940c 2be5 	JMP  _0x2120001
                 ; .FEND
                 _lcd_write_byte:
                 ; .FSTART _lcd_write_byte
002b1c 93aa      	ST   -Y,R26
002b1d 940e 2af2 	CALL __lcd_ready
002b1f 81a9      	LDD  R26,Y+1
002b20 dfec      	RCALL __lcd_write_data
002b21 940e 2af2 	CALL __lcd_ready
002b23 9ac0          sbi   __lcd_port,__lcd_rs     ;RS=1
002b24 81a8      	LD   R26,Y
002b25 dfe7      	RCALL __lcd_write_data
002b26 c024      	RJMP _0x2120003
                 ; .FEND
                 __lcd_read_nibble_G105:
                 ; .FSTART __lcd_read_nibble_G105
002b27 9ac2          sbi   __lcd_port,__lcd_enable ;EN=1
002b28 940e 2aee 	CALL __lcd_delay_G105
002b2a b3e6          in    r30,__lcd_pin           ;read
002b2b 98c2          cbi   __lcd_port,__lcd_enable ;EN=0
002b2c 940e 2aee 	CALL __lcd_delay_G105
002b2e 7fe0          andi  r30,0xf0
002b2f 9508      	RET
                 ; .FEND
                 _lcd_read_byte0_G105:
                 ; .FSTART _lcd_read_byte0_G105
002b30 940e 2aee 	CALL __lcd_delay_G105
002b32 dff4      	RCALL __lcd_read_nibble_G105
002b33 2fae          mov   r26,r30
002b34 dff2      	RCALL __lcd_read_nibble_G105
002b35 98c1          cbi   __lcd_port,__lcd_rd     ;RD=0
002b36 95e2          swap  r30
002b37 2bea          or    r30,r26
002b38 9508      	RET
                 ; .FEND
                 _lcd_gotoxy:
                 ; .FSTART _lcd_gotoxy
002b39 93aa      	ST   -Y,R26
002b3a 940e 2af2 	CALL __lcd_ready
002b3c 81e8      	LD   R30,Y
002b3d e0f0      	LDI  R31,0
002b3e 56e5      	SUBI R30,LOW(-__base_y_G105)
002b3f 4ffc      	SBCI R31,HIGH(-__base_y_G105)
002b40 81e0      	LD   R30,Z
002b41 81a9      	LDD  R26,Y+1
002b42 0fae      	ADD  R26,R30
002b43 940e 2b0d 	CALL __lcd_write_data
002b45 81e9      	LDD  R30,Y+1
002b46 93e0 039f 	STS  __lcd_x,R30
002b48 81e8      	LD   R30,Y
002b49 93e0 03a0 	STS  __lcd_y,R30
                 _0x2120003:
002b4b 9622      	ADIW R28,2
002b4c 9508      	RET
                 ; .FEND
                 _lcd_clear:
                 ; .FSTART _lcd_clear
002b4d 940e 2af2 	CALL __lcd_ready
002b4f e0a2      	LDI  R26,LOW(2)
002b50 940e 2b0d 	CALL __lcd_write_data
002b52 940e 2af2 	CALL __lcd_ready
002b54 e0ac      	LDI  R26,LOW(12)
002b55 940e 2b0d 	CALL __lcd_write_data
002b57 940e 2af2 	CALL __lcd_ready
002b59 e0a1      	LDI  R26,LOW(1)
002b5a 940e 2b0d 	CALL __lcd_write_data
002b5c e0e0      	LDI  R30,LOW(0)
002b5d 93e0 03a0 	STS  __lcd_y,R30
002b5f 93e0 039f 	STS  __lcd_x,R30
002b61 9508      	RET
                 ; .FEND
                 _lcd_putchar:
                 ; .FSTART _lcd_putchar
002b62 93aa      	ST   -Y,R26
002b63 93ef          push r30
002b64 93ff          push r31
002b65 81a8          ld   r26,y
002b66 9468          set
002b67 30aa          cpi  r26,10
002b68 f039          breq __lcd_putchar1
002b69 94e8          clt
002b6a 91e0 03a1 	LDS  R30,__lcd_maxx
002b6c 91a0 039f 	LDS  R26,__lcd_x
002b6e 17ae      	CP   R26,R30
002b6f f058      	BRLO _0x20A0004
                 	__lcd_putchar1:
002b70 91e0 03a0 	LDS  R30,__lcd_y
002b72 5fef      	SUBI R30,-LOW(1)
002b73 93e0 03a0 	STS  __lcd_y,R30
002b75 e0e0      	LDI  R30,LOW(0)
002b76 93ea      	ST   -Y,R30
002b77 91a0 03a0 	LDS  R26,__lcd_y
002b79 dfbf      	RCALL _lcd_gotoxy
002b7a f056      	brts __lcd_putchar0
                 _0x20A0004:
002b7b 91e0 039f 	LDS  R30,__lcd_x
002b7d 5fef      	SUBI R30,-LOW(1)
002b7e 93e0 039f 	STS  __lcd_x,R30
002b80 df71          rcall __lcd_ready
002b81 9ac0          sbi  __lcd_port,__lcd_rs ;RS=1
002b82 81a8      	LD   R26,Y
002b83 940e 2b0d 	CALL __lcd_write_data
                 __lcd_putchar0:
002b85 91ff          pop  r31
002b86 91ef          pop  r30
002b87 940c 2be5 	JMP  _0x2120001
                 ; .FEND
                 _lcd_putsf:
                 ; .FSTART _lcd_putsf
002b89 93ba      	ST   -Y,R27
002b8a 93aa      	ST   -Y,R26
002b8b 931a      	ST   -Y,R17
                 _0x20A0008:
002b8c 81e9      	LDD  R30,Y+1
002b8d 81fa      	LDD  R31,Y+1+1
002b8e 9631      	ADIW R30,1
002b8f 83e9      	STD  Y+1,R30
002b90 83fa      	STD  Y+1+1,R31
002b91 9731      	SBIW R30,1
002b92 91e4      	LPM  R30,Z
002b93 2f1e      	MOV  R17,R30
002b94 30e0      	CPI  R30,0
002b95 f019      	BREQ _0x20A000A
002b96 2fa1      	MOV  R26,R17
002b97 dfca      	RCALL _lcd_putchar
002b98 cff3      	RJMP _0x20A0008
                 _0x20A000A:
002b99 8118      	LDD  R17,Y+0
                 _0x2120002:
002b9a 9623      	ADIW R28,3
002b9b 9508      	RET
                 ; .FEND
                 __long_delay_G105:
                 ; .FSTART __long_delay_G105
002b9c 27aa          clr   r26
002b9d 27bb          clr   r27
                 __long_delay0:
002b9e 9711          sbiw  r26,1         ;2 cycles
002b9f f7f1          brne  __long_delay0 ;2 cycles
002ba0 9508      	RET
                 ; .FEND
                 __lcd_init_write_G105:
                 ; .FSTART __lcd_init_write_G105
002ba1 93aa      	ST   -Y,R26
002ba2 98c1          cbi  __lcd_port,__lcd_rd 	  ;RD=0
002ba3 b3a7          in    r26,__lcd_direction
002ba4 6fa7          ori   r26,0xf7                ;set as output
002ba5 bba7          out   __lcd_direction,r26
002ba6 b3b8          in    r27,__lcd_port
002ba7 70bf          andi  r27,0xf
002ba8 81a8          ld    r26,y
002ba9 940e 2b03 	CALL __lcd_write_nibble_G105
002bab 9ac1          sbi   __lcd_port,__lcd_rd     ;RD=1
002bac c038      	RJMP _0x2120001
                 ; .FEND
                 _lcd_init:
                 ; .FSTART _lcd_init
002bad 93aa      	ST   -Y,R26
002bae 98c2          cbi   __lcd_port,__lcd_enable ;EN=0
002baf 98c0          cbi   __lcd_port,__lcd_rs     ;RS=0
002bb0 81e8      	LD   R30,Y
002bb1 93e0 03a1 	STS  __lcd_maxx,R30
002bb3 58e0      	SUBI R30,-LOW(128)
                +
002bb4 93e0 039d+STS __base_y_G105 + ( 2 ) , R30
                 	__PUTB1MN __base_y_G105,2
002bb6 81e8      	LD   R30,Y
002bb7 54e0      	SUBI R30,-LOW(192)
                +
002bb8 93e0 039e+STS __base_y_G105 + ( 3 ) , R30
                 	__PUTB1MN __base_y_G105,3
002bba dfe1      	RCALL __long_delay_G105
002bbb e3a0      	LDI  R26,LOW(48)
002bbc dfe4      	RCALL __lcd_init_write_G105
002bbd dfde      	RCALL __long_delay_G105
002bbe e3a0      	LDI  R26,LOW(48)
002bbf dfe1      	RCALL __lcd_init_write_G105
002bc0 dfdb      	RCALL __long_delay_G105
002bc1 e3a0      	LDI  R26,LOW(48)
002bc2 dfde      	RCALL __lcd_init_write_G105
002bc3 dfd8      	RCALL __long_delay_G105
002bc4 e2a0      	LDI  R26,LOW(32)
002bc5 dfdb      	RCALL __lcd_init_write_G105
002bc6 dfd5      	RCALL __long_delay_G105
002bc7 e2a8      	LDI  R26,LOW(40)
002bc8 940e 2b0d 	CALL __lcd_write_data
002bca dfd1      	RCALL __long_delay_G105
002bcb e0a4      	LDI  R26,LOW(4)
002bcc 940e 2b0d 	CALL __lcd_write_data
002bce dfcd      	RCALL __long_delay_G105
002bcf e8a5      	LDI  R26,LOW(133)
002bd0 940e 2b0d 	CALL __lcd_write_data
002bd2 dfc9      	RCALL __long_delay_G105
002bd3 b3a7          in    r26,__lcd_direction
002bd4 70af          andi  r26,0xf                 ;set as input
002bd5 bba7          out   __lcd_direction,r26
002bd6 9ac1          sbi   __lcd_port,__lcd_rd     ;RD=1
002bd7 940e 2b30 	CALL _lcd_read_byte0_G105
002bd9 30e5      	CPI  R30,LOW(0x5)
002bda f011      	BREQ _0x20A000B
002bdb e0e0      	LDI  R30,LOW(0)
002bdc c008      	RJMP _0x2120001
                 _0x20A000B:
002bdd 940e 2af2 	CALL __lcd_ready
002bdf e0a6      	LDI  R26,LOW(6)
002be0 940e 2b0d 	CALL __lcd_write_data
002be2 940e 2b4d 	CALL _lcd_clear
002be4 e0e1      	LDI  R30,LOW(1)
                 _0x2120001:
002be5 9621      	ADIW R28,1
002be6 9508      	RET
                 ; .FEND
                 	#ifndef __SLEEP_DEFINED__
                 	#endif
                 
                 	.CSEG
                 
                 	.CSEG
                 
                 	.CSEG
                 _bcd2bin:
                 ; .FSTART _bcd2bin
002be7 93aa      	ST   -Y,R26
002be8 81e8          ld   r30,y
002be9 95e2          swap r30
002bea 70ef          andi r30,0xf
002beb 2fae          mov  r26,r30
002bec 0faa          lsl  r26
002bed 0faa          lsl  r26
002bee 0fea          add  r30,r26
002bef 0fee          lsl  r30
002bf0 91a9          ld   r26,y+
002bf1 70af          andi r26,0xf
002bf2 0fea          add  r30,r26
002bf3 9508          ret
                 ; .FEND
                 _bin2bcd:
                 ; .FSTART _bin2bcd
002bf4 93aa      	ST   -Y,R26
002bf5 91a9          ld   r26,y+
002bf6 27ee          clr  r30
                 bin2bcd0:
002bf7 50aa          subi r26,10
002bf8 f012          brmi bin2bcd1
002bf9 5fe0          subi r30,-16
002bfa cffc          rjmp bin2bcd0
                 bin2bcd1:
002bfb 5fa6          subi r26,-10
002bfc 0fea          add  r30,r26
002bfd 9508          ret
                 ; .FEND
                 
                 	.DSEG
                 _pi:
000260           	.BYTE 0x4
                 _degs:
000264           	.BYTE 0x4
                 _rads:
000268           	.BYTE 0x4
                 _L:
00026c           	.BYTE 0x4
                 _g:
000270           	.BYTE 0x4
                 _sundia:
000274           	.BYTE 0x4
                 _airrefr:
000278           	.BYTE 0x4
                 _settm:
00027c           	.BYTE 0x4
                 _riset:
000280           	.BYTE 0x4
                 _daytime:
000284           	.BYTE 0x4
                 _sunrise_min:
000288           	.BYTE 0x4
                 _sunset_min:
00028c           	.BYTE 0x4
                 _adc_buffer:
000290           	.BYTE 0x4
                 _timeout_cnt:
000294           	.BYTE 0x4
                 _target_angle:
000298           	.BYTE 0x4
                 _sun_angle:
00029c           	.BYTE 0x4
                 _printkeycnt:
0002a0           	.BYTE 0x4
                 _calibusercnt:
0002a4           	.BYTE 0x4
                 _program_timeout:
0002a8           	.BYTE 0x4
                 _mode:
0002ac           	.BYTE 0x2
                 _set:
0002ae           	.BYTE 0x2
                 _item1:
0002b0           	.BYTE 0x2
                 _bright_cnt:
0002b2           	.BYTE 0x2
                 _mode0_seqcnt:
0002b4           	.BYTE 0x2
                 _end_cnt:
0002b6           	.BYTE 0x2
                 _sleep_counter:
0002b8           	.BYTE 0x2
                 _time_cnt:
0002ba           	.BYTE 0x2
                 _time_cnt1:
0002bc           	.BYTE 0x2
                 _pwm_count:
0002be           	.BYTE 0x2
                 _mode1_count:
0002c0           	.BYTE 0x2
                 _blink_count:
0002c2           	.BYTE 0x2
                 _display_cnt:
0002c4           	.BYTE 0x2
                 _manual_cnt:
0002c6           	.BYTE 0x2
                 _blink_locy:
0002c8           	.BYTE 0x1
                 _blink_data:
0002c9           	.BYTE 0x1
                 _set_latit:
0002ca           	.BYTE 0x2
                 _set_longitude:
0002cc           	.BYTE 0x2
                 _low_angle:
0002ce           	.BYTE 0x2
                 _high_angle:
0002d0           	.BYTE 0x2
                 _time_interval:
0002d2           	.BYTE 0x2
                 _target_time:
0002d4           	.BYTE 0x2
                 _time_elap:
0002d6           	.BYTE 0x2
                 _set_timezone:
0002d8           	.BYTE 0x2
                 _zero_adc:
0002da           	.BYTE 0x4
                 _span_adc:
0002de           	.BYTE 0x4
                 _char_latitude:
0002e2           	.BYTE 0x1
                 _char_longitude:
0002e3           	.BYTE 0x1
                 _char_timezone:
0002e4           	.BYTE 0x1
                 _char_width:
0002e5           	.BYTE 0x1
                 _char_distance:
0002e6           	.BYTE 0x1
                 _char_id:
0002e7           	.BYTE 0x1
                 _char_rate:
0002e8           	.BYTE 0x1
                 
                 	.ESEG
                 _e_set_latit:
000000 5a
000001 0a        	.DB  0x5A,0xA
                 _e_set_longitude:
000002 d4
000003 1c        	.DB  0xD4,0x1C
                 _e_low_angle:
000004 70
000005 fe        	.DB  0x70,0xFE
                 _e_high_angle:
000006 90
000007 01        	.DB  0x90,0x1
                 _e_time_interval:
000008 05
000009 00        	.DB  0x5,0x0
                 _e_set_timezone:
00000a 26
00000b 02        	.DB  0x26,0x2
                 _e_zero_adc:
00000c 00
00000d 00
00000e 00
00000f 00        	.DB  0x0,0x0,0x0,0x0
                 _e_span_adc:
000010 20
000011 4e
000012 00
000013 00        	.DB  0x20,0x4E,0x0,0x0
                 
                 	.ORG 0x20
                 _record_cnt:
000020 00
000021 00        	.DB  0x0,0x0
                 
                 	.ORG 0x14
                 _e_hour:
000014 0c        	.DB  0xC
                 _e_minute:
000015 00        	.DB  0x0
                 _e_second:
000016 00        	.DB  0x0
                 _e_week:
000017 01        	.DB  0x1
                 _e_month:
000018 06        	.DB  0x6
                 _e_day:
000019 01        	.DB  0x1
                 _e_year:
00001a 13        	.DB  0x13
                 
                 	.DSEG
                 _x_angle:
0002e9           	.BYTE 0x2
                 _y_angle:
0002eb           	.BYTE 0x2
                 _z_angle:
0002ed           	.BYTE 0x2
                 _pitch:
0002ef           	.BYTE 0x2
                 _roll:
0002f1           	.BYTE 0x2
                 _angle:
0002f3           	.BYTE 0x2
                 _Gyrox:
0002f5           	.BYTE 0x2
                 _Gyroy:
0002f7           	.BYTE 0x2
                 _Gyroz:
0002f9           	.BYTE 0x2
                 _angle_filt:
0002fb           	.BYTE 0x8
                 _set_distance:
000303           	.BYTE 0x2
                 _set_width:
000305           	.BYTE 0x2
                 _modbus_id:
000307           	.BYTE 0x2
                 _modbus_rate:
000309           	.BYTE 0x2
                 
                 	.ESEG
                 _e_set_width:
00001b 0a
00001c 00        	.DB  0xA,0x0
                 _e_set_distance:
00001d 14
00001e 00        	.DB  0x14,0x0
                 
                 	.ORG 0x22
                 _e_modbus_id:
000022 0d
000023 00        	.DB  0xD,0x0
                 _e_modbus_rate:
000024 01
000025 00        	.DB  0x1,0x0
                 
                 	.DSEG
                 _new_target:
00030b           	.BYTE 0x2
                 _b_factor:
00030d           	.BYTE 0x2
                 _gangle:
00030f           	.BYTE 0x2
                 _rx_buffer:
000311           	.BYTE 0x14
                 _rx_wr_index:
000325           	.BYTE 0x1
                 _rx_rd_index:
000326           	.BYTE 0x1
                 _rx_counter:
000327           	.BYTE 0x1
                 _mbreceived_data:
000328           	.BYTE 0xA
                 _tx_buffer:
000332           	.BYTE 0x30
                 _tx_wr_index:
000362           	.BYTE 0x1
                 _tx_rd_index:
000363           	.BYTE 0x1
                 _tx_counter:
000364           	.BYTE 0x1
                 _mb_data:
000365           	.BYTE 0x28
                 _mb_inputdata:
00038d           	.BYTE 0xA
                 __seed_G102:
000397           	.BYTE 0x4
                 __base_y_G105:
00039b           	.BYTE 0x4
                 __lcd_x:
00039f           	.BYTE 0x1
                 __lcd_y:
0003a0           	.BYTE 0x1
                 __lcd_maxx:
0003a1           	.BYTE 0x1
                 
                 	.CSEG
                 
                 	.CSEG
                 	.equ __i2c_dir=__i2c_port-1
                 	.equ __i2c_pin=__i2c_port-2
                 
                 _i2c_init:
002bfe 98dd      	cbi  __i2c_port,__scl_bit
002bff 98dc      	cbi  __i2c_port,__sda_bit
002c00 9ad5      	sbi  __i2c_dir,__scl_bit
002c01 98d4      	cbi  __i2c_dir,__sda_bit
002c02 c015      	rjmp __i2c_delay2
                 _i2c_start:
002c03 98d4      	cbi  __i2c_dir,__sda_bit
002c04 98d5      	cbi  __i2c_dir,__scl_bit
002c05 27ee      	clr  r30
002c06 0000      	nop
002c07 9bcc      	sbis __i2c_pin,__sda_bit
002c08 9508      	ret
002c09 9bcd      	sbis __i2c_pin,__scl_bit
002c0a 9508      	ret
002c0b d004      	rcall __i2c_delay1
002c0c 9ad4      	sbi  __i2c_dir,__sda_bit
002c0d d002      	rcall __i2c_delay1
002c0e 9ad5      	sbi  __i2c_dir,__scl_bit
002c0f e0e1      	ldi  r30,1
                 __i2c_delay1:
002c10 e162      	ldi  r22,18
002c11 c007      	rjmp __i2c_delay2l
                 _i2c_stop:
002c12 9ad4      	sbi  __i2c_dir,__sda_bit
002c13 9ad5      	sbi  __i2c_dir,__scl_bit
002c14 d003      	rcall __i2c_delay2
002c15 98d5      	cbi  __i2c_dir,__scl_bit
002c16 dff9      	rcall __i2c_delay1
002c17 98d4      	cbi  __i2c_dir,__sda_bit
                 __i2c_delay2:
002c18 e265      	ldi  r22,37
                 __i2c_delay2l:
002c19 956a      	dec  r22
002c1a f7f1      	brne __i2c_delay2l
002c1b 9508      	ret
                 _i2c_read:
002c1c e078      	ldi  r23,8
                 __i2c_read0:
002c1d 98d5      	cbi  __i2c_dir,__scl_bit
002c1e dff1      	rcall __i2c_delay1
                 __i2c_read3:
002c1f 9bcd      	sbis __i2c_pin,__scl_bit
002c20 cffe      	rjmp __i2c_read3
002c21 dfee      	rcall __i2c_delay1
002c22 9488      	clc
002c23 99cc      	sbic __i2c_pin,__sda_bit
002c24 9408      	sec
002c25 9ad5      	sbi  __i2c_dir,__scl_bit
002c26 dff1      	rcall __i2c_delay2
002c27 1fee      	rol  r30
002c28 957a      	dec  r23
002c29 f799      	brne __i2c_read0
002c2a 2f7a      	mov  r23,r26
002c2b 2377      	tst  r23
002c2c f411      	brne __i2c_read1
002c2d 98d4      	cbi  __i2c_dir,__sda_bit
002c2e c001      	rjmp __i2c_read2
                 __i2c_read1:
002c2f 9ad4      	sbi  __i2c_dir,__sda_bit
                 __i2c_read2:
002c30 dfdf      	rcall __i2c_delay1
002c31 98d5      	cbi  __i2c_dir,__scl_bit
002c32 dfe5      	rcall __i2c_delay2
002c33 9ad5      	sbi  __i2c_dir,__scl_bit
002c34 dfdb      	rcall __i2c_delay1
002c35 98d4      	cbi  __i2c_dir,__sda_bit
002c36 cfd9      	rjmp __i2c_delay1
                 
                 _i2c_write:
002c37 e078      	ldi  r23,8
                 __i2c_write0:
002c38 0faa      	lsl  r26
002c39 f410      	brcc __i2c_write1
002c3a 98d4      	cbi  __i2c_dir,__sda_bit
002c3b c001      	rjmp __i2c_write2
                 __i2c_write1:
002c3c 9ad4      	sbi  __i2c_dir,__sda_bit
                 __i2c_write2:
002c3d dfda      	rcall __i2c_delay2
002c3e 98d5      	cbi  __i2c_dir,__scl_bit
002c3f dfd0      	rcall __i2c_delay1
                 __i2c_write3:
002c40 9bcd      	sbis __i2c_pin,__scl_bit
002c41 cffe      	rjmp __i2c_write3
002c42 dfcd      	rcall __i2c_delay1
002c43 9ad5      	sbi  __i2c_dir,__scl_bit
002c44 957a      	dec  r23
002c45 f791      	brne __i2c_write0
002c46 98d4      	cbi  __i2c_dir,__sda_bit
002c47 dfc8      	rcall __i2c_delay1
002c48 98d5      	cbi  __i2c_dir,__scl_bit
002c49 dfce      	rcall __i2c_delay2
002c4a e0e1      	ldi  r30,1
002c4b 99cc      	sbic __i2c_pin,__sda_bit
002c4c 27ee      	clr  r30
002c4d 9ad5      	sbi  __i2c_dir,__scl_bit
002c4e cfc1      	rjmp __i2c_delay1
                 
                 _delay_ms:
002c4f 9610      	adiw r26,0
002c50 f039      	breq __delay_ms1
                 __delay_ms0:
                +
002c51 ec8d     +LDI R24 , LOW ( 0xACD )
002c52 e09a     +LDI R25 , HIGH ( 0xACD )
                +__DELAY_USW_LOOP :
002c53 9701     +SBIW R24 , 1
002c54 f7f1     +BRNE __DELAY_USW_LOOP
                 	__DELAY_USW 0xACD
002c55 95a8      	wdr
002c56 9711      	sbiw r26,1
002c57 f7c9      	brne __delay_ms0
                 __delay_ms1:
002c58 9508      	ret
                 
                 __ANEGF1:
002c59 9730      	SBIW R30,0
002c5a 4060      	SBCI R22,0
002c5b 4070      	SBCI R23,0
002c5c f009      	BREQ __ANEGF10
002c5d 5870      	SUBI R23,0x80
                 __ANEGF10:
002c5e 9508      	RET
                 
                 __ROUND_REPACK:
002c5f 2355      	TST  R21
002c60 f442      	BRPL __REPACK
002c61 3850      	CPI  R21,0x80
002c62 f411      	BRNE __ROUND_REPACK0
002c63 ffe0      	SBRS R30,0
002c64 c004      	RJMP __REPACK
                 __ROUND_REPACK0:
002c65 9631      	ADIW R30,1
002c66 1f69      	ADC  R22,R25
002c67 1f79      	ADC  R23,R25
002c68 f06b      	BRVS __REPACK1
                 
                 __REPACK:
002c69 e850      	LDI  R21,0x80
002c6a 2757      	EOR  R21,R23
002c6b f411      	BRNE __REPACK0
002c6c 935f      	PUSH R21
002c6d c0cf      	RJMP __ZERORES
                 __REPACK0:
002c6e 3f5f      	CPI  R21,0xFF
002c6f f031      	BREQ __REPACK1
002c70 0f66      	LSL  R22
002c71 0c00      	LSL  R0
002c72 9557      	ROR  R21
002c73 9567      	ROR  R22
002c74 2f75      	MOV  R23,R21
002c75 9508      	RET
                 __REPACK1:
002c76 935f      	PUSH R21
002c77 2000      	TST  R0
002c78 f00a      	BRMI __REPACK2
002c79 c0cf      	RJMP __MAXRES
                 __REPACK2:
002c7a c0c8      	RJMP __MINRES
                 
                 __UNPACK:
002c7b e850      	LDI  R21,0x80
002c7c 2e19      	MOV  R1,R25
002c7d 2215      	AND  R1,R21
002c7e 0f88      	LSL  R24
002c7f 1f99      	ROL  R25
002c80 2795      	EOR  R25,R21
002c81 0f55      	LSL  R21
002c82 9587      	ROR  R24
                 
                 __UNPACK1:
002c83 e850      	LDI  R21,0x80
002c84 2e07      	MOV  R0,R23
002c85 2205      	AND  R0,R21
002c86 0f66      	LSL  R22
002c87 1f77      	ROL  R23
002c88 2775      	EOR  R23,R21
002c89 0f55      	LSL  R21
002c8a 9567      	ROR  R22
002c8b 9508      	RET
                 
                 __CFD1U:
002c8c 9468      	SET
002c8d c001      	RJMP __CFD1U0
                 __CFD1:
002c8e 94e8      	CLT
                 __CFD1U0:
002c8f 935f      	PUSH R21
002c90 dff2      	RCALL __UNPACK1
002c91 3870      	CPI  R23,0x80
002c92 f018      	BRLO __CFD10
002c93 3f7f      	CPI  R23,0xFF
002c94 f408      	BRCC __CFD10
002c95 c0a7      	RJMP __ZERORES
                 __CFD10:
002c96 e156      	LDI  R21,22
002c97 1b57      	SUB  R21,R23
002c98 f4aa      	BRPL __CFD11
002c99 9551      	NEG  R21
002c9a 3058      	CPI  R21,8
002c9b f40e      	BRTC __CFD19
002c9c 3059      	CPI  R21,9
                 __CFD19:
002c9d f030      	BRLO __CFD17
002c9e efef      	SER  R30
002c9f efff      	SER  R31
002ca0 ef6f      	SER  R22
002ca1 e77f      	LDI  R23,0x7F
002ca2 f977      	BLD  R23,7
002ca3 c01a      	RJMP __CFD15
                 __CFD17:
002ca4 2777      	CLR  R23
002ca5 2355      	TST  R21
002ca6 f0b9      	BREQ __CFD15
                 __CFD18:
002ca7 0fee      	LSL  R30
002ca8 1fff      	ROL  R31
002ca9 1f66      	ROL  R22
002caa 1f77      	ROL  R23
002cab 955a      	DEC  R21
002cac f7d1      	BRNE __CFD18
002cad c010      	RJMP __CFD15
                 __CFD11:
002cae 2777      	CLR  R23
                 __CFD12:
002caf 3058      	CPI  R21,8
002cb0 f028      	BRLO __CFD13
002cb1 2fef      	MOV  R30,R31
002cb2 2ff6      	MOV  R31,R22
002cb3 2f67      	MOV  R22,R23
002cb4 5058      	SUBI R21,8
002cb5 cff9      	RJMP __CFD12
                 __CFD13:
002cb6 2355      	TST  R21
002cb7 f031      	BREQ __CFD15
                 __CFD14:
002cb8 9576      	LSR  R23
002cb9 9567      	ROR  R22
002cba 95f7      	ROR  R31
002cbb 95e7      	ROR  R30
002cbc 955a      	DEC  R21
002cbd f7d1      	BRNE __CFD14
                 __CFD15:
002cbe 2000      	TST  R0
002cbf f40a      	BRPL __CFD16
002cc0 d181      	RCALL __ANEGD1
                 __CFD16:
002cc1 915f      	POP  R21
002cc2 9508      	RET
                 
                 __CDF1U:
002cc3 9468      	SET
002cc4 c001      	RJMP __CDF1U0
                 __CDF1:
002cc5 94e8      	CLT
                 __CDF1U0:
002cc6 9730      	SBIW R30,0
002cc7 4060      	SBCI R22,0
002cc8 4070      	SBCI R23,0
002cc9 f0b1      	BREQ __CDF10
002cca 2400      	CLR  R0
002ccb f026      	BRTS __CDF11
002ccc 2377      	TST  R23
002ccd f412      	BRPL __CDF11
002cce 9400      	COM  R0
002ccf d172      	RCALL __ANEGD1
                 __CDF11:
002cd0 2e17      	MOV  R1,R23
002cd1 e17e      	LDI  R23,30
002cd2 2011      	TST  R1
                 __CDF12:
002cd3 f032      	BRMI __CDF13
002cd4 957a      	DEC  R23
002cd5 0fee      	LSL  R30
002cd6 1fff      	ROL  R31
002cd7 1f66      	ROL  R22
002cd8 1c11      	ROL  R1
002cd9 cff9      	RJMP __CDF12
                 __CDF13:
002cda 2fef      	MOV  R30,R31
002cdb 2ff6      	MOV  R31,R22
002cdc 2d61      	MOV  R22,R1
002cdd 935f      	PUSH R21
002cde df8a      	RCALL __REPACK
002cdf 915f      	POP  R21
                 __CDF10:
002ce0 9508      	RET
                 
                 __SWAPACC:
002ce1 934f      	PUSH R20
002ce2 01af      	MOVW R20,R30
002ce3 01fd      	MOVW R30,R26
002ce4 01da      	MOVW R26,R20
002ce5 01ab      	MOVW R20,R22
002ce6 01bc      	MOVW R22,R24
002ce7 01ca      	MOVW R24,R20
002ce8 2d40      	MOV  R20,R0
002ce9 2c01      	MOV  R0,R1
002cea 2e14      	MOV  R1,R20
002ceb 914f      	POP  R20
002cec 9508      	RET
                 
                 __UADD12:
002ced 0fea      	ADD  R30,R26
002cee 1ffb      	ADC  R31,R27
002cef 1f68      	ADC  R22,R24
002cf0 9508      	RET
                 
                 __NEGMAN1:
002cf1 95e0      	COM  R30
002cf2 95f0      	COM  R31
002cf3 9560      	COM  R22
002cf4 5fef      	SUBI R30,-1
002cf5 4fff      	SBCI R31,-1
002cf6 4f6f      	SBCI R22,-1
002cf7 9508      	RET
                 
                 __SUBF12:
002cf8 935f      	PUSH R21
002cf9 df81      	RCALL __UNPACK
002cfa 3890      	CPI  R25,0x80
002cfb f171      	BREQ __ADDF129
002cfc e850      	LDI  R21,0x80
002cfd 2615      	EOR  R1,R21
                 
002cfe c004      	RJMP __ADDF120
                 
                 __ADDF12:
002cff 935f      	PUSH R21
002d00 df7a      	RCALL __UNPACK
002d01 3890      	CPI  R25,0x80
002d02 f139      	BREQ __ADDF129
                 
                 __ADDF120:
002d03 3870      	CPI  R23,0x80
002d04 f121      	BREQ __ADDF128
                 __ADDF121:
002d05 2f57      	MOV  R21,R23
002d06 1b59      	SUB  R21,R25
002d07 f12b      	BRVS __ADDF1211
002d08 f412      	BRPL __ADDF122
002d09 dfd7      	RCALL __SWAPACC
002d0a cffa      	RJMP __ADDF121
                 __ADDF122:
002d0b 3158      	CPI  R21,24
002d0c f018      	BRLO __ADDF123
002d0d 27aa      	CLR  R26
002d0e 27bb      	CLR  R27
002d0f 2788      	CLR  R24
                 __ADDF123:
002d10 3058      	CPI  R21,8
002d11 f028      	BRLO __ADDF124
002d12 2fab      	MOV  R26,R27
002d13 2fb8      	MOV  R27,R24
002d14 2788      	CLR  R24
002d15 5058      	SUBI R21,8
002d16 cff9      	RJMP __ADDF123
                 __ADDF124:
002d17 2355      	TST  R21
002d18 f029      	BREQ __ADDF126
                 __ADDF125:
002d19 9586      	LSR  R24
002d1a 95b7      	ROR  R27
002d1b 95a7      	ROR  R26
002d1c 955a      	DEC  R21
002d1d f7d9      	BRNE __ADDF125
                 __ADDF126:
002d1e 2d50      	MOV  R21,R0
002d1f 2551      	EOR  R21,R1
002d20 f072      	BRMI __ADDF127
002d21 dfcb      	RCALL __UADD12
002d22 f438      	BRCC __ADDF129
002d23 9567      	ROR  R22
002d24 95f7      	ROR  R31
002d25 95e7      	ROR  R30
002d26 9573      	INC  R23
002d27 f413      	BRVC __ADDF129
002d28 c020      	RJMP __MAXRES
                 __ADDF128:
002d29 dfb7      	RCALL __SWAPACC
                 __ADDF129:
002d2a df3e      	RCALL __REPACK
002d2b 915f      	POP  R21
002d2c 9508      	RET
                 __ADDF1211:
002d2d f7d8      	BRCC __ADDF128
002d2e cffb      	RJMP __ADDF129
                 __ADDF127:
002d2f 1bea      	SUB  R30,R26
002d30 0bfb      	SBC  R31,R27
002d31 0b68      	SBC  R22,R24
002d32 f051      	BREQ __ZERORES
002d33 f410      	BRCC __ADDF1210
002d34 9400      	COM  R0
002d35 dfbb      	RCALL __NEGMAN1
                 __ADDF1210:
002d36 2366      	TST  R22
002d37 f392      	BRMI __ADDF129
002d38 0fee      	LSL  R30
002d39 1fff      	ROL  R31
002d3a 1f66      	ROL  R22
002d3b 957a      	DEC  R23
002d3c f7cb      	BRVC __ADDF1210
                 
                 __ZERORES:
002d3d 27ee      	CLR  R30
002d3e 27ff      	CLR  R31
002d3f 2766      	CLR  R22
002d40 2777      	CLR  R23
002d41 915f      	POP  R21
002d42 9508      	RET
                 
                 __MINRES:
002d43 efef      	SER  R30
002d44 efff      	SER  R31
002d45 e76f      	LDI  R22,0x7F
002d46 ef7f      	SER  R23
002d47 915f      	POP  R21
002d48 9508      	RET
                 
                 __MAXRES:
002d49 efef      	SER  R30
002d4a efff      	SER  R31
002d4b e76f      	LDI  R22,0x7F
002d4c e77f      	LDI  R23,0x7F
002d4d 915f      	POP  R21
002d4e 9508      	RET
                 
                 __MULF12:
002d4f 935f      	PUSH R21
002d50 df2a      	RCALL __UNPACK
002d51 3870      	CPI  R23,0x80
002d52 f351      	BREQ __ZERORES
002d53 3890      	CPI  R25,0x80
002d54 f341      	BREQ __ZERORES
002d55 2401      	EOR  R0,R1
002d56 9408      	SEC
002d57 1f79      	ADC  R23,R25
002d58 f423      	BRVC __MULF124
002d59 f31c      	BRLT __ZERORES
                 __MULF125:
002d5a 2000      	TST  R0
002d5b f33a      	BRMI __MINRES
002d5c cfec      	RJMP __MAXRES
                 __MULF124:
002d5d 920f      	PUSH R0
002d5e 931f      	PUSH R17
002d5f 932f      	PUSH R18
002d60 933f      	PUSH R19
002d61 934f      	PUSH R20
002d62 2711      	CLR  R17
002d63 2722      	CLR  R18
002d64 2799      	CLR  R25
002d65 9f68      	MUL  R22,R24
002d66 01a0      	MOVW R20,R0
002d67 9f8f      	MUL  R24,R31
002d68 2d30      	MOV  R19,R0
002d69 0d41      	ADD  R20,R1
002d6a 1f59      	ADC  R21,R25
002d6b 9f6b      	MUL  R22,R27
002d6c 0d30      	ADD  R19,R0
002d6d 1d41      	ADC  R20,R1
002d6e 1f59      	ADC  R21,R25
002d6f 9f8e      	MUL  R24,R30
002d70 d027      	RCALL __MULF126
002d71 9fbf      	MUL  R27,R31
002d72 d025      	RCALL __MULF126
002d73 9f6a      	MUL  R22,R26
002d74 d023      	RCALL __MULF126
002d75 9fbe      	MUL  R27,R30
002d76 d01d      	RCALL __MULF127
002d77 9faf      	MUL  R26,R31
002d78 d01b      	RCALL __MULF127
002d79 9fae      	MUL  R26,R30
002d7a 0d11      	ADD  R17,R1
002d7b 1f29      	ADC  R18,R25
002d7c 1f39      	ADC  R19,R25
002d7d 1f49      	ADC  R20,R25
002d7e 1f59      	ADC  R21,R25
002d7f 2fe3      	MOV  R30,R19
002d80 2ff4      	MOV  R31,R20
002d81 2f65      	MOV  R22,R21
002d82 2f52      	MOV  R21,R18
002d83 914f      	POP  R20
002d84 913f      	POP  R19
002d85 912f      	POP  R18
002d86 911f      	POP  R17
002d87 900f      	POP  R0
002d88 2366      	TST  R22
002d89 f02a      	BRMI __MULF122
002d8a 0f55      	LSL  R21
002d8b 1fee      	ROL  R30
002d8c 1fff      	ROL  R31
002d8d 1f66      	ROL  R22
002d8e c002      	RJMP __MULF123
                 __MULF122:
002d8f 9573      	INC  R23
002d90 f24b      	BRVS __MULF125
                 __MULF123:
002d91 decd      	RCALL __ROUND_REPACK
002d92 915f      	POP  R21
002d93 9508      	RET
                 
                 __MULF127:
002d94 0d10      	ADD  R17,R0
002d95 1d21      	ADC  R18,R1
002d96 1f39      	ADC  R19,R25
002d97 c002      	RJMP __MULF128
                 __MULF126:
002d98 0d20      	ADD  R18,R0
002d99 1d31      	ADC  R19,R1
                 __MULF128:
002d9a 1f49      	ADC  R20,R25
002d9b 1f59      	ADC  R21,R25
002d9c 9508      	RET
                 
                 __DIVF21:
002d9d 935f      	PUSH R21
002d9e dedc      	RCALL __UNPACK
002d9f 3870      	CPI  R23,0x80
002da0 f421      	BRNE __DIVF210
002da1 2011      	TST  R1
                 __DIVF211:
002da2 f40a      	BRPL __DIVF219
002da3 cf9f      	RJMP __MINRES
                 __DIVF219:
002da4 cfa4      	RJMP __MAXRES
                 __DIVF210:
002da5 3890      	CPI  R25,0x80
002da6 f409      	BRNE __DIVF218
                 __DIVF217:
002da7 cf95      	RJMP __ZERORES
                 __DIVF218:
002da8 2401      	EOR  R0,R1
002da9 9408      	SEC
002daa 0b97      	SBC  R25,R23
002dab f41b      	BRVC __DIVF216
002dac f3d4      	BRLT __DIVF217
002dad 2000      	TST  R0
002dae cff3      	RJMP __DIVF211
                 __DIVF216:
002daf 2f79      	MOV  R23,R25
002db0 931f      	PUSH R17
002db1 932f      	PUSH R18
002db2 933f      	PUSH R19
002db3 934f      	PUSH R20
002db4 2411      	CLR  R1
002db5 2711      	CLR  R17
002db6 2722      	CLR  R18
002db7 2733      	CLR  R19
002db8 2744      	CLR  R20
002db9 2755      	CLR  R21
002dba e290      	LDI  R25,32
                 __DIVF212:
002dbb 17ae      	CP   R26,R30
002dbc 07bf      	CPC  R27,R31
002dbd 0786      	CPC  R24,R22
002dbe 0741      	CPC  R20,R17
002dbf f030      	BRLO __DIVF213
002dc0 1bae      	SUB  R26,R30
002dc1 0bbf      	SBC  R27,R31
002dc2 0b86      	SBC  R24,R22
002dc3 0b41      	SBC  R20,R17
002dc4 9408      	SEC
002dc5 c001      	RJMP __DIVF214
                 __DIVF213:
002dc6 9488      	CLC
                 __DIVF214:
002dc7 1f55      	ROL  R21
002dc8 1f22      	ROL  R18
002dc9 1f33      	ROL  R19
002dca 1c11      	ROL  R1
002dcb 1faa      	ROL  R26
002dcc 1fbb      	ROL  R27
002dcd 1f88      	ROL  R24
002dce 1f44      	ROL  R20
002dcf 959a      	DEC  R25
002dd0 f751      	BRNE __DIVF212
002dd1 01f9      	MOVW R30,R18
002dd2 2d61      	MOV  R22,R1
002dd3 914f      	POP  R20
002dd4 913f      	POP  R19
002dd5 912f      	POP  R18
002dd6 911f      	POP  R17
002dd7 2366      	TST  R22
002dd8 f032      	BRMI __DIVF215
002dd9 0f55      	LSL  R21
002dda 1fee      	ROL  R30
002ddb 1fff      	ROL  R31
002ddc 1f66      	ROL  R22
002ddd 957a      	DEC  R23
002dde f243      	BRVS __DIVF217
                 __DIVF215:
002ddf de7f      	RCALL __ROUND_REPACK
002de0 915f      	POP  R21
002de1 9508      	RET
                 
                 __CMPF12:
002de2 2399      	TST  R25
002de3 f09a      	BRMI __CMPF120
002de4 2377      	TST  R23
002de5 f042      	BRMI __CMPF121
002de6 1797      	CP   R25,R23
002de7 f048      	BRLO __CMPF122
002de8 f429      	BRNE __CMPF121
002de9 17ae      	CP   R26,R30
002dea 07bf      	CPC  R27,R31
002deb 0786      	CPC  R24,R22
002dec f020      	BRLO __CMPF122
002ded f031      	BREQ __CMPF123
                 __CMPF121:
002dee 9498      	CLZ
002def 9488      	CLC
002df0 9508      	RET
                 __CMPF122:
002df1 9498      	CLZ
002df2 9408      	SEC
002df3 9508      	RET
                 __CMPF123:
002df4 9418      	SEZ
002df5 9488      	CLC
002df6 9508      	RET
                 __CMPF120:
002df7 2377      	TST  R23
002df8 f7c2      	BRPL __CMPF122
002df9 1797      	CP   R25,R23
002dfa f398      	BRLO __CMPF121
002dfb f7a9      	BRNE __CMPF122
002dfc 17ea      	CP   R30,R26
002dfd 07fb      	CPC  R31,R27
002dfe 0768      	CPC  R22,R24
002dff f388      	BRLO __CMPF122
002e00 f399      	BREQ __CMPF123
002e01 cfec      	RJMP __CMPF121
                 
                 _sqrt:
002e02 d13b      	rcall __PUTPARD2
002e03 9724      	sbiw r28,4
002e04 935f      	push r21
002e05 819f      	ldd  r25,y+7
002e06 2399      	tst  r25
002e07 f411      	brne __sqrt0
002e08 9628      	adiw r28,8
002e09 cf33      	rjmp __zerores
                 __sqrt0:
002e0a f412      	brpl __sqrt1
002e0b 9628      	adiw r28,8
002e0c cf3c      	rjmp __maxres
                 __sqrt1:
002e0d 934f      	push r20
002e0e e442      	ldi  r20,66
002e0f 818e      	ldd  r24,y+6
002e10 81bd      	ldd  r27,y+5
002e11 81ac      	ldd  r26,y+4
                 __sqrt2:
002e12 8388      	st   y,r24
002e13 8399      	std  y+1,r25
002e14 83aa      	std  y+2,r26
002e15 83bb      	std  y+3,r27
002e16 01fd      	movw r30,r26
002e17 01bc      	movw r22,r24
002e18 81ac      	ldd  r26,y+4
002e19 81bd      	ldd  r27,y+5
002e1a 818e      	ldd  r24,y+6
002e1b 819f      	ldd  r25,y+7
002e1c df80      	rcall __divf21
002e1d 8188      	ld   r24,y
002e1e 8199      	ldd  r25,y+1
002e1f 81aa      	ldd  r26,y+2
002e20 81bb      	ldd  r27,y+3
002e21 dedd      	rcall __addf12
002e22 de60      	rcall __unpack1
002e23 957a      	dec  r23
002e24 de44      	rcall __repack
002e25 8188      	ld   r24,y
002e26 8199      	ldd  r25,y+1
002e27 81aa      	ldd  r26,y+2
002e28 81bb      	ldd  r27,y+3
002e29 27ae      	eor  r26,r30
002e2a 7fa8      	andi r26,0xf8
002e2b f421      	brne __sqrt4
002e2c 17bf      	cp   r27,r31
002e2d 0786      	cpc  r24,r22
002e2e 0797      	cpc  r25,r23
002e2f f029      	breq __sqrt3
                 __sqrt4:
002e30 954a      	dec  r20
002e31 f019      	breq __sqrt3
002e32 01df      	movw r26,r30
002e33 01cb      	movw r24,r22
002e34 cfdd      	rjmp __sqrt2
                 __sqrt3:
002e35 914f      	pop  r20
002e36 915f      	pop  r21
002e37 9628      	adiw r28,8
002e38 9508      	ret
                 
                 __ADDD12:
002e39 0fea      	ADD  R30,R26
002e3a 1ffb      	ADC  R31,R27
002e3b 1f68      	ADC  R22,R24
002e3c 1f79      	ADC  R23,R25
002e3d 9508      	RET
                 
                 __ANEGW1:
002e3e 95f1      	NEG  R31
002e3f 95e1      	NEG  R30
002e40 40f0      	SBCI R31,0
002e41 9508      	RET
                 
                 __ANEGD1:
002e42 95f0      	COM  R31
002e43 9560      	COM  R22
002e44 9570      	COM  R23
002e45 95e1      	NEG  R30
002e46 4fff      	SBCI R31,-1
002e47 4f6f      	SBCI R22,-1
002e48 4f7f      	SBCI R23,-1
002e49 9508      	RET
                 
                 __ASRW8:
002e4a 2fef      	MOV  R30,R31
002e4b 27ff      	CLR  R31
002e4c fde7      	SBRC R30,7
002e4d efff      	SER  R31
002e4e 9508      	RET
                 
                 __CWD1:
002e4f 2f6f      	MOV  R22,R31
002e50 0f66      	ADD  R22,R22
002e51 0b66      	SBC  R22,R22
002e52 2f76      	MOV  R23,R22
002e53 9508      	RET
                 
                 __CWD2:
002e54 2f8b      	MOV  R24,R27
002e55 0f88      	ADD  R24,R24
002e56 0b88      	SBC  R24,R24
002e57 2f98      	MOV  R25,R24
002e58 9508      	RET
                 
                 __MULW12U:
002e59 9ffa      	MUL  R31,R26
002e5a 2df0      	MOV  R31,R0
002e5b 9feb      	MUL  R30,R27
002e5c 0df0      	ADD  R31,R0
002e5d 9fea      	MUL  R30,R26
002e5e 2de0      	MOV  R30,R0
002e5f 0df1      	ADD  R31,R1
002e60 9508      	RET
                 
                 __MULD12U:
002e61 9f7a      	MUL  R23,R26
002e62 2d70      	MOV  R23,R0
002e63 9f6b      	MUL  R22,R27
002e64 0d70      	ADD  R23,R0
002e65 9ff8      	MUL  R31,R24
002e66 0d70      	ADD  R23,R0
002e67 9fe9      	MUL  R30,R25
002e68 0d70      	ADD  R23,R0
002e69 9f6a      	MUL  R22,R26
002e6a 2d60      	MOV  R22,R0
002e6b 0d71      	ADD  R23,R1
002e6c 9ffb      	MUL  R31,R27
002e6d 0d60      	ADD  R22,R0
002e6e 1d71      	ADC  R23,R1
002e6f 9fe8      	MUL  R30,R24
002e70 0d60      	ADD  R22,R0
002e71 1d71      	ADC  R23,R1
002e72 2788      	CLR  R24
002e73 9ffa      	MUL  R31,R26
002e74 2df0      	MOV  R31,R0
002e75 0d61      	ADD  R22,R1
002e76 1f78      	ADC  R23,R24
002e77 9feb      	MUL  R30,R27
002e78 0df0      	ADD  R31,R0
002e79 1d61      	ADC  R22,R1
002e7a 1f78      	ADC  R23,R24
002e7b 9fea      	MUL  R30,R26
002e7c 2de0      	MOV  R30,R0
002e7d 0df1      	ADD  R31,R1
002e7e 1f68      	ADC  R22,R24
002e7f 1f78      	ADC  R23,R24
002e80 9508      	RET
                 
                 __MULW12:
002e81 d070      	RCALL __CHKSIGNW
002e82 dfd6      	RCALL __MULW12U
002e83 f40e      	BRTC __MULW121
002e84 dfb9      	RCALL __ANEGW1
                 __MULW121:
002e85 9508      	RET
                 
                 __MULD12:
002e86 d079      	RCALL __CHKSIGND
002e87 dfd9      	RCALL __MULD12U
002e88 f40e      	BRTC __MULD121
002e89 dfb8      	RCALL __ANEGD1
                 __MULD121:
002e8a 9508      	RET
                 
                 __DIVW21U:
002e8b 2400      	CLR  R0
002e8c 2411      	CLR  R1
002e8d e190      	LDI  R25,16
                 __DIVW21U1:
002e8e 0faa      	LSL  R26
002e8f 1fbb      	ROL  R27
002e90 1c00      	ROL  R0
002e91 1c11      	ROL  R1
002e92 1a0e      	SUB  R0,R30
002e93 0a1f      	SBC  R1,R31
002e94 f418      	BRCC __DIVW21U2
002e95 0e0e      	ADD  R0,R30
002e96 1e1f      	ADC  R1,R31
002e97 c001      	RJMP __DIVW21U3
                 __DIVW21U2:
002e98 60a1      	SBR  R26,1
                 __DIVW21U3:
002e99 959a      	DEC  R25
002e9a f799      	BRNE __DIVW21U1
002e9b 01fd      	MOVW R30,R26
002e9c 01d0      	MOVW R26,R0
002e9d 9508      	RET
                 
                 __DIVW21:
002e9e d053      	RCALL __CHKSIGNW
002e9f dfeb      	RCALL __DIVW21U
002ea0 f40e      	BRTC __DIVW211
002ea1 df9c      	RCALL __ANEGW1
                 __DIVW211:
002ea2 9508      	RET
                 
                 __DIVD21U:
002ea3 933f      	PUSH R19
002ea4 934f      	PUSH R20
002ea5 935f      	PUSH R21
002ea6 2400      	CLR  R0
002ea7 2411      	CLR  R1
002ea8 2744      	CLR  R20
002ea9 2755      	CLR  R21
002eaa e230      	LDI  R19,32
                 __DIVD21U1:
002eab 0faa      	LSL  R26
002eac 1fbb      	ROL  R27
002ead 1f88      	ROL  R24
002eae 1f99      	ROL  R25
002eaf 1c00      	ROL  R0
002eb0 1c11      	ROL  R1
002eb1 1f44      	ROL  R20
002eb2 1f55      	ROL  R21
002eb3 1a0e      	SUB  R0,R30
002eb4 0a1f      	SBC  R1,R31
002eb5 0b46      	SBC  R20,R22
002eb6 0b57      	SBC  R21,R23
002eb7 f428      	BRCC __DIVD21U2
002eb8 0e0e      	ADD  R0,R30
002eb9 1e1f      	ADC  R1,R31
002eba 1f46      	ADC  R20,R22
002ebb 1f57      	ADC  R21,R23
002ebc c001      	RJMP __DIVD21U3
                 __DIVD21U2:
002ebd 60a1      	SBR  R26,1
                 __DIVD21U3:
002ebe 953a      	DEC  R19
002ebf f759      	BRNE __DIVD21U1
002ec0 01fd      	MOVW R30,R26
002ec1 01bc      	MOVW R22,R24
002ec2 01d0      	MOVW R26,R0
002ec3 01ca      	MOVW R24,R20
002ec4 915f      	POP  R21
002ec5 914f      	POP  R20
002ec6 913f      	POP  R19
002ec7 9508      	RET
                 
                 __DIVD21:
002ec8 d037      	RCALL __CHKSIGND
002ec9 dfd9      	RCALL __DIVD21U
002eca f40e      	BRTC __DIVD211
002ecb df76      	RCALL __ANEGD1
                 __DIVD211:
002ecc 9508      	RET
                 
                 __MODW21U:
002ecd dfbd      	RCALL __DIVW21U
002ece 01fd      	MOVW R30,R26
002ecf 9508      	RET
                 
                 __MODW21:
002ed0 94e8      	CLT
002ed1 ffb7      	SBRS R27,7
002ed2 c004      	RJMP __MODW211
002ed3 95a0      	COM  R26
002ed4 95b0      	COM  R27
002ed5 9611      	ADIW R26,1
002ed6 9468      	SET
                 __MODW211:
002ed7 fdf7      	SBRC R31,7
002ed8 df65      	RCALL __ANEGW1
002ed9 dfb1      	RCALL __DIVW21U
002eda 01fd      	MOVW R30,R26
002edb f40e      	BRTC __MODW212
002edc df61      	RCALL __ANEGW1
                 __MODW212:
002edd 9508      	RET
                 
                 __MODD21:
002ede 94e8      	CLT
002edf ff97      	SBRS R25,7
002ee0 c009      	RJMP __MODD211
002ee1 95a0      	COM  R26
002ee2 95b0      	COM  R27
002ee3 9580      	COM  R24
002ee4 9590      	COM  R25
002ee5 5faf      	SUBI R26,-1
002ee6 4fbf      	SBCI R27,-1
002ee7 4f8f      	SBCI R24,-1
002ee8 4f9f      	SBCI R25,-1
002ee9 9468      	SET
                 __MODD211:
002eea fd77      	SBRC R23,7
002eeb df56      	RCALL __ANEGD1
002eec dfb6      	RCALL __DIVD21U
002eed 01fd      	MOVW R30,R26
002eee 01bc      	MOVW R22,R24
002eef f40e      	BRTC __MODD212
002ef0 df51      	RCALL __ANEGD1
                 __MODD212:
002ef1 9508      	RET
                 
                 __CHKSIGNW:
002ef2 94e8      	CLT
002ef3 fff7      	SBRS R31,7
002ef4 c002      	RJMP __CHKSW1
002ef5 df48      	RCALL __ANEGW1
002ef6 9468      	SET
                 __CHKSW1:
002ef7 ffb7      	SBRS R27,7
002ef8 c006      	RJMP __CHKSW2
002ef9 95a0      	COM  R26
002efa 95b0      	COM  R27
002efb 9611      	ADIW R26,1
002efc f800      	BLD  R0,0
002efd 9403      	INC  R0
002efe fa00      	BST  R0,0
                 __CHKSW2:
002eff 9508      	RET
                 
                 __CHKSIGND:
002f00 94e8      	CLT
002f01 ff77      	SBRS R23,7
002f02 c002      	RJMP __CHKSD1
002f03 df3e      	RCALL __ANEGD1
002f04 9468      	SET
                 __CHKSD1:
002f05 ff97      	SBRS R25,7
002f06 c00b      	RJMP __CHKSD2
002f07 2400      	CLR  R0
002f08 95a0      	COM  R26
002f09 95b0      	COM  R27
002f0a 9580      	COM  R24
002f0b 9590      	COM  R25
002f0c 9611      	ADIW R26,1
002f0d 1d80      	ADC  R24,R0
002f0e 1d90      	ADC  R25,R0
002f0f f800      	BLD  R0,0
002f10 9403      	INC  R0
002f11 fa00      	BST  R0,0
                 __CHKSD2:
002f12 9508      	RET
                 
                 __GETW1P:
002f13 91ed      	LD   R30,X+
002f14 91fc      	LD   R31,X
002f15 9711      	SBIW R26,1
002f16 9508      	RET
                 
                 __GETD1P_INC:
002f17 91ed      	LD   R30,X+
002f18 91fd      	LD   R31,X+
002f19 916d      	LD   R22,X+
002f1a 917d      	LD   R23,X+
002f1b 9508      	RET
                 
                 __PUTDP1:
002f1c 93ed      	ST   X+,R30
002f1d 93fd      	ST   X+,R31
002f1e 936d      	ST   X+,R22
002f1f 937c      	ST   X,R23
002f20 9508      	RET
                 
                 __PUTDP1_DEC:
002f21 937e      	ST   -X,R23
002f22 936e      	ST   -X,R22
002f23 93fe      	ST   -X,R31
002f24 93ee      	ST   -X,R30
002f25 9508      	RET
                 
                 __GETW1PF:
002f26 9005      	LPM  R0,Z+
002f27 91f4      	LPM  R31,Z
002f28 2de0      	MOV  R30,R0
002f29 9508      	RET
                 
                 __GETD1S0:
002f2a 81e8      	LD   R30,Y
002f2b 81f9      	LDD  R31,Y+1
002f2c 816a      	LDD  R22,Y+2
002f2d 817b      	LDD  R23,Y+3
002f2e 9508      	RET
                 
                 __GETD2S0:
002f2f 81a8      	LD   R26,Y
002f30 81b9      	LDD  R27,Y+1
002f31 818a      	LDD  R24,Y+2
002f32 819b      	LDD  R25,Y+3
002f33 9508      	RET
                 
                 __PUTD1S0:
002f34 83e8      	ST   Y,R30
002f35 83f9      	STD  Y+1,R31
002f36 836a      	STD  Y+2,R22
002f37 837b      	STD  Y+3,R23
002f38 9508      	RET
                 
                 __PUTPARD1:
002f39 937a      	ST   -Y,R23
002f3a 936a      	ST   -Y,R22
002f3b 93fa      	ST   -Y,R31
002f3c 93ea      	ST   -Y,R30
002f3d 9508      	RET
                 
                 __PUTPARD2:
002f3e 939a      	ST   -Y,R25
002f3f 938a      	ST   -Y,R24
002f40 93ba      	ST   -Y,R27
002f41 93aa      	ST   -Y,R26
002f42 9508      	RET
                 
                 __CDF2U:
002f43 9468      	SET
002f44 c001      	RJMP __CDF2U0
                 __CDF2:
002f45 94e8      	CLT
                 __CDF2U0:
002f46 d001      	RCALL __SWAPD12
002f47 dd7e      	RCALL __CDF1U0
                 
                 __SWAPD12:
002f48 2e18      	MOV  R1,R24
002f49 2f86      	MOV  R24,R22
002f4a 2d61      	MOV  R22,R1
002f4b 2e19      	MOV  R1,R25
002f4c 2f97      	MOV  R25,R23
002f4d 2d71      	MOV  R23,R1
                 
                 __SWAPW12:
002f4e 2e1b      	MOV  R1,R27
002f4f 2fbf      	MOV  R27,R31
002f50 2df1      	MOV  R31,R1
                 
                 __SWAPB12:
002f51 2e1a      	MOV  R1,R26
002f52 2fae      	MOV  R26,R30
002f53 2de1      	MOV  R30,R1
002f54 9508      	RET
                 
                 __EEPROMRDD:
002f55 9612      	ADIW R26,2
002f56 d002      	RCALL __EEPROMRDW
002f57 01bf      	MOVW R22,R30
002f58 9712      	SBIW R26,2
                 
                 __EEPROMRDW:
002f59 9611      	ADIW R26,1
002f5a d002      	RCALL __EEPROMRDB
002f5b 2ffe      	MOV  R31,R30
002f5c 9711      	SBIW R26,1
                 
                 __EEPROMRDB:
002f5d 99e1      	SBIC EECR,EEWE
002f5e cffe      	RJMP __EEPROMRDB
002f5f 93ff      	PUSH R31
002f60 b7ff      	IN   R31,SREG
002f61 94f8      	CLI
002f62 bbae      	OUT  EEARL,R26
002f63 bbbf      	OUT  EEARH,R27
002f64 9ae0      	SBI  EECR,EERE
002f65 b3ed      	IN   R30,EEDR
002f66 bfff      	OUT  SREG,R31
002f67 91ff      	POP  R31
002f68 9508      	RET
                 
                 __EEPROMWRD:
002f69 d007      	RCALL __EEPROMWRW
002f6a 9612      	ADIW R26,2
002f6b 010f      	MOVW R0,R30
002f6c 01fb      	MOVW R30,R22
002f6d d003      	RCALL __EEPROMWRW
002f6e 01f0      	MOVW R30,R0
002f6f 9712      	SBIW R26,2
002f70 9508      	RET
                 
                 __EEPROMWRW:
002f71 d007      	RCALL __EEPROMWRB
002f72 9611      	ADIW R26,1
002f73 93ef      	PUSH R30
002f74 2fef      	MOV  R30,R31
002f75 d003      	RCALL __EEPROMWRB
002f76 91ef      	POP  R30
002f77 9711      	SBIW R26,1
002f78 9508      	RET
                 
                 __EEPROMWRB:
002f79 9be1      	SBIS EECR,EEWE
002f7a c002      	RJMP __EEPROMWRB1
002f7b 95a8      	WDR
002f7c cffc      	RJMP __EEPROMWRB
                 __EEPROMWRB1:
002f7d b79f      	IN   R25,SREG
002f7e 94f8      	CLI
002f7f bbae      	OUT  EEARL,R26
002f80 bbbf      	OUT  EEARH,R27
002f81 9ae0      	SBI  EECR,EERE
002f82 b38d      	IN   R24,EEDR
002f83 17e8      	CP   R30,R24
002f84 f019      	BREQ __EEPROMWRB0
002f85 bbed      	OUT  EEDR,R30
002f86 9ae2      	SBI  EECR,EEMWE
002f87 9ae1      	SBI  EECR,EEWE
                 __EEPROMWRB0:
002f88 bf9f      	OUT  SREG,R25
002f89 9508      	RET
                 
                 __CPD10:
002f8a 9730      	SBIW R30,0
002f8b 4060      	SBCI R22,0
002f8c 4070      	SBCI R23,0
002f8d 9508      	RET
                 
                 __CPD02:
002f8e 2400      	CLR  R0
002f8f 160a      	CP   R0,R26
002f90 060b      	CPC  R0,R27
002f91 0608      	CPC  R0,R24
002f92 0609      	CPC  R0,R25
002f93 9508      	RET
                 
                 __CPD12:
002f94 17ea      	CP   R30,R26
002f95 07fb      	CPC  R31,R27
002f96 0768      	CPC  R22,R24
002f97 0779      	CPC  R23,R25
002f98 9508      	RET
                 
                 __CPD21:
002f99 17ae      	CP   R26,R30
002f9a 07bf      	CPC  R27,R31
002f9b 0786      	CPC  R24,R22
002f9c 0797      	CPC  R25,R23
002f9d 9508      	RET
                 
                 __SAVELOCR6:
002f9e 935a      	ST   -Y,R21
                 __SAVELOCR5:
002f9f 934a      	ST   -Y,R20
                 __SAVELOCR4:
002fa0 933a      	ST   -Y,R19
                 __SAVELOCR3:
002fa1 932a      	ST   -Y,R18
                 __SAVELOCR2:
002fa2 931a      	ST   -Y,R17
002fa3 930a      	ST   -Y,R16
002fa4 9508      	RET
                 
                 __LOADLOCR6:
002fa5 815d      	LDD  R21,Y+5
                 __LOADLOCR5:
002fa6 814c      	LDD  R20,Y+4
                 __LOADLOCR4:
002fa7 813b      	LDD  R19,Y+3
                 __LOADLOCR3:
002fa8 812a      	LDD  R18,Y+2
                 __LOADLOCR2:
002fa9 8119      	LDD  R17,Y+1
002faa 8108      	LD   R16,Y
002fab 9508      	RET
                 
                 ;END OF CODE MARKER
                 __END_OF_CODE:


RESOURCE USE INFORMATION
------------------------

Notice:
The register and instruction counts are symbol table hit counts,
and hence implicitly used resources are not counted, eg, the
'lpm' instruction without operands implicitly uses r0 and z,
none of which are counted.

x,y,z are separate entities in the symbol table and are
counted separately from r26..r31 here.

.dseg memory usage only counts static data declared with .byte

ATmega32 register use summary:
r0 :  82 r1 :  48 r2 :  30 r3 :  24 r4 :  30 r5 :  29 r6 :  14 r7 :  18 
r8 :   2 r9 :  13 r10:  13 r11:  14 r12:  17 r13:  13 r14:   0 r15:   2 
r16:  72 r17:  81 r18:  35 r19:  35 r20:  52 r21:  89 r22: 351 r23: 307 
r24: 289 r25: 241 r26:1531 r27: 770 r28:  62 r29:   1 r30:2118 r31:1012 
x  : 120 y  :1036 z  :  21 
Registers used: 34 out of 35 (97.1%)

ATmega32 instruction use summary:
.lds  :   0 .lds.l:   0 .sts  :   0 .sts.l:   0 adc   :  58 add   :  51 
adiw  : 102 and   :   5 andi  :  17 asr   :   0 bclr  :   0 bld   :  75 
brbc  :   0 brbs  :   0 brcc  :  17 brcs  :   5 break :   0 breq  :  65 
brge  :  26 brhc  :   0 brhs  :   0 brid  :   0 brie  :   0 brlo  :  29 
brlt  :  60 brmi  :  15 brne  : 153 brpl  :  16 brsh  :  30 brtc  :   8 
brts  :   2 brvc  :   4 brvs  :   4 bset  :   0 bst   :   4 call  :1031 
cbi   :  65 cbr   :   2 clc   :   4 clh   :   0 cli   :  10 cln   :   0 
clr   :  71 cls   :   0 clt   :  40 clv   :   0 clz   :   2 com   :  22 
cp    :  44 cpc   : 196 cpi   : 179 cpse  :   0 dec   :  23 des   :   0 
eor   :  12 fmul  :   0 fmuls :   0 fmulsu:   0 icall :   0 ijmp  :   0 
in    :  29 inc   :  11 jmp   :  38 ld    : 113 ldd   : 526 ldi   :1854 
lds   : 849 lpm   :  14 lsl   :  30 lsr   :   3 mov   : 151 movw  : 226 
mul   :  23 muls  :   0 mulsu :   0 neg   :   4 nop   :   1 or    :  15 
ori   :   7 out   :  79 pop   : 135 push  : 135 rcall : 158 ret   : 119 
reti  :   3 rjmp  : 393 rol   :  42 ror   :  15 sbc   :  13 sbci  :  67 
sbi   :  58 sbic  :  22 sbis  :  27 sbiw  : 118 sbr   :   4 sbrc  :  21 
sbrs  :  32 sec   :   6 seh   :   0 sei   :   7 sen   :   0 ser   :   9 
ses   :   0 set   :  47 sev   :   0 sez   :   1 sleep :   0 spm   :   0 
st    : 309 std   : 218 sts   : 578 sub   :   7 subi  :  65 swap  :   3 
tst   :  31 wdr   :   5 
Instructions used: 83 out of 116 (71.6%)

ATmega32 memory use summary [bytes]:
Segment   Begin    End      Code   Data   Used    Size   Use%
---------------------------------------------------------------
[.cseg] 0x000000 0x005f58  23122   1286  24408   32768  74.5%
[.dseg] 0x000060 0x0003a2      0    322    322    2048  15.7%
[.eseg] 0x000000 0x000026      0     37     37    1024   3.6%

Assembly complete, 0 errors, 10 warnings
